 HydraIRC

 Timestamp is 632d6c87 (Fri Sep 23 04:21:27 2022)

 Preferred load address is 00400000

 Start         Length     Name                   Class
 0001:00000000 001282e8H .text                   CODE
 0001:001282f0 00006252H .text$x                 CODE
 0001:0012e550 00000b4eH .text$yc                CODE
 0001:0012f0a0 0000016eH .text$yd                CODE
 0002:00000000 000006ccH .idata$5                DATA
 0002:000006cc 00000004H .CRT$XCA                DATA
 0002:000006d0 0000000cH .CRT$XCC                DATA
 0002:000006dc 00000014H .CRT$XCL                DATA
 0002:000006f0 00000158H .CRT$XCU                DATA
 0002:00000848 00000004H .CRT$XCZ                DATA
 0002:0000084c 00000004H .CRT$XIA                DATA
 0002:00000850 00000014H .CRT$XIC                DATA
 0002:00000864 00000004H .CRT$XID                DATA
 0002:00000868 00000004H .CRT$XIY                DATA
 0002:0000086c 00000004H .CRT$XIZ                DATA
 0002:00000870 00000004H .CRT$XPA                DATA
 0002:00000874 00000004H .CRT$XPX                DATA
 0002:00000878 00000004H .CRT$XPXA               DATA
 0002:0000087c 00000004H .CRT$XPZ                DATA
 0002:00000880 00000004H .CRT$XTA                DATA
 0002:00000884 00000004H .CRT$XTZ                DATA
 0002:00000890 000274c0H .rdata                  DATA
 0002:00027d50 00007b54H .rdata$r                DATA
 0002:0002f8b0 00000704H .rdata$sxdata           DATA
 0002:0002ffb4 00000004H .rtc$IAA                DATA
 0002:0002ffb8 00000004H .rtc$IZZ                DATA
 0002:0002ffbc 00000004H .rtc$TAA                DATA
 0002:0002ffc0 00000004H .rtc$TZZ                DATA
 0002:0002ffc8 00006b5cH .xdata$x                DATA
 0002:00036b24 00000004H ATL$__a                 DATA
 0002:00036b28 00000004H ATL$__z                 DATA
 0002:00036b2c 00000104H .idata$2                DATA
 0002:00036c30 00000014H .idata$3                DATA
 0002:00036c44 000006ccH .idata$4                DATA
 0002:00037310 00001ad4H .idata$6                DATA
 0002:00038de4 00000000H .edata                  DATA
 0003:00000000 0000e9ecH .data                   DATA
 0003:0000ea00 00007068H .bss                    DATA
 0004:00000000 00001378H .rsrc$01                DATA
 0004:00001380 0001af08H .rsrc$02                DATA

  Address         Publics by Value              Rva+Base       Lib:Object

 0000:00000000       __except_list              00000000     <absolute>
 0000:000001c1       ___safe_se_handler_count   000001c1     <absolute>
 0000:00000000       ___ImageBase               00400000     <linker-defined>
 0001:00000000       ?OnInitDialog@CAboutDlg@@QAEJIIJAAH@Z 00401000 f   AboutDlg.obj
 0001:00000080       ?OnCloseCmd@CAboutDlg@@QAEJGGPAUHWND__@@AAH@Z 00401080 f   AboutDlg.obj
 0001:000000a0       ?Attach@?$CAutoVectorPtr@_W@ATL@@QAEXPA_W@Z 004010a0 f i HydraIRC.obj
 0001:000000a0       ?Attach@CWindow@ATL@@QAEXPAUHWND__@@@Z 004010a0 f i AboutDlg.obj
 0001:000000a0       ?Attach@?$CAutoVectorPtr@D@ATL@@QAEXPAD@Z 004010a0 f i HydraIRC.obj
 0001:000000c0       ?Detach@CWindow@ATL@@QAEPAUHWND__@@XZ 004010c0 f i AboutDlg.obj
 0001:000000c0       ?Detach@?$CDCT@$00@WTL@@QAEPAUHDC__@@XZ 004010c0 f i ChildFrm.obj
 0001:000000c0       ?Detach@?$CDCT@$0A@@WTL@@QAEPAUHDC__@@XZ 004010c0 f i ChildFrm.obj
 0001:000000c0       ?Detach@?$CAutoVectorPtr@_W@ATL@@QAEPA_WXZ 004010c0 f i HydraIRC.obj
 0001:000000c0       ?release@?$auto_ptr@UIFrame@dockwins@@@std@@QAEPAUIFrame@dockwins@@XZ 004010c0 f i HydraIRC.obj
 0001:000000c0       ?Detach@?$CAutoVectorPtr@D@ATL@@QAEPADXZ 004010c0 f i HydraIRC.obj
 0001:000000f0       ?SetWindowTextA@CWindow@ATL@@QAEHPBD@Z 004010f0 f i AboutDlg.obj
 0001:00000110       ?GetParent@CWindow@ATL@@QBE?AV12@XZ 00401110 f i AboutDlg.obj
 0001:00000140       ?GetDlgItem@CWindow@ATL@@QBE?AV12@H@Z 00401140 f i AboutDlg.obj
 0001:00000170       ?CenterWindow@CWindow@ATL@@QAEHPAUHWND__@@@Z 00401170 f i AboutDlg.obj
 0001:000003e0       ?GetStyle@CWindow@ATL@@QBEKXZ 004013e0 f i AboutDlg.obj
 0001:00000400       ??_ECPinnedWindow@IPinnedLabel@dockwins@@QAEPAXI@Z 00401400 f i AboutDlg.obj
 0001:00000470       ??1CPinnedWindow@IPinnedLabel@dockwins@@QAE@XZ 00401470 f i AboutDlg.obj
 0001:000004a0       ?Validate@CAddNetworkDlg@@QAEHXZ 004014a0 f   AddNetworkDlg.obj
 0001:00000570       ?OnInitDialog@CAddNetworkDlg@@QAEJIIJAAH@Z 00401570 f   AddNetworkDlg.obj
 0001:000006f0       ?OnCloseCmd@CAddNetworkDlg@@QAEJGGPAUHWND__@@AAH@Z 004016f0 f   AddNetworkDlg.obj
 0001:00000710       ?OnOKCmd@CAddNetworkDlg@@QAEJGGPAUHWND__@@AAH@Z 00401710 f   AddNetworkDlg.obj
 0001:00000740       ?OnSomethingChanged@CAddNetworkDlg@@QAEJGGPAUHWND__@@AAH@Z 00401740 f   AddNetworkDlg.obj
 0001:00000760       ?GetCurSel@?$CComboBoxT@VCWindow@ATL@@@WTL@@QBEHXZ 00401760 f i AddNetworkDlg.obj
 0001:00000780       ?SetCurSel@?$CComboBoxT@VCWindow@ATL@@@WTL@@QAEHH@Z 00401780 f i AddNetworkDlg.obj
 0001:000007b0       ?GetItemData@?$CComboBoxT@VCWindow@ATL@@@WTL@@QBEKH@Z 004017b0 f i AddNetworkDlg.obj
 0001:000007e0       ?AddString@?$CComboBoxT@VCWindow@ATL@@@WTL@@QAEHPBD@Z 004017e0 f i AddNetworkDlg.obj
 0001:00000810       ?EnableWindow@CWindow@ATL@@QAEHH@Z 00401810 f i AddNetworkDlg.obj
 0001:00000830       ?DlgResize_Init@?$CDialogResize@VCAddNetworkDlg@@@WTL@@QAEX_N0K@Z 00401830 f i AddNetworkDlg.obj
 0001:00000ce0       ?GetDlgResizeMap@CAddNetworkDlg@@SAPBU_AtlDlgResizeMap@?$CDialogResize@VCAddNetworkDlg@@@WTL@@XZ 00401ce0 f i AddNetworkDlg.obj
 0001:00000cf0       ?Create@CWindow@ATL@@QAEPAUHWND__@@PBDPAU3@V_U_RECT@2@0KKV_U_MENUorID@2@PAX@Z 00401cf0 f i AddNetworkDlg.obj
 0001:00000d70       ?DestroyWindow@CWindow@ATL@@QAEHXZ 00401d70 f i AddNetworkDlg.obj
 0001:00000da0       ?GetWindowRect@CWindow@ATL@@QBEHPAUtagRECT@@@Z 00401da0 f i AddNetworkDlg.obj
 0001:00000dc0       ?GetClientRect@CWindow@ATL@@QBEHPAUtagRECT@@@Z 00401dc0 f i AddNetworkDlg.obj
 0001:00000de0       ?SetIcon@CWindow@ATL@@QAEPAUHICON__@@PAU3@H@Z 00401de0 f i AddNetworkDlg.obj
 0001:00000e10       ?GetIcon@CWindow@ATL@@QBEPAUHICON__@@H@Z 00401e10 f i AddNetworkDlg.obj
 0001:00000e40       ?IsWindow@CWindow@ATL@@QBEHXZ 00401e40 f i AddNetworkDlg.obj
 0001:00000e60       ?ModifyStyle@CWindow@ATL@@QAEHKKI@Z 00401e60 f i AddNetworkDlg.obj
 0001:00000ee0       ?ModifyStyleEx@CWindow@ATL@@QAEHKKI@Z 00401ee0 f i AddNetworkDlg.obj
 0001:00000f60       ?AtlThrowImpl@ATL@@YGXJ@Z  00401f60 f i AddNetworkDlg.obj
 0001:00000f90       ??A?$CSimpleArray@U_AtlDlgResizeData@?$CDialogResize@VCLoggingPage@@@WTL@@V?$CSimpleArrayEqualHelper@U_AtlDlgResizeData@?$CDialogResize@VCLoggingPage@@@WTL@@@ATL@@@ATL@@QAEAAU_AtlDlgResizeData@?$CDialogResize@VCLoggingPage@@@WTL@@H@Z 00401f90 f i MainFrm.obj
 0001:00000f90       ??A?$CSimpleArray@U_AtlDlgResizeData@?$CDialogResize@VCMessagesPage@@@WTL@@V?$CSimpleArrayEqualHelper@U_AtlDlgResizeData@?$CDialogResize@VCMessagesPage@@@WTL@@@ATL@@@ATL@@QAEAAU_AtlDlgResizeData@?$CDialogResize@VCMessagesPage@@@WTL@@H@Z 00401f90 f i MainFrm.obj
 0001:00000f90       ??A?$CSimpleArray@U_AtlDlgResizeData@?$CDialogResize@VCNotificationsPage@@@WTL@@V?$CSimpleArrayEqualHelper@U_AtlDlgResizeData@?$CDialogResize@VCNotificationsPage@@@WTL@@@ATL@@@ATL@@QAEAAU_AtlDlgResizeData@?$CDialogResize@VCNotificationsPage@@@WTL@@H@Z 00401f90 f i MainFrm.obj
 0001:00000f90       ??A?$CSimpleArray@U_AtlDlgResizeData@?$CDialogResize@VCPrefsDlg@@@WTL@@V?$CSimpleArrayEqualHelper@U_AtlDlgResizeData@?$CDialogResize@VCPrefsDlg@@@WTL@@@ATL@@@ATL@@QAEAAU_AtlDlgResizeData@?$CDialogResize@VCPrefsDlg@@@WTL@@H@Z 00401f90 f i MainFrm.obj
 0001:00000f90       ??A?$CSimpleArray@U_AtlDlgResizeData@?$CDialogResize@VCFavoritesDlg@@@WTL@@V?$CSimpleArrayEqualHelper@U_AtlDlgResizeData@?$CDialogResize@VCFavoritesDlg@@@WTL@@@ATL@@@ATL@@QAEAAU_AtlDlgResizeData@?$CDialogResize@VCFavoritesDlg@@@WTL@@H@Z 00401f90 f i FavoritesDlg.obj
 0001:00000f90       ??A?$CSimpleArray@U_AtlDlgResizeData@?$CDialogResize@VCEditNotificationDlg@@@WTL@@V?$CSimpleArrayEqualHelper@U_AtlDlgResizeData@?$CDialogResize@VCEditNotificationDlg@@@WTL@@@ATL@@@ATL@@QAEAAU_AtlDlgResizeData@?$CDialogResize@VCEditNotificationDlg@@@WTL@@H@Z 00401f90 f i EditNotificationDlg.obj
 0001:00000f90       ??A?$CSimpleArray@U_AtlDlgResizeData@?$CDialogResize@VCNotImplementedPage@@@WTL@@V?$CSimpleArrayEqualHelper@U_AtlDlgResizeData@?$CDialogResize@VCNotImplementedPage@@@WTL@@@ATL@@@ATL@@QAEAAU_AtlDlgResizeData@?$CDialogResize@VCNotImplementedPage@@@WTL@@H@Z 00401f90 f i MainFrm.obj
 0001:00000f90       ??A?$CSimpleArray@U_AtlDlgResizeData@?$CDialogResize@VCAddNetworkDlg@@@WTL@@V?$CSimpleArrayEqualHelper@U_AtlDlgResizeData@?$CDialogResize@VCAddNetworkDlg@@@WTL@@@ATL@@@ATL@@QAEAAU_AtlDlgResizeData@?$CDialogResize@VCAddNetworkDlg@@@WTL@@H@Z 00401f90 f i AddNetworkDlg.obj
 0001:00000f90       ??A?$CSimpleArray@U_AtlDlgResizeData@?$CDialogResize@VCChannelListDlg@@@WTL@@V?$CSimpleArrayEqualHelper@U_AtlDlgResizeData@?$CDialogResize@VCChannelListDlg@@@WTL@@@ATL@@@ATL@@QAEAAU_AtlDlgResizeData@?$CDialogResize@VCChannelListDlg@@@WTL@@H@Z 00401f90 f i ChannelListDlg.obj
 0001:00000f90       ??A?$CSimpleArray@U_AtlDlgResizeData@?$CDialogResize@VCEditBuddyGroupDlg@@@WTL@@V?$CSimpleArrayEqualHelper@U_AtlDlgResizeData@?$CDialogResize@VCEditBuddyGroupDlg@@@WTL@@@ATL@@@ATL@@QAEAAU_AtlDlgResizeData@?$CDialogResize@VCEditBuddyGroupDlg@@@WTL@@H@Z 00401f90 f i EditBuddyGroupDlg.obj
 0001:00000f90       ??A?$CSimpleArray@U_AtlDlgResizeData@?$CDialogResize@VCCommandProfilesPage@@@WTL@@V?$CSimpleArrayEqualHelper@U_AtlDlgResizeData@?$CDialogResize@VCCommandProfilesPage@@@WTL@@@ATL@@@ATL@@QAEAAU_AtlDlgResizeData@?$CDialogResize@VCCommandProfilesPage@@@WTL@@H@Z 00401f90 f i MainFrm.obj
 0001:00000f90       ??A?$CSimpleArray@U_AtlDlgResizeData@?$CDialogResize@VCConnectDlg@@@WTL@@V?$CSimpleArrayEqualHelper@U_AtlDlgResizeData@?$CDialogResize@VCConnectDlg@@@WTL@@@ATL@@@ATL@@QAEAAU_AtlDlgResizeData@?$CDialogResize@VCConnectDlg@@@WTL@@H@Z 00401f90 f i ConnectDlg.obj
 0001:00000f90       ??A?$CSimpleArray@U_AtlDlgResizeData@?$CDialogResize@VCMiscPage@@@WTL@@V?$CSimpleArrayEqualHelper@U_AtlDlgResizeData@?$CDialogResize@VCMiscPage@@@WTL@@@ATL@@@ATL@@QAEAAU_AtlDlgResizeData@?$CDialogResize@VCMiscPage@@@WTL@@H@Z 00401f90 f i MainFrm.obj
 0001:00000f90       ??A?$CSimpleArray@U_AtlDlgResizeData@?$CDialogResize@VCHighlightingPage@@@WTL@@V?$CSimpleArrayEqualHelper@U_AtlDlgResizeData@?$CDialogResize@VCHighlightingPage@@@WTL@@@ATL@@@ATL@@QAEAAU_AtlDlgResizeData@?$CDialogResize@VCHighlightingPage@@@WTL@@H@Z 00401f90 f i MainFrm.obj
 0001:00000f90       ??A?$CSimpleArray@U_AtlDlgResizeData@?$CDialogResize@VCChannelPropertiesDlg@@@WTL@@V?$CSimpleArrayEqualHelper@U_AtlDlgResizeData@?$CDialogResize@VCChannelPropertiesDlg@@@WTL@@@ATL@@@ATL@@QAEAAU_AtlDlgResizeData@?$CDialogResize@VCChannelPropertiesDlg@@@WTL@@H@Z 00401f90 f i ChannelPropertiesDlg.obj
 0001:00000f90       ??A?$CSimpleArray@U_AtlDlgResizeData@?$CDialogResize@VCEditServerDetailsDlg@@@WTL@@V?$CSimpleArrayEqualHelper@U_AtlDlgResizeData@?$CDialogResize@VCEditServerDetailsDlg@@@WTL@@@ATL@@@ATL@@QAEAAU_AtlDlgResizeData@?$CDialogResize@VCEditServerDetailsDlg@@@WTL@@H@Z 00401f90 f i ConnectDlg.obj
 0001:00000f90       ??A?$CSimpleArray@U_AtlDlgResizeData@?$CDialogResize@VCBuddyGroupsPage@@@WTL@@V?$CSimpleArrayEqualHelper@U_AtlDlgResizeData@?$CDialogResize@VCBuddyGroupsPage@@@WTL@@@ATL@@@ATL@@QAEAAU_AtlDlgResizeData@?$CDialogResize@VCBuddyGroupsPage@@@WTL@@H@Z 00401f90 f i MainFrm.obj
 0001:00000f90       ??A?$CSimpleArray@U_AtlDlgResizeData@?$CDialogResize@VCIdentitiesPage@@@WTL@@V?$CSimpleArrayEqualHelper@U_AtlDlgResizeData@?$CDialogResize@VCIdentitiesPage@@@WTL@@@ATL@@@ATL@@QAEAAU_AtlDlgResizeData@?$CDialogResize@VCIdentitiesPage@@@WTL@@H@Z 00401f90 f i MainFrm.obj
 0001:00000f90       ??A?$CSimpleArray@U_AtlDlgResizeData@?$CDialogResize@VCFavoritesAddDlg@@@WTL@@V?$CSimpleArrayEqualHelper@U_AtlDlgResizeData@?$CDialogResize@VCFavoritesAddDlg@@@WTL@@@ATL@@@ATL@@QAEAAU_AtlDlgResizeData@?$CDialogResize@VCFavoritesAddDlg@@@WTL@@H@Z 00401f90 f i FavoritesDlg.obj
 0001:00000f90       ??A?$CSimpleArray@U_AtlDlgResizeData@?$CDialogResize@VCSelectChildPage@@@WTL@@V?$CSimpleArrayEqualHelper@U_AtlDlgResizeData@?$CDialogResize@VCSelectChildPage@@@WTL@@@ATL@@@ATL@@QAEAAU_AtlDlgResizeData@?$CDialogResize@VCSelectChildPage@@@WTL@@H@Z 00401f90 f i MainFrm.obj
 0001:00000fd0       ?_AtlRaiseException@ATL@@YAXKK@Z 00401fd0 f i AddNetworkDlg.obj
 0001:00000ff0       ?Join@IRCChannel@@QAEXXZ   00401ff0 f   Channel.obj
 0001:00001070       ?InitialiseGUI@IRCChannel@@QAEXXZ 00402070 f   Channel.obj
 0001:00001180       ?Initialise@IRCChannel@@AAEXXZ 00402180 f   Channel.obj
 0001:00001260       ?OnJoin@IRCChannel@@QAEXXZ 00402260 f   Channel.obj
 0001:00001410       ??0IRCChannel@@QAE@PAVIRCServer@@PAD1@Z 00402410 f   Channel.obj
 0001:00001500       ??1IRCChannel@@QAE@XZ      00402500 f   Channel.obj
 0001:00001750       ?AddUser@IRCChannel@@QAEXPAVIRCUser@@@Z 00402750 f   Channel.obj
 0001:00001810       ?AddUser@IRCChannel@@QAEXPAD0@Z 00402810 f   Channel.obj
 0001:00001980       ?AddUsers@IRCChannel@@QAEXPAD@Z 00402980 f   Channel.obj
 0001:000019e0       ?RemoveUser@IRCChannel@@QAEXPAD@Z 004029e0 f   Channel.obj
 0001:00001a10       ?RemoveUser@IRCChannel@@QAEXPAVIRCUser@@@Z 00402a10 f   Channel.obj
 0001:00001ab0       ?OnDisconnect@IRCChannel@@QAEXXZ 00402ab0 f   Channel.obj
 0001:00001b50       ?ReJoin@IRCChannel@@QAEXXZ 00402b50 f   Channel.obj
 0001:00001ba0       ?OnKicked@IRCChannel@@QAEXPAD0@Z 00402ba0 f   Channel.obj
 0001:00001c40       ?OnBanned@IRCChannel@@QAEXXZ 00402c40 f   Channel.obj
 0001:00001c60       ?OnJoinError@IRCChannel@@QAEXH@Z 00402c60 f   Channel.obj
 0001:00001cd0       ?OnCycle@IRCChannel@@QAEXXZ 00402cd0 f   Channel.obj
 0001:00001d00       ?Cycle@IRCChannel@@QAEXXZ  00402d00 f   Channel.obj
 0001:00001d60       ?UpdateStatus@IRCChannel@@QAEXXZ 00402d60 f   Channel.obj
 0001:00001dd0       ?SetTopic@IRCChannel@@QAEXPAD@Z 00402dd0 f   Channel.obj
 0001:00001e00       ?BuildDescriptionString@IRCChannel@@AAEPADXZ 00402e00 f   Channel.obj
 0001:00001f30       ?GetDescriptionString@IRCChannel@@QAEPADXZ 00402f30 f   Channel.obj
 0001:00001f60       ?UpdateUser@IRCChannel@@QAEXPAVIRCUser@@@Z 00402f60 f   Channel.obj
 0001:00001fb0       ?ChangeUserNick@IRCChannel@@QAEXPAVIRCUser@@PAD@Z 00402fb0 f   Channel.obj
 0001:00001ff0       ?ChangeChannelMode@IRCChannel@@QAEXPAD0@Z 00402ff0 f   Channel.obj
 0001:00002170       ?ChangeUserMode@IRCChannel@@QAEXPAVIRCUser@@PAD@Z 00403170 f   Channel.obj
 0001:00002330       ?CompleteNick@IRCChannel@@QAEHPADPAPADHH@Z 00403330 f   Channel.obj
 0001:000025c0       ?DoPropertiesDlg@IRCChannel@@QAEXXZ 004035c0 f   Channel.obj
 0001:00002900       ?OnEvent@IRCChannel@@UAEXHPAX@Z 00403900 f   Channel.obj
 0001:00002950       ?UpdateLogger@IRCChannel@@AAEXXZ 00403950 f   Channel.obj
 0001:00002a50       ?OutputFormatter@IRCChannel@@QAEXHH@Z 00403a50 f   Channel.obj
 0001:000031b0       ?UpdateInfo@IRCChannel@@QAEXXZ 004041b0 f   Channel.obj
 0001:000035a0       ?SetSource@CUserListView@@QAEXPAVIRCChannel@@@Z 004045a0 f i Channel.obj
 0001:000035c0       ?SetDirtyFilterList@IRCCommon@@QAEXPAH@Z 004045c0 f i Channel.obj
 0001:000035e0       ??0IRCCommon@@QAE@XZ       004045e0 f i Channel.obj
 0001:000036d0       ??0IRCUserGroup@@QAE@XZ    004046d0 f i Channel.obj
 0001:00003710       ??1IRCUserGroup@@QAE@XZ    00404710 f i Channel.obj
 0001:00003780       ?DeleteAll@IRCUserGroup@@QAEXXZ 00404780 f i Channel.obj
 0001:000037e0       ??_GIRCUser@@QAEPAXI@Z     004047e0 f i Channel.obj
 0001:00003810       ??1IRCUser@@QAE@XZ         00404810 f i Channel.obj
 0001:00003850       ?GetThemeHandle@ThemeManager@@QAEPAVThemeHandle@@PAD@Z 00404850 f i Channel.obj
 0001:000038a0       ?Inc@ThemeHandle@@QAEXXZ   004048a0 f i Channel.obj
 0001:000038c0       ??1IRCCommon@@QAE@XZ       004048c0 f i Channel.obj
 0001:00003950       ?ReleaseThemeHandle@ThemeManager@@QAEXPAVThemeHandle@@@Z 00404950 f i Channel.obj
 0001:00003980       ?Dec@ThemeHandle@@QAEHXZ   00404980 f i Channel.obj
 0001:000039e0       ??_GThemeHandle@@QAEPAXI@Z 004049e0 f i Channel.obj
 0001:00003a10       ??1ThemeHandle@@QAE@XZ     00404a10 f i Channel.obj
 0001:00003a90       ??0CChannelProperties@@QAE@XZ 00404a90 f i Channel.obj
 0001:00003ab0       ?Initialise@CChannelProperties@@QAEXXZ 00404ab0 f i Channel.obj
 0001:00003b00       ?SetKey@CChannelProperties@@QAEXPAD@Z 00404b00 f i Channel.obj
 0001:00003b20       ?SetName@CChannelProperties@@QAEXPAD@Z 00404b20 f i Channel.obj
 0001:00003b40       ??_GCChannelProperties@@QAEPAXI@Z 00404b40 f i Channel.obj
 0001:00003b70       ??1CChannelProperties@@QAE@XZ 00404b70 f i Channel.obj
 0001:00003bd0       ?AddUser@IRCUserGroup@@QAEXPAVIRCUser@@@Z 00404bd0 f i Channel.obj
 0001:00003bf0       ?FindUser@IRCUserGroupList@@QAEHPBDH@Z 00404bf0 f i Channel.obj
 0001:00003ca0       ?NickCompare@IRCUser@@QAEHPBD@Z 00404ca0 f i Channel.obj
 0001:00003cd0       ??0IRCUser@@QAE@PAD0_J@Z   00404cd0 f i Channel.obj
 0001:00003d30       ?SetTypeFromModes@IRCUser@@QAEXXZ 00404d30 f i Channel.obj
 0001:00003e50       ?FindUser@IRCUserGroup@@QAEPAVIRCUser@@PAD@Z 00404e50 f i Channel.obj
 0001:00003ec0       ?RemoveUser@IRCUserGroup@@QAEXPAVIRCUser@@@Z 00404ec0 f i Channel.obj
 0001:00003ee0       ?SetTopic@CChannelProperties@@QAEXPAD@Z 00404ee0 f i Channel.obj
 0001:00003f00       ??0IRCUser@@QAE@PAV0@@Z    00404f00 f i Channel.obj
 0001:00003f20       ?Copy@IRCUser@@QAEXPAV1@@Z 00404f20 f i Channel.obj
 0001:00003f80       ??0CChannelProperties@@QAE@PAV0@@Z 00404f80 f i Channel.obj
 0001:00004000       ?FindUserGroup@IRCUserGroupList@@QAEPAVIRCUserGroup@@PBDH@Z 00405000 f i Channel.obj
 0001:000040d0       ?IsFiltered@CLogger@@QAEHH@Z 004050d0 f i Channel.obj
 0001:000040f0       ?IsEnabled@CLogger@@QAEHXZ 004050f0 f i Channel.obj
 0001:00004110       ?Append@?$CSimpleStringT@D$0A@@ATL@@QAEXPBD@Z 00405110 f i Channel.obj
 0001:00004140       ?IsWindowVisible@CWindow@ATL@@QBEHXZ 00405140 f i Channel.obj
 0001:00004160       ?memmove_s@Checked@ATL@@YAXPAXIPBXI@Z 00405160 f i Channel.obj
 0001:00004190       ?AtlCrtErrorCheck@ATL@@YAHH@Z 00405190 f i Channel.obj
 0001:00004240       ?CreateEx@?$CMDIChildWindowImpl@VCChildCommon@@VCMDIWindow@WTL@@V?$CWinTraits@$0FGMPAAAA@$0EA@@ATL@@@WTL@@QAEPAUHWND__@@PAU3@V_U_RECT@ATL@@PBDKKPAX@Z 00405240 f i Channel.obj
 0001:00004310       ?GetWndClassInfo@CChildCommon@@SAAAVCFrameWndClassInfo@WTL@@XZ 00405310 f i Channel.obj
 0001:00004320       ?Create@CChildCommon@@QAEPAUHWND__@@PAU2@V_U_RECT@ATL@@PBDKKIPAX@Z 00405320 f i Channel.obj
 0001:00004380       ?GetResourceInstance@ModuleHelper@WTL@@YAPAUHINSTANCE__@@XZ 00405380 f i Channel.obj
 0001:00004390       ?Icon@CPinnedWindow@IPinnedLabel@dockwins@@QBEPAUHICON__@@XZ 00405390 f i HydraIRC.obj
 0001:00004390       ?GetInfo@CPrefsPage@@QAEPADXZ 00405390 f i PrefsDlg.obj
 0001:00004390       ?GetName@CProperty@@UBEPBDXZ 00405390 f i Prefs_MiscPage.obj
 0001:00004390       ?rdstate@ios_base@std@@QBEHXZ 00405390 f i HydraIRC.obj
 0001:00004390       ?GetSize@?$CSimpleMap@KPAU_MsgHookData@CCommandBarCtrlBase@WTL@@V?$CSimpleMapEqualHelper@KPAU_MsgHookData@CCommandBarCtrlBase@WTL@@@ATL@@@ATL@@QBEHXZ 00405390 f i HydraIRC.obj
 0001:00004390       ?GetResourceInstance@CAtlBaseModule@ATL@@QAEPAUHINSTANCE__@@XZ 00405390 f i Channel.obj
 0001:00004390       ?hwnd@CWndFrame@dockwins@@QBEPAUHWND__@@XZ 00405390 f i HydraIRC.obj
 0001:00004390       ?GetLockCount@CAtlModule@ATL@@UAEJXZ 00405390 f i HydraIRC.obj
 0001:00004390       ?GetSize@?$CSimpleMap@PADPA_WVCExpansionVectorEqualHelper@ATL@@@ATL@@QBEHXZ 00405390 f i HydraIRC.obj
 0001:000043b0       ?Create@?$CTabbedMDIChildWindowImpl@VCChildCommon@@VCMDIWindow@WTL@@V?$CWinTraits@$0FGMPAAAA@$0EA@@ATL@@@@QAEPAUHWND__@@PAU2@V_U_RECT@ATL@@PBDKKIPAX@Z 004053b0 f i Channel.obj
 0001:000044c0       ?DoModal@?$CDialogImpl@VCChannelPropertiesDlg@@VCWindow@ATL@@@ATL@@QAEHPAUHWND__@@J@Z 004054c0 f i Channel.obj
 0001:00004540       ?AddCreateWndData@CAtlWinModule@ATL@@QAEXPAU_AtlCreateWndData@2@PAX@Z 00405540 f i Channel.obj
 0001:00004560       ?AtlWinModuleAddCreateWndData@ATL@@YGXPAU_ATL_WIN_MODULE70@1@PAU_AtlCreateWndData@1@PAX@Z 00405560 f i Channel.obj
 0001:000045f0       ?Init@CWndProcThunk@ATL@@QAEHP6GJPAUHWND__@@IIJ@ZPAX@Z 004055f0 f i Channel.obj
 0001:00004610       ?Init@CDynamicStdCallThunk@ATL@@QAEHKPAX@Z 00405610 f i Channel.obj
 0001:00004660       ?Init@_stdcallthunk@ATL@@QAEHKPAX@Z 00405660 f i Channel.obj
 0001:000046b0       ??2_stdcallthunk@ATL@@SAPAXI@Z 004056b0 f i Channel.obj
 0001:000046c0       ?MDIGetActive@CMDIWindow@WTL@@QAEPAUHWND__@@PAH@Z 004056c0 f i Channel.obj
 0001:000046f0       ?MDIDestroy@CMDIWindow@WTL@@QAEXPAUHWND__@@@Z 004056f0 f i Channel.obj
 0001:00004720       ?Create@?$CMDIChildWindowImpl@VCChildCommon@@VCMDIWindow@WTL@@V?$CWinTraits@$0FGMPAAAA@$0EA@@ATL@@@WTL@@QAEPAUHWND__@@PAU3@V_U_RECT@ATL@@PBDKKIPAX@Z 00405720 f i Channel.obj
 0001:000048a0       ?SendMessageA@CWindow@ATL@@QAEJIIJ@Z 004058a0 f i Channel.obj
 0001:000048d0       ?SetRedraw@CWindow@ATL@@QAEXH@Z 004058d0 f i Channel.obj
 0001:00004900       ?RedrawWindow@CWindow@ATL@@QAEHPBUtagRECT@@PAUHRGN__@@I@Z 00405900 f i Channel.obj
 0001:00004930       ?Register@CFrameWndClassInfo@WTL@@QAEGPAP6GJPAUHWND__@@IIJ@Z@Z 00405930 f i Channel.obj
 0001:00004c50       ?GetModuleInstance@ModuleHelper@WTL@@YAPAUHINSTANCE__@@XZ 00405c50 f i Channel.obj
 0001:00004c60       ?wsprintf_x@SecureHelper@WTL@@YAHPADIPBDZZ 00405c60 f i Channel.obj
 0001:00004ca0       ?wvsprintf_x@SecureHelper@WTL@@YAHPADIPBD0@Z 00405ca0 f i Channel.obj
 0001:00004cc0       ??0CWindowCreateCriticalSectionLock@WTL@@QAE@XZ 00405cc0 f i Channel.obj
 0001:00004ce0       ?Unlock@CStaticDataInitCriticalSectionLock@WTL@@QAEXXZ 00405ce0 f i ChildFrm.obj
 0001:00004ce0       ?Unlock@CWindowCreateCriticalSectionLock@WTL@@QAEXXZ 00405ce0 f i Channel.obj
 0001:00004d00       ??1CStaticDataInitCriticalSectionLock@WTL@@QAE@XZ 00405d00 f i ChildFrm.obj
 0001:00004d00       ??1CWindowCreateCriticalSectionLock@WTL@@QAE@XZ 00405d00 f i Channel.obj
 0001:00004d20       ?MDIMaximize@CMDIWindow@WTL@@QAEXPAUHWND__@@@Z 00405d20 f i Channel.obj
 0001:00004d50       ?GetMDIFrame@CMDIWindow@WTL@@QBEPAUHWND__@@XZ 00405d50 f i Channel.obj
 0001:00004d70       ?GetWndStyle@?$CWindowImplBaseT@VCMDIWindow@WTL@@V?$CWinTraits@$0FGMPAAAA@$0EA@@ATL@@@ATL@@SAKK@Z 00405d70 f i Channel.obj
 0001:00004d90       ?AddCreateWndData@ModuleHelper@WTL@@YAXPAU_AtlCreateWndData@ATL@@PAX@Z 00405d90 f i Channel.obj
 0001:00004db0       ?GetWndExStyle@?$CWindowImplBaseT@VCMDIWindow@WTL@@V?$CWinTraits@$0FGMPAAAA@$0EA@@ATL@@@ATL@@SAKK@Z 00405db0 f i Channel.obj
 0001:00004dd0       ?IsEqual@?$CSimpleArrayEqualHelper@PAVIRCServerDetails@@@ATL@@SA_NABQAVIRCServerDetails@@0@Z 00405dd0 f i ConnectDlg.obj
 0001:00004dd0       ?IsEqual@?$CSimpleArrayEqualHelper@H@ATL@@SA_NABH0@Z 00405dd0 f i Channel.obj
 0001:00004dd0       ?IsEqual@?$CSimpleArrayEqualHelper@K@ATL@@SA_NABK0@Z 00405dd0 f i HydraIRC.obj
 0001:00004dd0       ?IsEqual@?$CSimpleArrayEqualHelper@PAVIRCUser@@@ATL@@SA_NABQAVIRCUser@@0@Z 00405dd0 f i Channel.obj
 0001:00004dd0       ?IsEqual@?$CSimpleArrayEqualHelper@PAVIRCChannel@@@ATL@@SA_NABQAVIRCChannel@@0@Z 00405dd0 f i Channel.obj
 0001:00004dd0       ?IsEqual@?$CSimpleArrayEqualHelper@PAVIRCNetworkDetails@@@ATL@@SA_NABQAVIRCNetworkDetails@@0@Z 00405dd0 f i ConnectDlg.obj
 0001:00004dd0       ?IsEqual@?$CSimpleArrayEqualHelper@PAVCDCCTransfer@@@ATL@@SA_NABQAVCDCCTransfer@@0@Z 00405dd0 f i Transfers.obj
 0001:00004dd0       ?IsEqual@?$CSimpleArrayEqualHelper@PAVThemeHandle@@@ATL@@SA_NABQAVThemeHandle@@0@Z 00405dd0 f i Channel.obj
 0001:00004dd0       ?IsEqual@?$CSimpleArrayEqualHelper@PAVCCommandProfile@@@ATL@@SA_NABQAVCCommandProfile@@0@Z 00405dd0 f i Prefs_CommandProfilesPage.obj
 0001:00004dd0       ?IsEqual@?$CSimpleArrayEqualHelper@PAUNotificationEvent_s@@@ATL@@SA_NABQAUNotificationEvent_s@@0@Z 00405dd0 f i Notification.obj
 0001:00004dd0       ?IsEqual@?$CSimpleArrayEqualHelper@PAVWindowPrefs@@@ATL@@SA_NABQAVWindowPrefs@@0@Z 00405dd0 f i Prefs.obj
 0001:00004dd0       ?IsEqual@?$CSimpleArrayEqualHelper@PAUNotificationPrefInfo_s@@@ATL@@SA_NABQAUNotificationPrefInfo_s@@0@Z 00405dd0 f i Prefs_BuddyGroupsPage.obj
 0001:00004dd0       ?IsEqual@?$CSimpleArrayEqualHelper@PAVCChildCommon@@@ATL@@SA_NABQAVCChildCommon@@0@Z 00405dd0 f i ChildFrm.obj
 0001:00004dd0       ?IsEqual@?$CSimpleArrayEqualHelper@PAVEventLogItem@@@ATL@@SA_NABQAVEventLogItem@@0@Z 00405dd0 f i EventLog.obj
 0001:00004dd0       ?IsEqual@?$CSimpleArrayEqualHelper@PAVCTimerCommand@@@ATL@@SA_NABQAVCTimerCommand@@0@Z 00405dd0 f i ChildFrm.obj
 0001:00004dd0       ?IsEqual@?$CSimpleArrayEqualHelper@PAVTextQueueItem@@@ATL@@SA_NABQAVTextQueueItem@@0@Z 00405dd0 f i TextQueue.obj
 0001:00004dd0       ?eq_int_type@?$char_traits@D@std@@SA_NABH0@Z 00405dd0 f i HydraIRC.obj
 0001:00004dd0       ?IsEqual@?$CSimpleArrayEqualHelper@PAVTreeItemInfo@@@ATL@@SA_NABQAVTreeItemInfo@@0@Z 00405dd0 f i ConnectDlg.obj
 0001:00004dd0       ?IsEqual@?$CSimpleArrayEqualHelper@PAVUserIdentity@@@ATL@@SA_NABQAVUserIdentity@@0@Z 00405dd0 f i ConnectDlg.obj
 0001:00004dd0       ?IsEqual@?$CSimpleArrayEqualHelper@PAVIRCUserGroup@@@ATL@@SA_NABQAVIRCUserGroup@@0@Z 00405dd0 f i Prefs_BuddyGroupsPage.obj
 0001:00004dd0       ?IsEqual@?$CSimpleArrayEqualHelper@PAVIRCServer@@@ATL@@SA_NABQAVIRCServer@@0@Z 00405dd0 f i DCCTransfer.obj
 0001:00004dd0       ?IsEqual@?$CSimpleArrayEqualHelper@PAVIRCQuery@@@ATL@@SA_NABQAVIRCQuery@@0@Z 00405dd0 f i Query.obj
 0001:00004dd0       ?IsEqual@?$CSimpleArrayEqualHelper@PAVCListener@@@ATL@@SA_NABQAVCListener@@0@Z 00405dd0 f i EventManager.obj
 0001:00004df0       ?GetWndStyle@?$CWinTraits@$0FGMPAAAA@$0EA@@ATL@@SAKK@Z 00405df0 f i Channel.obj
 0001:00004e10       ??0CNode@@QAE@PAX@Z        00405e10 f i Channel.obj
 0001:00004e40       ?Delete@CNode@@QAEXXZ      00405e40 f i Channel.obj
 0001:00004e70       ?Remove@CNode@@QAEXXZ      00405e70 f i Channel.obj
 0001:00004eb0       ?InList@CNode@@QAEHXZ      00405eb0 f i Channel.obj
 0001:00004ef0       ??0CList@@QAE@XZ           00405ef0 f i Channel.obj
 0001:00004f50       ?InsertBefore@CList@@QAEXPAVCNode@@0@Z 00405f50 f i Channel.obj
 0001:00004f90       ?AddTail@CList@@QAEXPAVCNode@@@Z 00405f90 f i Channel.obj
 0001:00004fb0       ?AddHead@CList@@QAEXPAVCNode@@@Z 00405fb0 f i Channel.obj
 0001:00004fd0       ?InsertAfter@CList@@QAEXPAVCNode@@0@Z 00405fd0 f i Channel.obj
 0001:00005010       ?GetFirst@CList@@QAEPAVCNode@@XZ 00406010 f i Channel.obj
 0001:00005030       ?IsEmpty@CList@@QAEHXZ     00406030 f i Channel.obj
 0001:00005060       ?ObtainID@IDManager@@QAEHXZ 00406060 f i Channel.obj
 0001:000050c0       ?RelinquishID@IDManager@@QAEXH@Z 004060c0 f i Channel.obj
 0001:000050c0       ?Remove@IRCUserGroupList@@QAEXPAVIRCUserGroup@@@Z 004060c0 f i UserList.obj
 0001:000050e0       ??0?$CStringT@DV?$StrTraitATL@DV?$ChTraitsCRT@D@ATL@@@ATL@@@ATL@@QAE@XZ 004060e0 f i Channel.obj
 0001:00005100       ??0?$CStringT@DV?$StrTraitATL@DV?$ChTraitsCRT@D@ATL@@@ATL@@@ATL@@QAE@ABV01@@Z 00406100 f i Channel.obj
 0001:00005120       ??1?$CStringT@DV?$StrTraitATL@DV?$ChTraitsCRT@D@ATL@@@ATL@@@ATL@@QAE@XZ 00406120 f i Channel.obj
 0001:00005140       ?GetWndExStyle@?$CWinTraits@$0FGMPAAAA@$0EA@@ATL@@SAKK@Z 00406140 f i Channel.obj
 0001:00005160       ??0?$CSimpleStringT@D$0A@@ATL@@QAE@PAUIAtlStringMgr@1@@Z 00406160 f i Channel.obj
 0001:000051b0       ??0?$CSimpleStringT@D$0A@@ATL@@QAE@ABV01@@Z 004061b0 f i Channel.obj
 0001:000051f0       ??1?$CSimpleStringT@D$0A@@ATL@@QAE@XZ 004061f0 f i Channel.obj
 0001:00005210       ?Release@CStringData@ATL@@QAEXXZ 00406210 f i Channel.obj
 0001:00005250       ?Attach@?$CSimpleStringT@D$0A@@ATL@@AAEXPAUCStringData@2@@Z 00406250 f i Channel.obj
 0001:00005270       ?Orientation@CAutoHideBar@dockwins@@QBEABVCDockingSide@2@XZ 00406270 f i HydraIRC.obj
 0001:00005270       ?data@CStringData@ATL@@QAEPAXXZ 00406270 f i Channel.obj
 0001:00005290       ?GetData@?$CSimpleStringT@D$0A@@ATL@@ABEPAUCStringData@2@XZ 00406290 f i Channel.obj
 0001:000052b0       ?Format@?$CStringT@DV?$StrTraitATL@DV?$ChTraitsCRT@D@ATL@@@ATL@@@ATL@@QAAXPBDZZ 004062b0 f i Channel.obj
 0001:000052e0       ?AppendFormat@?$CStringT@DV?$StrTraitATL@DV?$ChTraitsCRT@D@ATL@@@ATL@@@ATL@@QAAXPBDZZ 004062e0 f i Channel.obj
 0001:00005310       ?StartWindowProc@?$CWindowImplBaseT@VCMDIWindow@WTL@@V?$CWinTraits@$0FGMPAAAA@$0EA@@ATL@@@ATL@@SGJPAUHWND__@@IIJ@Z 00406310 f i Channel.obj
 0001:00005310       ?StartWindowProc@?$CWindowImplBaseT@VCHidingMDIWindow@@U?$CDockingFrameTraitsT@U?$CDockingWindowTraits@UCVC7LikeCaption@dockwins@@$0EGMAAAAA@$0IA@@dockwins@@V?$CSimpleSplitterBar@$02@2@$0GMPAAAA@$0EABAA@@dockwins@@@ATL@@SGJPAUHWND__@@IIJ@Z 00406310 f i HydraIRC.obj
 0001:00005390       ?ExtractCreateWndData@CAtlWinModule@ATL@@QAEPAXXZ 00406390 f i Channel.obj
 0001:000053b0       ?AtlWinModuleExtractCreateWndData@ATL@@YGPAXPAU_ATL_WIN_MODULE70@1@@Z 004063b0 f i Channel.obj
 0001:00005480       ?SetWindowLongPtrA@@YAJPAUHWND__@@HJ@Z 00406480 f i Channel.obj
 0001:000054a0       ?GetWNDPROC@CWndProcThunk@ATL@@QAEP6GJPAUHWND__@@IIJ@ZXZ 004064a0 f i Channel.obj
 0001:000054c0       ?GetCodeAddress@CDynamicStdCallThunk@ATL@@QAEPAXXZ 004064c0 f i Channel.obj
 0001:000054e0       ?AppendFormatV@?$CStringT@DV?$StrTraitATL@DV?$ChTraitsCRT@D@ATL@@@ATL@@@ATL@@QAEXPBDPAD@Z 004064e0 f i Channel.obj
 0001:00005550       ?GetBuffer@?$CSimpleStringT@D$0A@@ATL@@QAEPADH@Z 00406550 f i Channel.obj
 0001:00005570       ?GetLength@?$CSimpleStringT@D$0A@@ATL@@QBEHXZ 00406570 f i Channel.obj
 0001:00005590       ?PrepareWrite@?$CSimpleStringT@D$0A@@ATL@@AAEPADH@Z 00406590 f i Channel.obj
 0001:000055e0       ?FormatV@?$CStringT@DV?$StrTraitATL@DV?$ChTraitsCRT@D@ATL@@@ATL@@@ATL@@QAEXPBDPAD@Z 004065e0 f i Channel.obj
 0001:00005650       ?GetFormattedLength@?$ChTraitsCRT@D@ATL@@SAHPBDPAD@Z 00406650 f i Channel.obj
 0001:00005670       ?Format@?$ChTraitsCRT@D@ATL@@SAHPADIPBD0@Z 00406670 f i Channel.obj
 0001:00005690       ?GetDefaultManager@?$StrTraitATL@DV?$ChTraitsCRT@D@ATL@@@ATL@@SAPAUIAtlStringMgr@2@XZ 00406690 f i Channel.obj
 0001:000056a0       ?PrepareWrite2@?$CSimpleStringT@D$0A@@ATL@@AAEXH@Z 004066a0 f i Channel.obj
 0001:00005740       ?IsShared@CStringData@ATL@@QBE_NXZ 00406740 f i Channel.obj
 0001:00005760       ?CloneData@?$CSimpleStringT@D$0A@@ATL@@CAPAUCStringData@2@PAU32@@Z 00406760 f i Channel.obj
 0001:00005810       ?AddRef@CStringData@ATL@@QAEXXZ 00406810 f i Channel.obj
 0001:00005830       ?IsLocked@CStringData@ATL@@QBE_NXZ 00406830 f i Channel.obj
 0001:00005850       ?Append@?$CSimpleStringT@D$0A@@ATL@@QAEXPBDH@Z 00406850 f i Channel.obj
 0001:00005950       ?ReleaseBufferSetLength@?$CSimpleStringT@D$0A@@ATL@@QAEXH@Z 00406950 f i Channel.obj
 0001:00005970       ?SetLength@?$CSimpleStringT@D$0A@@ATL@@AAEXH@Z 00406970 f i Channel.obj
 0001:000059c0       ?CopyChars@?$CSimpleStringT@D$0A@@ATL@@SAXPADIPBDH@Z 004069c0 f i Channel.obj
 0001:000059e0       ?StringLength@?$CSimpleStringT@D$0A@@ATL@@SAHPBD@Z 004069e0 f i Channel.obj
 0001:00005a00       ?ThrowMemoryException@?$CSimpleStringT@D$0A@@ATL@@KAXXZ 00406a00 f i Channel.obj
 0001:00005a10       ?Fork@?$CSimpleStringT@D$0A@@ATL@@AAEXH@Z 00406a10 f i Channel.obj
 0001:00005ad0       ?Reallocate@?$CSimpleStringT@D$0A@@ATL@@AAEXH@Z 00406ad0 f i Channel.obj
 0001:00005b40       ??0?$CComCritSecLock@VCComCriticalSection@ATL@@@ATL@@QAE@AAVCComCriticalSection@1@_N@Z 00406b40 f i Channel.obj
 0001:00005b90       ??1?$CComCritSecLock@VCComCriticalSection@ATL@@@ATL@@QAE@XZ 00406b90 f i Channel.obj
 0001:00005bb0       ?Lock@?$CComCritSecLock@VCComCriticalSection@ATL@@@ATL@@QAEJXZ 00406bb0 f i Channel.obj
 0001:00005be0       ?Lock@CComCriticalSection@ATL@@QAEJXZ 00406be0 f i Channel.obj
 0001:00005c00       ?Unlock@?$CComCritSecLock@VCComCriticalSection@ATL@@@ATL@@QAEXXZ 00406c00 f i Channel.obj
 0001:00005c30       ?Unlock@CComCriticalSection@ATL@@QAEJXZ 00406c30 f i Channel.obj
 0001:00005c50       ?StartDialogProc@?$CDialogImplBaseT@VCWindow@ATL@@@ATL@@SGHPAUHWND__@@IIJ@Z 00406c50 f i Channel.obj
 0001:00005cd0       ?LVSorter_ChannelProperties@@YGHJJJ@Z 00406cd0 f   ChannelListDlg.obj
 0001:00005da0       ??1CChannelListDlg@@UAE@XZ 00406da0 f   ChannelListDlg.obj
 0001:00005e20       ?DeleteChannelList@CChannelListDlg@@AAEXXZ 00406e20 f   ChannelListDlg.obj
 0001:00005e80       ?OnInitDialog@CChannelListDlg@@QAEJIIJAAH@Z 00406e80 f   ChannelListDlg.obj
 0001:00006130       ?OnCloseCmd@CChannelListDlg@@QAEJGGPAUHWND__@@AAH@Z 00407130 f   ChannelListDlg.obj
 0001:00006150       ?OnJoinCmd@CChannelListDlg@@QAEJGGPAUHWND__@@AAH@Z 00407150 f   ChannelListDlg.obj
 0001:00006200       ?OnSomethingChanged@CChannelListDlg@@QAEJGGPAUHWND__@@AAH@Z 00407200 f   ChannelListDlg.obj
 0001:00006210       ?OnBnClickedChannellistPopulate@CChannelListDlg@@QAEJGGPAUHWND__@@AAH@Z 00407210 f   ChannelListDlg.obj
 0001:00006250       ?AddChannel@CChannelListDlg@@QAEXPADH0@Z 00407250 f   ChannelListDlg.obj
 0001:000063e0       ?EnableControls@CChannelListDlg@@AAEXH@Z 004073e0 f   ChannelListDlg.obj
 0001:00006400       ?OnListStart@CChannelListDlg@@QAEXXZ 00407400 f   ChannelListDlg.obj
 0001:00006440       ?OnListEnd@CChannelListDlg@@QAEXXZ 00407440 f   ChannelListDlg.obj
 0001:000064c0       ?OnNMDblclkChannellistList@CChannelListDlg@@QAEJHPAUtagNMHDR@@AAH@Z 004074c0 f   ChannelListDlg.obj
 0001:000065a0       ?OnLvnColumnclickChannellistList@CChannelListDlg@@QAEJHPAUtagNMHDR@@AAH@Z 004075a0 f   ChannelListDlg.obj
 0001:00006650       ?ProcessWindowMessage@CChannelListDlg@@UAEHPAUHWND__@@IIJAAJK@Z 00407650 f i ChannelListDlg.obj
 0001:00006a00       ??_ECChannelListDlg@@UAEPAXI@Z 00407a00 f i ChannelListDlg.obj
 0001:00006a00       ??_GCChannelListDlg@@UAEPAXI@Z 00407a00 f i ChannelListDlg.obj
 0001:00006a30       ?IsLoggedIn@IRCServer@@QAEHXZ 00407a30 f i ChannelListDlg.obj
 0001:00006a70       ??0CChannelProperties@@QAE@PADH0@Z 00407a70 f i ChannelListDlg.obj
 0001:00006ac0       ?SetCheck@?$CButtonT@VCWindow@ATL@@@WTL@@QAEXH@Z 00407ac0 f i ChannelListDlg.obj
 0001:00006af0       ?SetColumnWidth@?$CListViewCtrlT@VCWindow@ATL@@@WTL@@QAEHHH@Z 00407af0 f i ChannelListDlg.obj
 0001:00006b20       ?InsertItem@?$CListViewCtrlT@VCWindow@ATL@@@WTL@@QAEHHPBD@Z 00407b20 f i ChannelListDlg.obj
 0001:00006b50       ?DeleteAllItems@?$CListViewCtrlT@VCWindow@ATL@@@WTL@@QAEHXZ 00407b50 f i ChannelListDlg.obj
 0001:00006b70       ?SortItems@?$CListViewCtrlT@VCWindow@ATL@@@WTL@@QAEHP6GHJJJ@ZJ@Z 00407b70 f i ChannelListDlg.obj
 0001:00006ba0       ?AddColumn@?$CListViewCtrlT@VCWindow@ATL@@@WTL@@QAEHPBDHHHH@Z 00407ba0 f i ChannelListDlg.obj
 0001:00006c30       ?AddItem@?$CListViewCtrlT@VCWindow@ATL@@@WTL@@QAEHHHPBDH@Z 00407c30 f i ChannelListDlg.obj
 0001:00006cd0       ?DlgResize_Init@?$CDialogResize@VCChannelListDlg@@@WTL@@QAEX_N0K@Z 00407cd0 f i ChannelListDlg.obj
 0001:00007180       ?GetDlgResizeMap@CChannelListDlg@@SAPBU_AtlDlgResizeMap@?$CDialogResize@VCChannelListDlg@@@WTL@@XZ 00408180 f i ChannelListDlg.obj
 0001:00007190       ?SetRange@?$CProgressBarCtrlT@VCWindow@ATL@@@WTL@@QAEKHH@Z 00408190 f i ChannelListDlg.obj
 0001:000071d0       ?SetPos@?$CProgressBarCtrlT@VCWindow@ATL@@@WTL@@QAEHH@Z 004081d0 f i ChannelListDlg.obj
 0001:00007200       ?SetItem@?$CListViewCtrlT@VCWindow@ATL@@@WTL@@QAEHPBUtagLVITEMA@@@Z 00408200 f i ChannelListDlg.obj
 0001:00007230       ?GetStringWidth@?$CListViewCtrlT@VCWindow@ATL@@@WTL@@QBEHPBD@Z 00408230 f i ChannelListDlg.obj
 0001:00007260       ?InsertColumn@?$CListViewCtrlT@VCWindow@ATL@@@WTL@@QAEHHPBUtagLVCOLUMNA@@@Z 00408260 f i ChannelListDlg.obj
 0001:00007290       ?InsertItem@?$CListViewCtrlT@VCWindow@ATL@@@WTL@@QAEHIHPBDIIHJ@Z 00408290 f i ChannelListDlg.obj
 0001:00007300       ?InsertItem@?$CListViewCtrlT@VCWindow@ATL@@@WTL@@QAEHPBUtagLVITEMA@@@Z 00408300 f i ChannelListDlg.obj
 0001:00007330       ?ShowWindow@CWindow@ATL@@QAEHH@Z 00408330 f i ChannelListDlg.obj
 0001:00007350       ?SetWindowPos@CWindow@ATL@@QAEHPAUHWND__@@PBUtagRECT@@I@Z 00408350 f i ChannelListDlg.obj
 0001:000073a0       ?Invalidate@CWindow@ATL@@QAEHH@Z 004083a0 f i ChannelListDlg.obj
 0001:000073c0       ?GetDialogProc@?$CDialogImplBaseT@VCWindow@ATL@@@ATL@@UAEP6GHPAUHWND__@@IIJ@ZXZ 004083c0 f i ChannelListDlg.obj
 0001:000073d0       ??1CWndProcThunk@ATL@@QAE@XZ 004083d0 f i ChannelListDlg.obj
 0001:000073f0       ??1CDynamicStdCallThunk@ATL@@QAE@XZ 004083f0 f i ChannelListDlg.obj
 0001:00007420       ??3_stdcallthunk@ATL@@SAXPAX@Z 00408420 f i ChannelListDlg.obj
 0001:00007430       ?GetItemCount@?$CListViewCtrlT@VCWindow@ATL@@@WTL@@QBEHXZ 00408430 f i ChannelListDlg.obj
 0001:00007450       ?GetItemData@?$CListViewCtrlT@VCWindow@ATL@@@WTL@@QBEKH@Z 00408450 f i ChannelListDlg.obj
 0001:000074c0       ?SetItemData@?$CListViewCtrlT@VCWindow@ATL@@@WTL@@QAEHHK@Z 004084c0 f i ChannelListDlg.obj
 0001:000074f0       ?SetItem@?$CListViewCtrlT@VCWindow@ATL@@@WTL@@QAEHHHIPBDHIIJ@Z 004084f0 f i ChannelListDlg.obj
 0001:00007570       ?GetItemState@?$CListViewCtrlT@VCWindow@ATL@@@WTL@@QBEIHI@Z 00408570 f i ChannelListDlg.obj
 0001:000075a0       ?DialogProc@?$CDialogImplBaseT@VCWindow@ATL@@@ATL@@SGHPAUHWND__@@IIJ@Z 004085a0 f i ChannelListDlg.obj
 0001:000076f0       ??0_ATL_MSG@ATL@@QAE@PAUHWND__@@IIJH@Z 004086f0 f i ChannelListDlg.obj
 0001:00007760       ?OnDocked@CChannelMonitorView@@QAEXPAUHWND__@@_N@Z 00408760 f   ChannelMonitor.obj
 0001:00007790       ?OnUndocked@CChannelMonitorView@@QAEXPAUHWND__@@@Z 00408790 f   ChannelMonitor.obj
 0001:000077b0       ?OnSize@CChannelMonitorView@@QAEJIIJAAH@Z 004087b0 f   ChannelMonitor.obj
 0001:00007840       ?OnCreate@CChannelMonitorView@@QAEJIIJAAH@Z 00408840 f   ChannelMonitor.obj
 0001:00007910       ?UpdateSettings@CChannelMonitorView@@QAEXXZ 00408910 f   ChannelMonitor.obj
 0001:000079e0       ?IsMonitoring@CChannelMonitorView@@QAEHPAVIRCChannel@@@Z 004089e0 f   ChannelMonitor.obj
 0001:00007a10       ?AddChannel@CChannelMonitorView@@QAEXPAVIRCChannel@@@Z 00408a10 f   ChannelMonitor.obj
 0001:00007a60       ?RemoveChannel@CChannelMonitorView@@QAEXPAVIRCChannel@@@Z 00408a60 f   ChannelMonitor.obj
 0001:00007aa0       ?Message@CChannelMonitorView@@AAEXPAVIRCChannel@@PAD@Z 00408aa0 f   ChannelMonitor.obj
 0001:00007b20       ?Put@CChannelMonitorView@@QAEXPAVIRCChannel@@PAVBufferItem@@@Z 00408b20 f   ChannelMonitor.obj
 0001:00007bd0       ?OnBnClickedStopAllMonitoring@CChannelMonitorView@@QAEJGGPAUHWND__@@AAH@Z 00408bd0 f   ChannelMonitor.obj
 0001:00007c10       ?OnEvent@CChannelMonitorView@@UAEXHPAX@Z 00408c10 f   ChannelMonitor.obj
 0001:00007c60       ?SetControlCodeMode@CMsgView@@QAEXH@Z 00408c60 f i ChannelMonitor.obj
 0001:00007c80       ?GetResourceInstance@CComModule@ATL@@QAEPAUHINSTANCE__@@XZ 00408c80 f i ChannelMonitor.obj
 0001:00007c90       ?SetTimeStamps@CMsgView@@QAEXH@Z 00408c90 f i ChannelMonitor.obj
 0001:00007cb0       ?SetMaxBufferLines@CMsgView@@QAEXH@Z 00408cb0 f i ChannelMonitor.obj
 0001:00007cd0       ??0BufferItem@@QAE@HPAD@Z  00408cd0 f i ChannelMonitor.obj
 0001:00007d00       ??1BufferItem@@QAE@XZ      00408d00 f i ChannelMonitor.obj
 0001:00007d30       ?GetWindowLongA@CWindow@ATL@@QBEJH@Z 00408d30 f i ChannelMonitor.obj
 0001:00007d50       ?SetWindowLongA@CWindow@ATL@@QAEJHJ@Z 00408d50 f i ChannelMonitor.obj
 0001:00007d80       ?PostMessageA@CWindow@ATL@@QAEHIIJ@Z 00408d80 f i ChannelMonitor.obj
 0001:00007db0       ?Create@?$CWindowImpl@VCMsgView@@V?$CRichEditCtrlT@VCWindow@ATL@@@WTL@@V?$CWinTraits@$0FGAAAAAA@$0A@@ATL@@@ATL@@QAEPAUHWND__@@PAU3@V_U_RECT@2@PBDKKV_U_MENUorID@2@PAX@Z 00408db0 f i ChannelMonitor.obj
 0001:00007e50       ?GetWndClassInfo@CMsgView@@SAAAU_ATL_WNDCLASSINFOA@ATL@@XZ 00408e50 f i ChannelMonitor.obj
 0001:00007f30       ?Register@_ATL_WNDCLASSINFOA@ATL@@QAEGPAP6GJPAUHWND__@@IIJ@Z@Z 00408f30 f i ChannelMonitor.obj
 0001:00007f60       ?GetWndClassName@?$CRichEditCtrlT@VCWindow@ATL@@@WTL@@SAPBDXZ 00408f60 f i ChannelMonitor.obj
 0001:00007f70       ?AtlWinModuleRegisterWndClassInfoA@ATL@@YGGPAU_ATL_WIN_MODULE70@1@PAU_ATL_BASE_MODULE70@1@PAU_ATL_WNDCLASSINFOA@1@PAP6GJPAUHWND__@@IIJ@Z@Z 00408f70 f i ChannelMonitor.obj
 0001:00007fa0       ?OnUndocked@?$CDockingWindowBaseImpl@VCChannelMonitorView@@VCWindow@ATL@@U?$CBoxedDockingWindowTraits@VCVC7LikeExCaption@dockwins@@V?$CTabDockingBox@U?$CDockingBoxTraits@VCVC7LikeExCaption@dockwins@@$0IGMPAAAA@$0IA@@dockwins@@@2@$0JGMPAAAA@$0IA@@dockwins@@@dockwins@@QAEXPAUHWND__@@@Z 00408fa0 f i ChannelMonitor.obj
 0001:00007fa0       ?OnUndocked@?$CDockingWindowBaseImpl@VCEventLogView@@VCWindow@ATL@@U?$CBoxedDockingWindowTraits@VCVC7LikeExCaption@dockwins@@V?$CTabDockingBox@U?$CDockingBoxTraits@VCVC7LikeExCaption@dockwins@@$0IGMPAAAA@$0IA@@dockwins@@@2@$0JGMPAAAA@$0IA@@dockwins@@@dockwins@@QAEXPAUHWND__@@@Z 00408fa0 f i EventLogFrm.obj
 0001:00007fa0       ?OnUndocked@?$CDockingWindowBaseImpl@VCUserListView@@VCWindow@ATL@@U?$CBoxedDockingWindowTraits@UCVC7LikeCaption@dockwins@@V?$CTabDockingBox@U?$CDockingBoxTraits@UCVC7LikeCaption@dockwins@@$0IGMPAAAA@$0IA@@dockwins@@@2@$0JGMPAAAA@$0IA@@dockwins@@@dockwins@@QAEXPAUHWND__@@@Z 00408fa0 f i ChildFrm.obj
 0001:00007fa0       ?OnUndocked@?$CDockingWindowBaseImpl@VCServerMonitorView@@VCWindow@ATL@@U?$CBoxedDockingWindowTraits@VCVC7LikeExCaption@dockwins@@V?$CTabDockingBox@U?$CDockingBoxTraits@VCVC7LikeExCaption@dockwins@@$0IGMPAAAA@$0IA@@dockwins@@@2@$0JGMPAAAA@$0IA@@dockwins@@@dockwins@@QAEXPAUHWND__@@@Z 00408fa0 f i ServerMonitor.obj
 0001:00007fa0       ?OnUndocked@?$CDockingWindowBaseImpl@V?$CTabDockingBox@U?$CDockingBoxTraits@VCVC7LikeExCaption@dockwins@@$0IGMPAAAA@$0IA@@dockwins@@@dockwins@@VCWindow@ATL@@U?$CDockingBoxTraits@VCVC7LikeExCaption@dockwins@@$0IGMPAAAA@$0IA@@2@@dockwins@@QAEXPAUHWND__@@@Z 00408fa0 f i EventLogFrm.obj
 0001:00007fa0       ?OnUndocked@?$CDockingWindowBaseImpl@VCServerListView@@VCWindow@ATL@@U?$CBoxedDockingWindowTraits@UCVC7LikeCaption@dockwins@@V?$CTabDockingBox@U?$CDockingBoxTraits@UCVC7LikeCaption@dockwins@@$0IGMPAAAA@$0IA@@dockwins@@@2@$0JGMPAAAA@$0IA@@dockwins@@@dockwins@@QAEXPAUHWND__@@@Z 00408fa0 f i ServerList.obj
 0001:00007fa0       ?OnUndocked@?$CDockingWindowBaseImpl@VCTransfersView@@VCWindow@ATL@@U?$CBoxedDockingWindowTraits@VCVC7LikeExCaption@dockwins@@V?$CTabDockingBox@U?$CDockingBoxTraits@VCVC7LikeExCaption@dockwins@@$0IGMPAAAA@$0IA@@dockwins@@@2@$0JGMPAAAA@$0IA@@dockwins@@@dockwins@@QAEXPAUHWND__@@@Z 00408fa0 f i Transfers.obj
 0001:00007fa0       ?OnUndocked@?$CDockingWindowBaseImpl@VCTextQueueView@@VCWindow@ATL@@U?$CBoxedDockingWindowTraits@VCVC7LikeExCaption@dockwins@@V?$CTabDockingBox@U?$CDockingBoxTraits@VCVC7LikeExCaption@dockwins@@$0IGMPAAAA@$0IA@@dockwins@@@2@$0JGMPAAAA@$0IA@@dockwins@@@dockwins@@QAEXPAUHWND__@@@Z 00408fa0 f i TextQueueFrm.obj
 0001:00007fa0       ?OnUndocked@?$CDockingWindowBaseImpl@VCOutputView@@VCWindow@ATL@@U?$CBoxedDockingWindowTraits@VCVC7LikeExCaption@dockwins@@V?$CTabDockingBox@U?$CDockingBoxTraits@VCVC7LikeExCaption@dockwins@@$0IGMPAAAA@$0IA@@dockwins@@@2@$0JGMPAAAA@$0IA@@dockwins@@@dockwins@@QAEXPAUHWND__@@@Z 00408fa0 f i Output.obj
 0001:00007fa0       ?OnUndocked@?$CDockingWindowBaseImpl@V?$CTabDockingBox@U?$CDockingBoxTraits@UCVC7LikeCaption@dockwins@@$0IGMPAAAA@$0IA@@dockwins@@@dockwins@@VCWindow@ATL@@U?$CDockingBoxTraits@UCVC7LikeCaption@dockwins@@$0IGMPAAAA@$0IA@@2@@dockwins@@QAEXPAUHWND__@@@Z 00408fa0 f i ChildFrm.obj
 0001:00007fc0       ?SetOrientation@CVC7LikeExCaption@dockwins@@QAEX_N@Z 00408fc0 f i ChannelMonitor.obj
 0001:00008000       ?SetOrientation@?$CSimpleSplitterBar@$04@dockwins@@QAEX_N@Z 00409000 f i HydraIRC.obj
 0001:00008000       ?SetOrientation@COrientedRect@dockwins@@QAEX_N@Z 00409000 f i ChannelMonitor.obj
 0001:00008020       ?UpdateMetrics@CVC7LikeExCaption@dockwins@@QAEXXZ 00409020 f i ChannelMonitor.obj
 0001:00008040       ?CYSmCaption@CDWSettings@dockwins@@QBEHXZ 00409040 f i ChannelMonitor.obj
 0001:00008060       ?CYSmCaption@CSettings@CDWSettings@dockwins@@QBEHXZ 00409060 f i ChannelMonitor.obj
 0001:00008080       ?GetWndStyle@?$CWinTraits@$0FGAAAAAA@$0A@@ATL@@SAKK@Z 00409080 f i ChannelMonitor.obj
 0001:000080a0       ?GetWndExStyle@?$CWinTraits@$0FGAAAAAA@$0A@@ATL@@SAKK@Z 004090a0 f i ChannelMonitor.obj
 0001:000080a0       ?GetWndExStyle@?$CWinTraits@$0FGAAEAAA@$0A@@ATL@@SAKK@Z 004090a0 f i ChildFrm.obj
 0001:000080b0       ??$AtlModuleRegisterWndClassInfoT@VAtlModuleRegisterWndClassInfoParamA@ATL@@@ATL@@YAGPAU_ATL_BASE_MODULE70@0@PAU_ATL_WIN_MODULE70@0@PAU_ATL_WNDCLASSINFOA@0@PAP6GJPAUHWND__@@IIJ@ZVAtlModuleRegisterWndClassInfoParamA@0@@Z 004090b0 f i ChannelMonitor.obj
 0001:00008310       ?GetClassInfoExA@AtlModuleRegisterWndClassInfoParamA@ATL@@SAHPAUHINSTANCE__@@PBDPAUtagWNDCLASSEXA@@@Z 00409310 f i ChannelMonitor.obj
 0001:00008330       ?FormatWindowClassName@AtlModuleRegisterWndClassInfoParamA@ATL@@SAXPADKPAX@Z 00409330 f i ChannelMonitor.obj
 0001:00008350       ?LoadCursorA@AtlModuleRegisterWndClassInfoParamA@ATL@@SAPAUHICON__@@PAUHINSTANCE__@@PBD@Z 00409350 f i ChannelMonitor.obj
 0001:00008370       ?RegisterClassExA@AtlModuleRegisterWndClassInfoParamA@ATL@@SAGPAU_ATL_WIN_MODULE70@2@PBUtagWNDCLASSEXA@@@Z 00409370 f i ChannelMonitor.obj
 0001:00008390       ?AtlWinModuleRegisterClassExA@ATL@@YGGPAU_ATL_WIN_MODULE70@1@PBUtagWNDCLASSEXA@@@Z 00409390 f i ChannelMonitor.obj
 0001:000083d0       ?Add@?$CSimpleArray@GV?$CSimpleArrayEqualHelper@G@ATL@@@ATL@@QAEHABG@Z 004093d0 f i ChannelMonitor.obj
 0001:000084d0       ?InternalSetAtIndex@?$CSimpleArray@GV?$CSimpleArrayEqualHelper@G@ATL@@@ATL@@QAEXHABG@Z 004094d0 f i ChannelMonitor.obj
 0001:00008560       ??0Wrapper@?$CSimpleArray@GV?$CSimpleArrayEqualHelper@G@ATL@@@ATL@@QAE@ABG@Z 00409560 f i ChannelMonitor.obj
 0001:00008580       ?OnInitDialog@CChannelPropertiesDlg@@QAEJIIJAAH@Z 00409580 f   ChannelPropertiesDlg.obj
 0001:00008800       ?OnCloseCmd@CChannelPropertiesDlg@@QAEJGGPAUHWND__@@AAH@Z 00409800 f   ChannelPropertiesDlg.obj
 0001:00008820       ?OnOK@CChannelPropertiesDlg@@QAEXXZ 00409820 f   ChannelPropertiesDlg.obj
 0001:00008a20       ?OnOKCmd@CChannelPropertiesDlg@@QAEJGGPAUHWND__@@AAH@Z 00409a20 f   ChannelPropertiesDlg.obj
 0001:00008a40       ??0CChannelPropertiesDlg@@QAE@PAVIRCChannel@@PAVCChannelProperties@@@Z 00409a40 f   ChannelPropertiesDlg.obj
 0001:00008b10       ??1CChannelPropertiesDlg@@UAE@XZ 00409b10 f   ChannelPropertiesDlg.obj
 0001:00008b70       ?ProcessWindowMessage@CChannelPropertiesDlg@@UAEHPAUHWND__@@IIJAAJK@Z 00409b70 f i ChannelPropertiesDlg.obj
 0001:00008cc0       ??_ECChannelPropertiesDlg@@UAEPAXI@Z 00409cc0 f i ChannelPropertiesDlg.obj
 0001:00008cc0       ??_GCChannelPropertiesDlg@@UAEPAXI@Z 00409cc0 f i ChannelPropertiesDlg.obj
 0001:00008cf0       ?SetLimitText@?$CEditT@VCWindow@ATL@@@WTL@@QAEXI@Z 00409cf0 f i ChannelPropertiesDlg.obj
 0001:00008d20       ?AppendText@?$CEditT@VCWindow@ATL@@@WTL@@QAEXPBDHH@Z 00409d20 f i ChannelPropertiesDlg.obj
 0001:00008d50       ?Clear@?$CEditT@VCWindow@ATL@@@WTL@@QAEXXZ 00409d50 f i ChannelPropertiesDlg.obj
 0001:00008d50       ?Clear@?$CRichEditCtrlT@VCWindow@ATL@@@WTL@@QAEXXZ 00409d50 f i ChildFrm.obj
 0001:00008d70       ?GetCheck@?$CButtonT@VCWindow@ATL@@@WTL@@QBEHXZ 00409d70 f i ChannelPropertiesDlg.obj
 0001:00008d90       ?GetWindowTextA@CWindow@ATL@@QBEHPADH@Z 00409d90 f i ChannelPropertiesDlg.obj
 0001:00008dc0       ?GetWindowTextLengthA@CWindow@ATL@@QBEHXZ 00409dc0 f i ChannelPropertiesDlg.obj
 0001:00008de0       ?DlgResize_Init@?$CDialogResize@VCChannelPropertiesDlg@@@WTL@@QAEX_N0K@Z 00409de0 f i ChannelPropertiesDlg.obj
 0001:00009290       ?GetDlgResizeMap@CChannelPropertiesDlg@@SAPBU_AtlDlgResizeMap@?$CDialogResize@VCChannelPropertiesDlg@@@WTL@@XZ 0040a290 f i ChannelPropertiesDlg.obj
 0001:000092a0       ?InsertText@?$CEditT@VCWindow@ATL@@@WTL@@QAEXHPBDHH@Z 0040a2a0 f i ChannelPropertiesDlg.obj
 0001:000092e0       ?OnGetMinMaxInfo@?$CDialogResize@VCChannelListDlg@@@WTL@@QAEJIIJAAH@Z 0040a2e0 f i ChannelListDlg.obj
 0001:000092e0       ?OnGetMinMaxInfo@?$CDialogResize@VCHighlightingPage@@@WTL@@QAEJIIJAAH@Z 0040a2e0 f i MainFrm.obj
 0001:000092e0       ?OnGetMinMaxInfo@?$CDialogResize@VCNotImplementedPage@@@WTL@@QAEJIIJAAH@Z 0040a2e0 f i MainFrm.obj
 0001:000092e0       ?OnGetMinMaxInfo@?$CDialogResize@VCConnectDlg@@@WTL@@QAEJIIJAAH@Z 0040a2e0 f i ConnectDlg.obj
 0001:000092e0       ?OnGetMinMaxInfo@?$CDialogResize@VCNotificationsPage@@@WTL@@QAEJIIJAAH@Z 0040a2e0 f i MainFrm.obj
 0001:000092e0       ?OnGetMinMaxInfo@?$CDialogResize@VCSelectChildPage@@@WTL@@QAEJIIJAAH@Z 0040a2e0 f i MainFrm.obj
 0001:000092e0       ?OnGetMinMaxInfo@?$CDialogResize@VCEditServerDetailsDlg@@@WTL@@QAEJIIJAAH@Z 0040a2e0 f i ConnectDlg.obj
 0001:000092e0       ?OnGetMinMaxInfo@?$CDialogResize@VCLoggingPage@@@WTL@@QAEJIIJAAH@Z 0040a2e0 f i MainFrm.obj
 0001:000092e0       ?OnGetMinMaxInfo@?$CDialogResize@VCEditBuddyGroupDlg@@@WTL@@QAEJIIJAAH@Z 0040a2e0 f i Prefs_BuddyGroupsPage.obj
 0001:000092e0       ?OnGetMinMaxInfo@?$CDialogResize@VCFavoritesAddDlg@@@WTL@@QAEJIIJAAH@Z 0040a2e0 f i FavoritesDlg.obj
 0001:000092e0       ?OnGetMinMaxInfo@?$CDialogResize@VCAddNetworkDlg@@@WTL@@QAEJIIJAAH@Z 0040a2e0 f i ConnectDlg.obj
 0001:000092e0       ?OnGetMinMaxInfo@?$CDialogResize@VCBuddyGroupsPage@@@WTL@@QAEJIIJAAH@Z 0040a2e0 f i MainFrm.obj
 0001:000092e0       ?OnGetMinMaxInfo@?$CDialogResize@VCChannelPropertiesDlg@@@WTL@@QAEJIIJAAH@Z 0040a2e0 f i ChannelPropertiesDlg.obj
 0001:000092e0       ?OnGetMinMaxInfo@?$CDialogResize@VCPrefsDlg@@@WTL@@QAEJIIJAAH@Z 0040a2e0 f i MainFrm.obj
 0001:000092e0       ?OnGetMinMaxInfo@?$CDialogResize@VCMiscPage@@@WTL@@QAEJIIJAAH@Z 0040a2e0 f i MainFrm.obj
 0001:000092e0       ?OnGetMinMaxInfo@?$CDialogResize@VCIdentitiesPage@@@WTL@@QAEJIIJAAH@Z 0040a2e0 f i MainFrm.obj
 0001:000092e0       ?OnGetMinMaxInfo@?$CDialogResize@VCEditNotificationDlg@@@WTL@@QAEJIIJAAH@Z 0040a2e0 f i Prefs_NotificationsPage.obj
 0001:000092e0       ?OnGetMinMaxInfo@?$CDialogResize@VCMessagesPage@@@WTL@@QAEJIIJAAH@Z 0040a2e0 f i MainFrm.obj
 0001:000092e0       ?OnGetMinMaxInfo@?$CDialogResize@VCCommandProfilesPage@@@WTL@@QAEJIIJAAH@Z 0040a2e0 f i MainFrm.obj
 0001:000092e0       ?OnGetMinMaxInfo@?$CDialogResize@VCFavoritesDlg@@@WTL@@QAEJIIJAAH@Z 0040a2e0 f i FavoritesDlg.obj
 0001:00009320       ?SetSel@?$CEditT@VCWindow@ATL@@@WTL@@QAEXHHH@Z 0040a320 f i ChannelPropertiesDlg.obj
 0001:00009370       ?GetGroupCount@_AtlDlgResizeData@?$CDialogResize@VCSelectChildPage@@@WTL@@QBEHXZ 0040a370 f i MainFrm.obj
 0001:00009370       ?GetGroupCount@_AtlDlgResizeData@?$CDialogResize@VCCommandProfilesPage@@@WTL@@QBEHXZ 0040a370 f i MainFrm.obj
 0001:00009370       ?GetGroupCount@_AtlDlgResizeData@?$CDialogResize@VCMiscPage@@@WTL@@QBEHXZ 0040a370 f i MainFrm.obj
 0001:00009370       ?GetGroupCount@_AtlDlgResizeData@?$CDialogResize@VCEditBuddyGroupDlg@@@WTL@@QBEHXZ 0040a370 f i Prefs_BuddyGroupsPage.obj
 0001:00009370       ?GetGroupCount@_AtlDlgResizeData@?$CDialogResize@VCEditServerDetailsDlg@@@WTL@@QBEHXZ 0040a370 f i ConnectDlg.obj
 0001:00009370       ?GetGroupCount@_AtlDlgResizeData@?$CDialogResize@VCFavoritesAddDlg@@@WTL@@QBEHXZ 0040a370 f i FavoritesDlg.obj
 0001:00009370       ?GetGroupCount@_AtlDlgResizeData@?$CDialogResize@VCChannelListDlg@@@WTL@@QBEHXZ 0040a370 f i ChannelListDlg.obj
 0001:00009370       ?GetGroupCount@_AtlDlgResizeData@?$CDialogResize@VCPrefsDlg@@@WTL@@QBEHXZ 0040a370 f i MainFrm.obj
 0001:00009370       ?GetGroupCount@_AtlDlgResizeData@?$CDialogResize@VCIdentitiesPage@@@WTL@@QBEHXZ 0040a370 f i MainFrm.obj
 0001:00009370       ?GetGroupCount@_AtlDlgResizeData@?$CDialogResize@VCConnectDlg@@@WTL@@QBEHXZ 0040a370 f i ConnectDlg.obj
 0001:00009370       ?GetGroupCount@_AtlDlgResizeData@?$CDialogResize@VCMessagesPage@@@WTL@@QBEHXZ 0040a370 f i MainFrm.obj
 0001:00009370       ?GetGroupCount@_AtlDlgResizeData@?$CDialogResize@VCLoggingPage@@@WTL@@QBEHXZ 0040a370 f i MainFrm.obj
 0001:00009370       ?GetGroupCount@_AtlDlgResizeData@?$CDialogResize@VCBuddyGroupsPage@@@WTL@@QBEHXZ 0040a370 f i MainFrm.obj
 0001:00009370       ?GetGroupCount@_AtlDlgResizeData@?$CDialogResize@VCNotificationsPage@@@WTL@@QBEHXZ 0040a370 f i MainFrm.obj
 0001:00009370       ?GetGroupCount@_AtlDlgResizeData@?$CDialogResize@VCEditNotificationDlg@@@WTL@@QBEHXZ 0040a370 f i Prefs_NotificationsPage.obj
 0001:00009370       ?GetGroupCount@_AtlDlgResizeData@?$CDialogResize@VCFavoritesDlg@@@WTL@@QBEHXZ 0040a370 f i FavoritesDlg.obj
 0001:00009370       ?GetGroupCount@_AtlDlgResizeData@?$CDialogResize@VCNotImplementedPage@@@WTL@@QBEHXZ 0040a370 f i MainFrm.obj
 0001:00009370       ?GetGroupCount@_AtlDlgResizeData@?$CDialogResize@VCAddNetworkDlg@@@WTL@@QBEHXZ 0040a370 f i ConnectDlg.obj
 0001:00009370       ?GetGroupCount@_AtlDlgResizeData@?$CDialogResize@VCHighlightingPage@@@WTL@@QBEHXZ 0040a370 f i MainFrm.obj
 0001:00009370       ?GetGroupCount@_AtlDlgResizeData@?$CDialogResize@VCChannelPropertiesDlg@@@WTL@@QBEHXZ 0040a370 f i ChannelPropertiesDlg.obj
 0001:000093a0       ??0?$CDialogImplBaseT@VCWindow@ATL@@@ATL@@QAE@XZ 0040a3a0 f i ChannelPropertiesDlg.obj
 0001:000093c0       ??0?$CWindowImplRoot@VCWindow@ATL@@@ATL@@QAE@XZ 0040a3c0 f i ChannelPropertiesDlg.obj
 0001:00009410       ??0CWndProcThunk@ATL@@QAE@XZ 0040a410 f i ChannelPropertiesDlg.obj
 0001:00009430       ?IsActive@CChildCommon@@QAEHXZ 0040a430 f   ChildCommon.obj
 0001:00009480       ?HideWindow@CChildCommon@@QAEXXZ 0040a480 f   ChildCommon.obj
 0001:00009580       ?ActivateWindow@CChildCommon@@QAEXXZ 0040a580 f   ChildCommon.obj
 0001:00009650       ?MDINext@CMDIWindow@WTL@@QAEXPAUHWND__@@H@Z 0040a650 f i ChildCommon.obj
 0001:00009680       ?OnForwardMsg@CChildFrame@@QAEJIIJAAH@Z 0040a680 f   ChildFrm.obj
 0001:000096d0       ?OnFinalMessage@CChildFrame@@UAEXPAUHWND__@@@Z 0040a6d0 f   ChildFrm.obj
 0001:00009710       ?OnCreate@CChildFrame@@QAEJIIJAAH@Z 0040a710 f   ChildFrm.obj
 0001:00009e30       ?OnMDIActivate@CChildFrame@@QAEJIIJAAH@Z 0040ae30 f   ChildFrm.obj
 0001:00009ff0       ?OnSetFocus@CChildFrame@@QAEJIIJAAH@Z 0040aff0 f   ChildFrm.obj
 0001:0000a0e0       ?OnClose@CChildFrame@@QAEJIIJAAH@Z 0040b0e0 f   ChildFrm.obj
 0001:0000a260       ?UpdateStatus@CChildFrame@@QAEXXZ 0040b260 f   ChildFrm.obj
 0001:0000a4e0       ?CMD_CTCPRequest@CChildFrame@@QAEXPAD@Z 0040b4e0 f   ChildFrm.obj
 0001:0000a620       ?CMD_Notice@CChildFrame@@QAEXPAD@Z 0040b620 f   ChildFrm.obj
 0001:0000a6c0       ?CMD_PrivMsg@CChildFrame@@QAEXPAD@Z 0040b6c0 f   ChildFrm.obj
 0001:0000a760       ?CMD_PrivMsg@CChildFrame@@QAEXPBD0@Z 0040b760 f   ChildFrm.obj
 0001:0000a790       ?CMD_Help@CChildFrame@@QAEXPBD@Z 0040b790 f   ChildFrm.obj
 0001:0000a7b0       ?SetVerboseLevel@CChildFrame@@QAEXH@Z 0040b7b0 f   ChildFrm.obj
 0001:0000a870       ?OnSetVerboseLevel@CChildFrame@@QAEJGGPAUHWND__@@AAH@Z 0040b870 f   ChildFrm.obj
 0001:0000a8a0       ?CMD_Ignore@CChildFrame@@QAEXPBD@Z 0040b8a0 f   ChildFrm.obj
 0001:0000b370       ?CMD_Set@CChildFrame@@QAEXPAD@Z 0040c370 f   ChildFrm.obj
 0001:0000b8d0       ?CMD_RefreshPlugins@CChildFrame@@QAEXPBD@Z 0040c8d0 f   ChildFrm.obj
 0001:0000b8f0       ?CMD_ListPlugins@CChildFrame@@QAEXPBD@Z 0040c8f0 f   ChildFrm.obj
 0001:0000b910       ?CMD_UnloadPlugin@CChildFrame@@QAEXPAD@Z 0040c910 f   ChildFrm.obj
 0001:0000ba40       ?CMD_GetNick@CChildFrame@@QAEXPAD@Z 0040ca40 f   ChildFrm.obj
 0001:0000bad0       ?CMD_Nick@CChildFrame@@QAEXPAD@Z 0040cad0 f   ChildFrm.obj
 0001:0000bb50       ?CMD_Window@CChildFrame@@QAEXPBD@Z 0040cb50 f   ChildFrm.obj
 0001:0000c140       ?CMD_Timestamps@CChildFrame@@QAEXPAD@Z 0040d140 f   ChildFrm.obj
 0001:0000c2c0       ?CMD_Action@CChildFrame@@QAEXPBD@Z 0040d2c0 f   ChildFrm.obj
 0001:0000c380       ?CMD_Monitor@CChildFrame@@QAEXPBD@Z 0040d380 f   ChildFrm.obj
 0001:0000c540       ?CMD_Logging@CChildFrame@@QAEXPBD@Z 0040d540 f   ChildFrm.obj
 0001:0000c790       ?CMD_Cycle@CChildFrame@@QAEXXZ 0040d790 f   ChildFrm.obj
 0001:0000c7c0       ?CMD_Part@CChildFrame@@QAEXPAD@Z 0040d7c0 f   ChildFrm.obj
 0001:0000c990       ?CMD_Server@CChildFrame@@QAEXPADH@Z 0040d990 f   ChildFrm.obj
 0001:0000cbb0       ?CMD_Quit@CChildFrame@@QAEXPAD@Z 0040dbb0 f   ChildFrm.obj
 0001:0000cbd0       ?CMD_Exit@CChildFrame@@QAEXPAD@Z 0040dbd0 f   ChildFrm.obj
 0001:0000cc20       ?CMD_AudioMute@CChildFrame@@QAEXPBD@Z 0040dc20 f   ChildFrm.obj
 0001:0000cd40       ?CMD_Raw@CChildFrame@@QAEXPAD@Z 0040dd40 f   ChildFrm.obj
 0001:0000cd60       ?GetTimerCommand@CChildFrame@@QAEPAVCTimerCommand@@PAD@Z 0040dd60 f   ChildFrm.obj
 0001:0000cdd0       ?AddTimerCommand@CChildFrame@@QAEXHPAD@Z 0040ddd0 f   ChildFrm.obj
 0001:0000cf30       ?CMD_Timer@CChildFrame@@QAEXPAD@Z 0040df30 f   ChildFrm.obj
 0001:0000cfc0       ?CMD_StopTimer@CChildFrame@@QAEXPAD@Z 0040dfc0 f   ChildFrm.obj
 0001:0000d0a0       ?CMD_Exec@CChildFrame@@QAEXPAD@Z 0040e0a0 f   ChildFrm.obj
 0001:0000d130       ?CMD_Join@CChildFrame@@QAEXPADH@Z 0040e130 f   ChildFrm.obj
 0001:0000d1c0       ?CMD_CLEAR@CChildFrame@@QAEXXZ 0040e1c0 f   ChildFrm.obj
 0001:0000d1e0       ?CMD_DCC@CChildFrame@@QAEXPAD@Z 0040e1e0 f   ChildFrm.obj
 0001:0000d2b0       ?CMD_DCCChat@CChildFrame@@QAEXPAD@Z 0040e2b0 f   ChildFrm.obj
 0001:0000d3e0       ?CMD_DCCSend@CChildFrame@@QAEXPAD@Z 0040e3e0 f   ChildFrm.obj
 0001:0000d640       ?CMD_Query@CChildFrame@@QAEXPAD@Z 0040e640 f   ChildFrm.obj
 0001:0000d6d0       ?CMD_Clear@CChildFrame@@QAEXPBD@Z 0040e6d0 f   ChildFrm.obj
 0001:0000d8c0       ?CMD_SaveTheme@CChildFrame@@QAEXPAD@Z 0040e8c0 f   ChildFrm.obj
 0001:0000d940       ?ProcessCommand@CChildFrame@@AAEHPAD0@Z 0040e940 f   ChildFrm.obj
 0001:0000dfe0       ?CheckPluginProcessing@CChildFrame@@QAEXPADK@Z 0040efe0 f   ChildFrm.obj
 0001:0000e2c0       ?ProcessTextInput@CChildFrame@@QAEXPADH@Z 0040f2c0 f   ChildFrm.obj
 0001:0000e650       ?OnTextInput@CChildFrame@@QAEJIIJAAH@Z 0040f650 f   ChildFrm.obj
 0001:0000e6e0       ?InitialiseWindows@CChildFrame@@AAEXXZ 0040f6e0 f   ChildFrm.obj
 0001:0000e8e0       ?UpdateSettings@CChildFrame@@QAEXH@Z 0040f8e0 f   ChildFrm.obj
 0001:0000ec10       ?OnNetEvent@CChildFrame@@QAEJIIJAAH@Z 0040fc10 f   ChildFrm.obj
 0001:0000eca0       ?OnProcessQueue@CChildFrame@@QAEJIIJAAH@Z 0040fca0 f   ChildFrm.obj
 0001:0000ecc0       ?ProcessBuffer@CChildFrame@@QAEXXZ 0040fcc0 f   ChildFrm.obj
 0001:0000ed40       ?Put@CChildFrame@@AAEXHPAD@Z 0040fd40 f   ChildFrm.obj
 0001:0000edf0       ?Printf@CChildFrame@@AAAXHPBDZZ 0040fdf0 f   ChildFrm.obj
 0001:0000ee60       ?OnBufferWaiting@CChildFrame@@QAEJIIJAAH@Z 0040fe60 f   ChildFrm.obj
 0001:0000ee80       ?OnCycleChannel@CChildFrame@@QAEJGGPAUHWND__@@AAH@Z 0040fe80 f   ChildFrm.obj
 0001:0000eec0       ?OnViewLogFile@CChildFrame@@QAEJGGPAUHWND__@@AAH@Z 0040fec0 f   ChildFrm.obj
 0001:0000efd0       ?OnDCCSend@CChildFrame@@QAEJGGPAUHWND__@@AAH@Z 0040ffd0 f   ChildFrm.obj
 0001:0000f040       ?OnDCCChat@CChildFrame@@QAEJGGPAUHWND__@@AAH@Z 00410040 f   ChildFrm.obj
 0001:0000f0b0       ?OnWhoIs@CChildFrame@@QAEJGGPAUHWND__@@AAH@Z 004100b0 f   ChildFrm.obj
 0001:0000f120       ?DoContextMenu@CChildFrame@@QAEXXZ 00410120 f   ChildFrm.obj
 0001:0000f580       ?OnEditCopy@CChildFrame@@QAEJIIJAAH@Z 00410580 f   ChildFrm.obj
 0001:0000f650       ?OnEnMsgFilter@CChildFrame@@QAEJHPAUtagNMHDR@@AAH@Z 00410650 f   ChildFrm.obj
 0001:0000f7c0       ?IsReadyForDrop@CChildFrame@@QAEHXZ 004107c0 f   ChildFrm.obj
 0001:0000f7f0       ?HandleDroppedFile@CChildFrame@@QAEHPBD@Z 004107f0 f   ChildFrm.obj
 0001:0000f860       ?EndDropFiles@CChildFrame@@QAEXXZ 00410860 f   ChildFrm.obj
 0001:0000f870       ?GetWindowPrefs@CChildFrame@@QAEXXZ 00410870 f   ChildFrm.obj
 0001:0000f9b0       ?Initialise@CChildFrame@@QAEXXZ 004109b0 f   ChildFrm.obj
 0001:0000fa30       ??0CChildFrame@@QAE@PAVCEventManager@@PAVIRCServer@@@Z 00410a30 f   ChildFrm.obj
 0001:0000fbf0       ??0CChildFrame@@QAE@PAVCEventManager@@PAVIRCServer@@PAVIRCChannel@@@Z 00410bf0 f   ChildFrm.obj
 0001:0000fda0       ??0CChildFrame@@QAE@PAVCEventManager@@PAVIRCServer@@PAVIRCQuery@@@Z 00410da0 f   ChildFrm.obj
 0001:0000ff50       ??1CChildFrame@@UAE@XZ     00410f50 f   ChildFrm.obj
 0001:00010150       ?OnEvent@CChildFrame@@UAEXHPAX@Z 00411150 f   ChildFrm.obj
 0001:00010370       ?OnDNSEvent@CChildFrame@@QAEJIIJAAH@Z 00411370 f   ChildFrm.obj
 0001:00010400       ?OnUserListContext@CChildFrame@@QAEJGGPAUHWND__@@AAH@Z 00411400 f   ChildFrm.obj
 0001:000108a0       ?DoUserListContextMenu@CChildFrame@@QAEXPAVTreeItemInfo@@PAVCUserListView@@@Z 004118a0 f   ChildFrm.obj
 0001:00010a60       ?DoUserListDoubleClick@CChildFrame@@QAEXPAVTreeItemInfo@@@Z 00411a60 f   ChildFrm.obj
 0001:00010ac0       ?OnMouseActivate@CChildFrame@@QAEJIIJAAH@Z 00411ac0 f   ChildFrm.obj
 0001:00010b10       ?GetServer@CChildFrame@@QAEPAVIRCServer@@XZ 00411b10 f   ChildFrm.obj
 0001:00010b70       ?OnPaneClose@CChildFrame@@QAEJGGPAUHWND__@@AAH@Z 00411b70 f   ChildFrm.obj
 0001:00010c10       ?ResizeHeader@CChildFrame@@IAEXXZ 00411c10 f   ChildFrm.obj
 0001:00010ce0       ?OnHeaderChanged@CChildFrame@@QAEJIIJAAH@Z 00411ce0 f   ChildFrm.obj
 0001:00010d00       ?IsHeaderVisible@CChildFrame@@QAEHXZ 00411d00 f   ChildFrm.obj
 0001:00010d30       ?ToggleHeader@CChildFrame@@QAEXXZ 00411d30 f   ChildFrm.obj
 0001:00010d60       ?ActivateTextInputPane@CChildFrame@@QAEXXZ 00411d60 f   ChildFrm.obj
 0001:00010da0       ?HideHeader@CChildFrame@@QAEXXZ 00411da0 f   ChildFrm.obj
 0001:00010de0       ?ShowHeader@CChildFrame@@QAEXXZ 00411de0 f   ChildFrm.obj
 0001:00010e20       ?ToggleUserList@CChildFrame@@QAEXXZ 00411e20 f   ChildFrm.obj
 0001:00010e50       ?IsUserListVisible@CChildFrame@@QAEHXZ 00411e50 f   ChildFrm.obj
 0001:00010ea0       ?HideUserList@CChildFrame@@QAEXXZ 00411ea0 f   ChildFrm.obj
 0001:00010f10       ?ShowUserList@CChildFrame@@QAEXXZ 00411f10 f   ChildFrm.obj
 0001:00010fe0       ?ToggleInfo@CChildFrame@@QAEXXZ 00411fe0 f   ChildFrm.obj
 0001:00011010       ?IsInfoVisible@CChildFrame@@QAEHXZ 00412010 f   ChildFrm.obj
 0001:00011060       ?HideInfo@CChildFrame@@QAEXXZ 00412060 f   ChildFrm.obj
 0001:000110d0       ?ShowInfo@CChildFrame@@QAEXXZ 004120d0 f   ChildFrm.obj
 0001:000111a0       ?OnSysCommand@CChildFrame@@QAEJIIJAAH@Z 004121a0 f   ChildFrm.obj
 0001:000111f0       ?OnSize@CChildFrame@@QAEJIIJAAH@Z 004121f0 f   ChildFrm.obj
 0001:00011240       ?UpdateInfo@CChildFrame@@QAEXXZ 00412240 f   ChildFrm.obj
 0001:000112c0       ?OnUpdateInfoPane@CChildFrame@@QAEJIIJAAH@Z 004122c0 f   ChildFrm.obj
 0001:000112e0       ?UpdateTab@CChildFrame@@QAEXXZ 004122e0 f   ChildFrm.obj
 0001:00011390       ?OnUpdateTab@CChildFrame@@QAEJIIJAAH@Z 00412390 f   ChildFrm.obj
 0001:000113d0       ?ClearDirtyFlag@IRCCommon@@QAEXXZ 004123d0 f i ChildFrm.obj
 0001:000113f0       ?GetStatus@IRCServer@@QAEFXZ 004123f0 f i ChildFrm.obj
 0001:00011410       ??_GIRCServer@@QAEPAXI@Z   00412410 f i ChildFrm.obj
 0001:00011440       ??_GIRCChannel@@QAEPAXI@Z  00412440 f i ChildFrm.obj
 0001:00011470       ??_GIRCQuery@@QAEPAXI@Z    00412470 f i ChildFrm.obj
 0001:000114a0       ?SetFilterList@CMsgView@@QAEXPAH@Z 004124a0 f i ChildFrm.obj
 0001:000114c0       ??0IgnoreInfo@@QAE@PAD00HH@Z 004124c0 f i ChildFrm.obj
 0001:00011590       ?Init@IgnoreInfo@@QAEXXZ   00412590 f i ChildFrm.obj
 0001:000115d0       ?AddChannel@IgnoreInfo@@QAEHPAD@Z 004125d0 f i ChildFrm.obj
 0001:00011620       ?IgnoringChannel@IgnoreInfo@@QAEHPAD@Z 00412620 f i ChildFrm.obj
 0001:00011680       ?RemoveChannel@IgnoreInfo@@QAEHPAD@Z 00412680 f i ChildFrm.obj
 0001:00011700       ?Validate@IgnoreInfo@@QAEXXZ 00412700 f i ChildFrm.obj
 0001:00011730       ?ChannelCount@IgnoreInfo@@QAEHXZ 00412730 f i ChildFrm.obj
 0001:00011750       ??_GIgnoreInfo@@QAEPAXI@Z  00412750 f i ChildFrm.obj
 0001:00011780       ??1IgnoreInfo@@QAE@XZ      00412780 f i ChildFrm.obj
 0001:000117e0       ?Clear@IgnoreInfo@@QAEXXZ  004127e0 f i ChildFrm.obj
 0001:00011870       ?SetWindowPos@CWindow@ATL@@QAEHPAUHWND__@@HHHHI@Z 00412870 f i ChildFrm.obj
 0001:000118b0       ?GetTimeStamps@CMsgView@@QAEHXZ 004128b0 f i ChildFrm.obj
 0001:000118d0       ?SetTimeStampFormat@CMsgView@@QAEXPAD@Z 004128d0 f i ChildFrm.obj
 0001:00011900       ?strchr@@YAPADPADH@Z       00412900 f i ChildFrm.obj
 0001:00011920       ?ParseURI@IRCServerDetails@@QAEHPAD@Z 00412920 f i ChildFrm.obj
 0001:00011b90       ?Clear@IRCServerDetails@@QAEXXZ 00412b90 f i ChildFrm.obj
 0001:00011c10       ?Init@IRCServerDetails@@QAEXXZ 00412c10 f i ChildFrm.obj
 0001:00011c70       ??0IRCServerDetails@@QAE@PAV0@@Z 00412c70 f i ChildFrm.obj
 0001:00011ca0       ?Copy@IRCServerDetails@@QAEXPAV1@@Z 00412ca0 f i ChildFrm.obj
 0001:00011d40       ??_GIRCServerDetails@@QAEPAXI@Z 00412d40 f i ChildFrm.obj
 0001:00011d70       ??1IRCServerDetails@@QAE@XZ 00412d70 f i ChildFrm.obj
 0001:00011d90       ??0CTimerCommand@@QAE@HPADPAVCListener@@@Z 00412d90 f i ChildFrm.obj
 0001:00011dd0       ?GetFirstCommand@CCommandProfile@@QAEPADXZ 00412dd0 f i ChildFrm.obj
 0001:00011e30       ?GetNextCommand@CCommandProfile@@QAEPADXZ 00412e30 f i ChildFrm.obj
 0001:00011f10       ?GarbageCollect@CCommandProfile@@QAEXXZ 00412f10 f i ChildFrm.obj
 0001:00011f50       ??0IRCServerDetails@@QAE@XZ 00412f50 f i ChildFrm.obj
 0001:00011f70       ?MessageBoxA@CWindow@ATL@@QAEHPBD0I@Z 00412f70 f i ChildFrm.obj
 0001:00011fa0       ?SetFont@CWindow@ATL@@QAEXPAUHFONT__@@H@Z 00412fa0 f i ChildFrm.obj
 0001:00011fd0       ?GetSocket@Socket@@QAEIXZ  00412fd0 f i ChildFrm.obj
 0001:00011ff0       ?GetFilterList@CMsgView@@QAEPAHXZ 00412ff0 f i ChildFrm.obj
 0001:00012010       ??0_U_STRINGorID@ATL@@QAE@I@Z 00413010 f i ChildFrm.obj
 0001:00012030       ??0CInfoView@@QAE@XZ       00413030 f i ChildFrm.obj
 0001:00012080       ?ProcessWindowMessage@CInfoView@@UAEHPAUHWND__@@IIJAAJK@Z 00413080 f i ChildFrm.obj
 0001:00012140       ??1?$CWindowImplBaseT@VCWindow@ATL@@V?$CWinTraits@$0FGAAAAAA@$0A@@2@@ATL@@UAE@XZ 00413140 f i ChildFrm.obj
 0001:00012140       ??1?$CWindowImplBaseT@VCWindow@ATL@@U?$CDockingBoxTraits@UCVC7LikeCaption@dockwins@@$0IGMPAAAA@$0IA@@dockwins@@@ATL@@UAE@XZ 00413140 f i ChildFrm.obj
 0001:00012140       ??1?$CWindowImplBaseT@VCWindow@ATL@@U?$CDockingWindowTraits@UCVC7LikeCaption@dockwins@@$0EGMAAAAA@$0IA@@dockwins@@@ATL@@UAE@XZ 00413140 f i HydraIRC.obj
 0001:00012140       ??1?$CWindowImplBaseT@VCWindow@ATL@@U?$CBoxedDockingWindowTraits@VCVC7LikeExCaption@dockwins@@V?$CTabDockingBox@U?$CDockingBoxTraits@VCVC7LikeExCaption@dockwins@@$0IGMPAAAA@$0IA@@dockwins@@@2@$0JGMPAAAA@$0IA@@dockwins@@@ATL@@UAE@XZ 00413140 f i EventLogFrm.obj
 0001:00012140       ??1?$CWindowImplBaseT@V?$CListBoxT@VCWindow@ATL@@@WTL@@V?$CWinTraitsOR@$0CB@$0A@V?$CWinTraits@$0FGAAAAAA@$0A@@ATL@@@ATL@@@ATL@@UAE@XZ 00413140 f i MainFrm.obj
 0001:00012140       ??1?$CDialogImplBaseT@VCWindow@ATL@@@ATL@@UAE@XZ 00413140 f i ChannelListDlg.obj
 0001:00012140       ??1?$CWindowImplBaseT@VCWindow@ATL@@V?$CWinTraits@$0FGAAEAAA@$0A@@2@@ATL@@UAE@XZ 00413140 f i ChildFrm.obj
 0001:00012140       ??1?$CWindowImplBaseT@V?$CEditT@VCWindow@ATL@@@WTL@@V?$CWinTraits@$0FGAAAAAA@$0A@@ATL@@@ATL@@UAE@XZ 00413140 f i FavoritesDlg.obj
 0001:00012140       ??1?$CWindowImplBaseT@V?$CRichEditCtrlT@VCWindow@ATL@@@WTL@@V?$CWinTraits@$0FGAAAAAA@$0A@@ATL@@@ATL@@UAE@XZ 00413140 f i ChildFrm.obj
 0001:00012140       ??1?$CWindowImplBaseT@V?$CStatusBarCtrlT@VCWindow@ATL@@@WTL@@V?$CWinTraits@$0FGAAAAAA@$0A@@ATL@@@ATL@@UAE@XZ 00413140 f i HydraIRC.obj
 0001:00012140       ??1?$CWindowImplBaseT@VCWindow@ATL@@U?$CBoxedDockingWindowTraits@UCVC7LikeCaption@dockwins@@V?$CTabDockingBox@U?$CDockingBoxTraits@UCVC7LikeCaption@dockwins@@$0IGMPAAAA@$0IA@@dockwins@@@2@$0JGMPAAAA@$0IA@@dockwins@@@ATL@@UAE@XZ 00413140 f i ChildFrm.obj
 0001:00012140       ??1?$CWindowImplBaseT@VCWindow@ATL@@U?$CDockingBoxTraits@VCVC7LikeExCaption@dockwins@@$0IGMPAAAA@$0IA@@dockwins@@@ATL@@UAE@XZ 00413140 f i EventLogFrm.obj
 0001:00012160       ??0CUserListView@@QAE@PAVIRCChannel@@KPAVCEventManager@@@Z 00413160 f i ChildFrm.obj
 0001:00012280       ?ProcessWindowMessage@CUserListView@@UAEHPAUHWND__@@IIJAAJK@Z 00413280 f i ChildFrm.obj
 0001:00012590       ?OnGetMinMaxInfo@CUserListView@@QAEJIIJAAH@Z 00413590 f i ChildFrm.obj
 0001:000125c0       ??0CTextInputView@@QAE@XZ  004135c0 f i ChildFrm.obj
 0001:00012670       ??0InputHistoryManager@@QAE@XZ 00413670 f i ChildFrm.obj
 0001:000126a0       ??1InputHistoryManager@@QAE@XZ 004136a0 f i ChildFrm.obj
 0001:00012700       ?TrimBuffer@InputHistoryManager@@QAEXXZ 00413700 f i ChildFrm.obj
 0001:00012760       ?SetMaxLines@InputHistoryManager@@QAEXH@Z 00413760 f i ChildFrm.obj
 0001:00012780       ?ResetHistoryItemPointer@InputHistoryManager@@QAEXXZ 00413780 f i ChildFrm.obj
 0001:000127a0       ??1CTextInputView@@UAE@XZ  004137a0 f i ChildFrm.obj
 0001:00012800       ?ProcessWindowMessage@CTextInputView@@UAEHPAUHWND__@@IIJAAJK@Z 00413800 f i ChildFrm.obj
 0001:00012980       ??_GCTextInputView@@UAEPAXI@Z 00413980 f i ChildFrm.obj
 0001:00012980       ??_ECTextInputView@@UAEPAXI@Z 00413980 f i ChildFrm.obj
 0001:000129b0       ?ProcessWindowMessage@CChildFrame@@UAEHPAUHWND__@@IIJAAJK@Z 004139b0 f i ChildFrm.obj
 0001:00013660       ??_GCChildFrame@@UAEPAXI@Z 00414660 f i ChildFrm.obj
 0001:00013660       ??_ECChildFrame@@UAEPAXI@Z 00414660 f i ChildFrm.obj
 0001:00013690       ??0CChildCommon@@QAE@XZ    00414690 f i ChildFrm.obj
 0001:000136b0       ??1CChildCommon@@UAE@XZ    004146b0 f i ChildFrm.obj
 0001:000136d0       ??0?$CHydraSplitterWindowT@$0A@@@QAE@XZ 004146d0 f i ChildFrm.obj
 0001:000136f0       ??0?$CHydraSplitterWindowT@$00@@QAE@XZ 004146f0 f i ChildFrm.obj
 0001:00013710       ??_ECChildCommon@@UAEPAXI@Z 00414710 f i ChildFrm.obj
 0001:00013710       ??_GCChildCommon@@UAEPAXI@Z 00414710 f i ChildFrm.obj
 0001:00013740       ??1?$CTabbedMDIChildWindowImpl@VCChildCommon@@VCMDIWindow@WTL@@V?$CWinTraits@$0FGMPAAAA@$0EA@@ATL@@@@UAE@XZ 00414740 f i ChildFrm.obj
 0001:00013760       ??0?$CSplitterWindowImpl@V?$CHydraSplitterWindowT@$0A@@@$0A@VCWindow@ATL@@V?$CWinTraits@$0FGAAAAAA@$0A@@3@@WTL@@QAE@XZ 00414760 f i ChildFrm.obj
 0001:000137c0       ??0?$CSplitterWindowImpl@V?$CHydraSplitterWindowT@$00@@$00VCWindow@ATL@@V?$CWinTraits@$0FGAAAAAA@$0A@@3@@WTL@@QAE@XZ 004147c0 f i ChildFrm.obj
 0001:00013820       ??1?$CMDIChildWindowImpl@VCChildCommon@@VCMDIWindow@WTL@@V?$CWinTraits@$0FGMPAAAA@$0EA@@ATL@@@WTL@@UAE@XZ 00414820 f i ChildFrm.obj
 0001:00013820       ??1?$CMDIFrameWindowImpl@VCMainFrame@@VCHidingMDIWindow@@U?$CDockingFrameTraitsT@U?$CDockingWindowTraits@UCVC7LikeCaption@dockwins@@$0EGMAAAAA@$0IA@@dockwins@@V?$CSimpleSplitterBar@$02@2@$0GMPAAAA@$0EABAA@@dockwins@@@WTL@@UAE@XZ 00414820 f i HydraIRC.obj
 0001:00013840       ??_GCTimerCommand@@QAEPAXI@Z 00414840 f i ChildFrm.obj
 0001:00013870       ??1CTimerCommand@@QAE@XZ   00414870 f i ChildFrm.obj
 0001:000138a0       ?IsDirty@CMsgView@@QAEHXZ  004148a0 f i ChildFrm.obj
 0001:000138c0       ?GetDirtyStatus@IRCCommon@@QAEHXZ 004148c0 f i ChildFrm.obj
 0001:000139d0       ??_GDNSResolveItem@@QAEPAXI@Z 004149d0 f i ChildFrm.obj
 0001:00013a00       ??1DNSResolveItem@@QAE@XZ  00414a00 f i ChildFrm.obj
 0001:00013a30       ?GetShowBuddyGroups@CUserListView@@QAEHXZ 00414a30 f i ChildFrm.obj
 0001:00013a50       ?SetUserListMenuWindow@CMainFrame@@QAEXPAUHWND__@@@Z 00414a50 f i ChildFrm.obj
 0001:00013a70       ?SetUserListMenuInstance@CMainFrame@@QAEXPAVCUserListView@@@Z 00414a70 f i ChildFrm.obj
 0001:00013a90       ?GetLineCount@CHeaderView@@QAEHXZ 00414a90 f i ChildFrm.obj
 0001:00013ab0       ?SetFocus@CWindow@ATL@@QAEPAUHWND__@@XZ 00414ab0 f i ChildFrm.obj
 0001:00013ad0       ?DoModal@?$CFileDialogImpl@VCFileDialog@WTL@@@WTL@@QAEHPAUHWND__@@@Z 00414ad0 f i ChildFrm.obj
 0001:00013b50       ?CheckMenuItem@?$CMenuT@$0A@@WTL@@QAEIII@Z 00414b50 f i ChildFrm.obj
 0001:00013b80       ?GetSubMenu@?$CMenuT@$00@WTL@@QBE?AV?$CMenuT@$0A@@2@H@Z 00414b80 f i MsgView.obj
 0001:00013b80       ?GetSubMenu@?$CMenuT@$0A@@WTL@@QBE?AV12@H@Z 00414b80 f i ChildFrm.obj
 0001:00013bc0       ?SetClient@?$CPaneContainerImpl@VCHydraPaneContainer@@VCWindow@ATL@@V?$CWinTraits@$0FGAAAAAA@$0A@@3@@WTL@@QAEPAUHWND__@@PAU3@@Z 00414bc0 f i ChildFrm.obj
 0001:00013c10       ?Create@?$CPaneContainerImpl@VCHydraPaneContainer@@VCWindow@ATL@@V?$CWinTraits@$0FGAAAAAA@$0A@@3@@WTL@@QAEPAUHWND__@@PAU3@PBDKKIPAX@Z 00414c10 f i ChildFrm.obj
 0001:00013c70       ?strncpy_x@SecureHelper@WTL@@YAHPADIPBDI@Z 00414c70 f i ChildFrm.obj
 0001:00013c90       ?strncpyA_x@SecureHelper@WTL@@YAHPADIPBDI@Z 00414c90 f i ChildFrm.obj
 0001:00013d60       ??1?$CWindowImplRoot@V?$CEditT@VCWindow@ATL@@@WTL@@@ATL@@UAE@XZ 00414d60 f i FavoritesDlg.obj
 0001:00013d60       ??1?$CWindowImplRoot@V?$CListBoxT@VCWindow@ATL@@@WTL@@@ATL@@UAE@XZ 00414d60 f i MainFrm.obj
 0001:00013d60       ??1?$CWindowImplRoot@V?$CStatusBarCtrlT@VCWindow@ATL@@@WTL@@@ATL@@UAE@XZ 00414d60 f i HydraIRC.obj
 0001:00013d60       ??1?$CWindowImplRoot@VCWindow@ATL@@@ATL@@UAE@XZ 00414d60 f i ChannelListDlg.obj
 0001:00013d60       ??1?$CWindowImplRoot@V?$CRichEditCtrlT@VCWindow@ATL@@@WTL@@@ATL@@UAE@XZ 00414d60 f i ChildFrm.obj
 0001:00013d80       ?GetLineCount@?$CRichEditCtrlT@VCWindow@ATL@@@WTL@@QBEHXZ 00414d80 f i ChildFrm.obj
 0001:00013da0       ?GetSel@?$CRichEditCtrlT@VCWindow@ATL@@@WTL@@QBEXAAU_charrange@@@Z 00414da0 f i ChildFrm.obj
 0001:00013dd0       ?SetSel@?$CRichEditCtrlT@VCWindow@ATL@@@WTL@@QAEHJJ@Z 00414dd0 f i ChildFrm.obj
 0001:00013e10       ?Create@?$CWindowImpl@VCHeaderView@@VCWindow@ATL@@V?$CWinTraits@$0FGAAAAAA@$0A@@3@@ATL@@QAEPAUHWND__@@PAU3@V_U_RECT@2@PBDKKV_U_MENUorID@2@PAX@Z 00414e10 f i ChildFrm.obj
 0001:00013eb0       ?Create@?$CWindowImpl@VCInfoView@@V?$CRichEditCtrlT@VCWindow@ATL@@@WTL@@V?$CWinTraits@$0FGAAAAAA@$0A@@ATL@@@ATL@@QAEPAUHWND__@@PAU3@V_U_RECT@2@PBDKKV_U_MENUorID@2@PAX@Z 00414eb0 f i ChildFrm.obj
 0001:00013f50       ?GetWndClassInfo@CInfoView@@SAAAU_ATL_WNDCLASSINFOA@ATL@@XZ 00414f50 f i ChildFrm.obj
 0001:00014030       ?Show@?$CBoxedDockingWindowImpl@VCEventLogView@@VCWindow@ATL@@U?$CBoxedDockingWindowTraits@VCVC7LikeExCaption@dockwins@@V?$CTabDockingBox@U?$CDockingBoxTraits@VCVC7LikeExCaption@dockwins@@$0IGMPAAAA@$0IA@@dockwins@@@2@$0JGMPAAAA@$0IA@@dockwins@@@dockwins@@UAE_NXZ 00415030 f i EventLogFrm.obj
 0001:00014030       ?Show@?$CBoxedDockingWindowImpl@VCChannelMonitorView@@VCWindow@ATL@@U?$CBoxedDockingWindowTraits@VCVC7LikeExCaption@dockwins@@V?$CTabDockingBox@U?$CDockingBoxTraits@VCVC7LikeExCaption@dockwins@@$0IGMPAAAA@$0IA@@dockwins@@@2@$0JGMPAAAA@$0IA@@dockwins@@@dockwins@@UAE_NXZ 00415030 f i HydraIRC.obj
 0001:00014030       ?Show@?$CBoxedDockingWindowImpl@VCTransfersView@@VCWindow@ATL@@U?$CBoxedDockingWindowTraits@VCVC7LikeExCaption@dockwins@@V?$CTabDockingBox@U?$CDockingBoxTraits@VCVC7LikeExCaption@dockwins@@$0IGMPAAAA@$0IA@@dockwins@@@2@$0JGMPAAAA@$0IA@@dockwins@@@dockwins@@UAE_NXZ 00415030 f i Transfers.obj
 0001:00014030       ?Show@?$CBoxedDockingWindowImpl@VCUserListView@@VCWindow@ATL@@U?$CBoxedDockingWindowTraits@UCVC7LikeCaption@dockwins@@V?$CTabDockingBox@U?$CDockingBoxTraits@UCVC7LikeCaption@dockwins@@$0IGMPAAAA@$0IA@@dockwins@@@2@$0JGMPAAAA@$0IA@@dockwins@@@dockwins@@UAE_NXZ 00415030 f i ChildFrm.obj
 0001:00014030       ?Show@?$CBoxedDockingWindowImpl@VCTextQueueView@@VCWindow@ATL@@U?$CBoxedDockingWindowTraits@VCVC7LikeExCaption@dockwins@@V?$CTabDockingBox@U?$CDockingBoxTraits@VCVC7LikeExCaption@dockwins@@$0IGMPAAAA@$0IA@@dockwins@@@2@$0JGMPAAAA@$0IA@@dockwins@@@dockwins@@UAE_NXZ 00415030 f i TextQueueFrm.obj
 0001:00014030       ?Show@?$CBoxedDockingWindowImpl@VCServerMonitorView@@VCWindow@ATL@@U?$CBoxedDockingWindowTraits@VCVC7LikeExCaption@dockwins@@V?$CTabDockingBox@U?$CDockingBoxTraits@VCVC7LikeExCaption@dockwins@@$0IGMPAAAA@$0IA@@dockwins@@@2@$0JGMPAAAA@$0IA@@dockwins@@@dockwins@@UAE_NXZ 00415030 f i HydraIRC.obj
 0001:00014030       ?Show@?$CBoxedDockingWindowImpl@VCOutputView@@VCWindow@ATL@@U?$CBoxedDockingWindowTraits@VCVC7LikeExCaption@dockwins@@V?$CTabDockingBox@U?$CDockingBoxTraits@VCVC7LikeExCaption@dockwins@@$0IGMPAAAA@$0IA@@dockwins@@@2@$0JGMPAAAA@$0IA@@dockwins@@@dockwins@@UAE_NXZ 00415030 f i Output.obj
 0001:00014030       ?Show@?$CBoxedDockingWindowImpl@VCServerListView@@VCWindow@ATL@@U?$CBoxedDockingWindowTraits@UCVC7LikeCaption@dockwins@@V?$CTabDockingBox@U?$CDockingBoxTraits@UCVC7LikeCaption@dockwins@@$0IGMPAAAA@$0IA@@dockwins@@@2@$0JGMPAAAA@$0IA@@dockwins@@@dockwins@@UAE_NXZ 00415030 f i HydraIRC.obj
 0001:000140b0       ?ProcessWindowMessage@?$CBoxedDockingWindowBaseImpl@VCUserListView@@VCWindow@ATL@@U?$CBoxedDockingWindowTraits@UCVC7LikeCaption@dockwins@@V?$CTabDockingBox@U?$CDockingBoxTraits@UCVC7LikeCaption@dockwins@@$0IGMPAAAA@$0IA@@dockwins@@@2@$0JGMPAAAA@$0IA@@dockwins@@@dockwins@@UAEHPAUHWND__@@IIJAAJK@Z 004150b0 f i ChildFrm.obj
 0001:00014180       ?Undock@?$CTitleDockingWindowImpl@VCOutputView@@VCWindow@ATL@@U?$CBoxedDockingWindowTraits@VCVC7LikeExCaption@dockwins@@V?$CTabDockingBox@U?$CDockingBoxTraits@VCVC7LikeExCaption@dockwins@@$0IGMPAAAA@$0IA@@dockwins@@@2@$0JGMPAAAA@$0IA@@dockwins@@@dockwins@@UAE_NXZ 00415180 f i Output.obj
 0001:00014180       ?Undock@?$CTitleDockingWindowImpl@VCEventLogView@@VCWindow@ATL@@U?$CBoxedDockingWindowTraits@VCVC7LikeExCaption@dockwins@@V?$CTabDockingBox@U?$CDockingBoxTraits@VCVC7LikeExCaption@dockwins@@$0IGMPAAAA@$0IA@@dockwins@@@2@$0JGMPAAAA@$0IA@@dockwins@@@dockwins@@UAE_NXZ 00415180 f i EventLogFrm.obj
 0001:00014180       ?Undock@?$CTitleDockingWindowImpl@VCUserListView@@VCWindow@ATL@@U?$CBoxedDockingWindowTraits@UCVC7LikeCaption@dockwins@@V?$CTabDockingBox@U?$CDockingBoxTraits@UCVC7LikeCaption@dockwins@@$0IGMPAAAA@$0IA@@dockwins@@@2@$0JGMPAAAA@$0IA@@dockwins@@@dockwins@@UAE_NXZ 00415180 f i ChildFrm.obj
 0001:00014180       ?Undock@?$CTitleDockingWindowImpl@V?$CTabDockingBox@U?$CDockingBoxTraits@UCVC7LikeCaption@dockwins@@$0IGMPAAAA@$0IA@@dockwins@@@dockwins@@VCWindow@ATL@@U?$CDockingBoxTraits@UCVC7LikeCaption@dockwins@@$0IGMPAAAA@$0IA@@2@@dockwins@@UAE_NXZ 00415180 f i ChildFrm.obj
 0001:00014180       ?Undock@?$CTitleDockingWindowImpl@VCChannelMonitorView@@VCWindow@ATL@@U?$CBoxedDockingWindowTraits@VCVC7LikeExCaption@dockwins@@V?$CTabDockingBox@U?$CDockingBoxTraits@VCVC7LikeExCaption@dockwins@@$0IGMPAAAA@$0IA@@dockwins@@@2@$0JGMPAAAA@$0IA@@dockwins@@@dockwins@@UAE_NXZ 00415180 f i HydraIRC.obj
 0001:00014180       ?Undock@?$CTitleDockingWindowImpl@VCServerMonitorView@@VCWindow@ATL@@U?$CBoxedDockingWindowTraits@VCVC7LikeExCaption@dockwins@@V?$CTabDockingBox@U?$CDockingBoxTraits@VCVC7LikeExCaption@dockwins@@$0IGMPAAAA@$0IA@@dockwins@@@2@$0JGMPAAAA@$0IA@@dockwins@@@dockwins@@UAE_NXZ 00415180 f i HydraIRC.obj
 0001:00014180       ?Undock@?$CTitleDockingWindowImpl@VCServerListView@@VCWindow@ATL@@U?$CBoxedDockingWindowTraits@UCVC7LikeCaption@dockwins@@V?$CTabDockingBox@U?$CDockingBoxTraits@UCVC7LikeCaption@dockwins@@$0IGMPAAAA@$0IA@@dockwins@@@2@$0JGMPAAAA@$0IA@@dockwins@@@dockwins@@UAE_NXZ 00415180 f i HydraIRC.obj
 0001:00014180       ?Undock@?$CTitleDockingWindowImpl@VCTransfersView@@VCWindow@ATL@@U?$CBoxedDockingWindowTraits@VCVC7LikeExCaption@dockwins@@V?$CTabDockingBox@U?$CDockingBoxTraits@VCVC7LikeExCaption@dockwins@@$0IGMPAAAA@$0IA@@dockwins@@@2@$0JGMPAAAA@$0IA@@dockwins@@@dockwins@@UAE_NXZ 00415180 f i Transfers.obj
 0001:00014180       ?Undock@?$CTitleDockingWindowImpl@V?$CTabDockingBox@U?$CDockingBoxTraits@VCVC7LikeExCaption@dockwins@@$0IGMPAAAA@$0IA@@dockwins@@@dockwins@@VCWindow@ATL@@U?$CDockingBoxTraits@VCVC7LikeExCaption@dockwins@@$0IGMPAAAA@$0IA@@2@@dockwins@@UAE_NXZ 00415180 f i EventLogFrm.obj
 0001:00014180       ?Undock@?$CTitleDockingWindowImpl@VCTextQueueView@@VCWindow@ATL@@U?$CBoxedDockingWindowTraits@VCVC7LikeExCaption@dockwins@@V?$CTabDockingBox@U?$CDockingBoxTraits@VCVC7LikeExCaption@dockwins@@$0IGMPAAAA@$0IA@@dockwins@@@2@$0JGMPAAAA@$0IA@@dockwins@@@dockwins@@UAE_NXZ 00415180 f i TextQueueFrm.obj
 0001:000141b0       ?ProcessWindowMessage@?$CTitleDockingWindowImpl@VCUserListView@@VCWindow@ATL@@U?$CBoxedDockingWindowTraits@UCVC7LikeCaption@dockwins@@V?$CTabDockingBox@U?$CDockingBoxTraits@UCVC7LikeCaption@dockwins@@$0IGMPAAAA@$0IA@@dockwins@@@2@$0JGMPAAAA@$0IA@@dockwins@@@dockwins@@UAEHPAUHWND__@@IIJAAJK@Z 004151b0 f i ChildFrm.obj
 0001:00014280       ?ProcessWindowMessage@?$CTitleDockingWindowBaseImpl@VCUserListView@@VCWindow@ATL@@U?$CBoxedDockingWindowTraits@UCVC7LikeCaption@dockwins@@V?$CTabDockingBox@U?$CDockingBoxTraits@UCVC7LikeCaption@dockwins@@$0IGMPAAAA@$0IA@@dockwins@@@2@$0JGMPAAAA@$0IA@@dockwins@@@dockwins@@UAEHPAUHWND__@@IIJAAJK@Z 00415280 f i ChildFrm.obj
 0001:000145f0       ?Create@?$CDockingWindowBaseImpl@VCUserListView@@VCWindow@ATL@@U?$CBoxedDockingWindowTraits@UCVC7LikeCaption@dockwins@@V?$CTabDockingBox@U?$CDockingBoxTraits@UCVC7LikeCaption@dockwins@@$0IGMPAAAA@$0IA@@dockwins@@@2@$0JGMPAAAA@$0IA@@dockwins@@@dockwins@@QAEPAUHWND__@@PAU3@AAUtagRECT@@PBDKKIPAX@Z 004155f0 f i ChildFrm.obj
 0001:00014650       ?Undock@?$CDockingWindowBaseImpl@VCEventLogView@@VCWindow@ATL@@U?$CBoxedDockingWindowTraits@VCVC7LikeExCaption@dockwins@@V?$CTabDockingBox@U?$CDockingBoxTraits@VCVC7LikeExCaption@dockwins@@$0IGMPAAAA@$0IA@@dockwins@@@2@$0JGMPAAAA@$0IA@@dockwins@@@dockwins@@UAE_NXZ 00415650 f i EventLogFrm.obj
 0001:00014650       ?Undock@?$CDockingWindowBaseImpl@V?$CTabDockingBox@U?$CDockingBoxTraits@UCVC7LikeCaption@dockwins@@$0IGMPAAAA@$0IA@@dockwins@@@dockwins@@VCWindow@ATL@@U?$CDockingBoxTraits@UCVC7LikeCaption@dockwins@@$0IGMPAAAA@$0IA@@2@@dockwins@@UAE_NXZ 00415650 f i ChildFrm.obj
 0001:00014650       ?Undock@?$CDockingWindowBaseImpl@VCTextQueueView@@VCWindow@ATL@@U?$CBoxedDockingWindowTraits@VCVC7LikeExCaption@dockwins@@V?$CTabDockingBox@U?$CDockingBoxTraits@VCVC7LikeExCaption@dockwins@@$0IGMPAAAA@$0IA@@dockwins@@@2@$0JGMPAAAA@$0IA@@dockwins@@@dockwins@@UAE_NXZ 00415650 f i TextQueueFrm.obj
 0001:00014650       ?Undock@?$CDockingWindowBaseImpl@VCOutputView@@VCWindow@ATL@@U?$CBoxedDockingWindowTraits@VCVC7LikeExCaption@dockwins@@V?$CTabDockingBox@U?$CDockingBoxTraits@VCVC7LikeExCaption@dockwins@@$0IGMPAAAA@$0IA@@dockwins@@@2@$0JGMPAAAA@$0IA@@dockwins@@@dockwins@@UAE_NXZ 00415650 f i Output.obj
 0001:00014650       ?Undock@?$CDockingWindowBaseImpl@V?$CTabDockingBox@U?$CDockingBoxTraits@VCVC7LikeExCaption@dockwins@@$0IGMPAAAA@$0IA@@dockwins@@@dockwins@@VCWindow@ATL@@U?$CDockingBoxTraits@VCVC7LikeExCaption@dockwins@@$0IGMPAAAA@$0IA@@2@@dockwins@@UAE_NXZ 00415650 f i EventLogFrm.obj
 0001:00014650       ?Undock@?$CDockingWindowBaseImpl@VCChannelMonitorView@@VCWindow@ATL@@U?$CBoxedDockingWindowTraits@VCVC7LikeExCaption@dockwins@@V?$CTabDockingBox@U?$CDockingBoxTraits@VCVC7LikeExCaption@dockwins@@$0IGMPAAAA@$0IA@@dockwins@@@2@$0JGMPAAAA@$0IA@@dockwins@@@dockwins@@UAE_NXZ 00415650 f i HydraIRC.obj
 0001:00014650       ?Undock@?$CDockingWindowBaseImpl@VCServerListView@@VCWindow@ATL@@U?$CBoxedDockingWindowTraits@UCVC7LikeCaption@dockwins@@V?$CTabDockingBox@U?$CDockingBoxTraits@UCVC7LikeCaption@dockwins@@$0IGMPAAAA@$0IA@@dockwins@@@2@$0JGMPAAAA@$0IA@@dockwins@@@dockwins@@UAE_NXZ 00415650 f i HydraIRC.obj
 0001:00014650       ?Undock@?$CDockingWindowBaseImpl@VCTransfersView@@VCWindow@ATL@@U?$CBoxedDockingWindowTraits@VCVC7LikeExCaption@dockwins@@V?$CTabDockingBox@U?$CDockingBoxTraits@VCVC7LikeExCaption@dockwins@@$0IGMPAAAA@$0IA@@dockwins@@@2@$0JGMPAAAA@$0IA@@dockwins@@@dockwins@@UAE_NXZ 00415650 f i Transfers.obj
 0001:00014650       ?Undock@?$CDockingWindowBaseImpl@VCServerMonitorView@@VCWindow@ATL@@U?$CBoxedDockingWindowTraits@VCVC7LikeExCaption@dockwins@@V?$CTabDockingBox@U?$CDockingBoxTraits@VCVC7LikeExCaption@dockwins@@$0IGMPAAAA@$0IA@@dockwins@@@2@$0JGMPAAAA@$0IA@@dockwins@@@dockwins@@UAE_NXZ 00415650 f i HydraIRC.obj
 0001:00014650       ?Undock@?$CDockingWindowBaseImpl@VCUserListView@@VCWindow@ATL@@U?$CBoxedDockingWindowTraits@UCVC7LikeCaption@dockwins@@V?$CTabDockingBox@U?$CDockingBoxTraits@UCVC7LikeCaption@dockwins@@$0IGMPAAAA@$0IA@@dockwins@@@2@$0JGMPAAAA@$0IA@@dockwins@@@dockwins@@UAE_NXZ 00415650 f i ChildFrm.obj
 0001:00014680       ?ProcessWindowMessage@?$CDockingWindowBaseImpl@VCUserListView@@VCWindow@ATL@@U?$CBoxedDockingWindowTraits@UCVC7LikeCaption@dockwins@@V?$CTabDockingBox@U?$CDockingBoxTraits@UCVC7LikeCaption@dockwins@@$0IGMPAAAA@$0IA@@dockwins@@@2@$0JGMPAAAA@$0IA@@dockwins@@@dockwins@@UAEHPAUHWND__@@IIJAAJK@Z 00415680 f i ChildFrm.obj
 0001:00014810       ?Create@?$CWindowImpl@VCTextInputView@@V?$CRichEditCtrlT@VCWindow@ATL@@@WTL@@V?$CWinTraits@$0FGAAAAAA@$0A@@ATL@@@ATL@@QAEPAUHWND__@@PAU3@V_U_RECT@2@PBDKKV_U_MENUorID@2@PAX@Z 00415810 f i ChildFrm.obj
 0001:000148b0       ?GetWndClassInfo@CTextInputView@@SAAAU_ATL_WNDCLASSINFOA@ATL@@XZ 004158b0 f i ChildFrm.obj
 0001:00014990       ?ProcessWindowMessage@?$CRichEditCommands@VCIRCEditCtrl@@@WTL@@QAEHPAUHWND__@@IIJAAJK@Z 00415990 f i HeaderView.obj
 0001:00014990       ?ProcessWindowMessage@?$CRichEditCommands@VCTextInputView@@@WTL@@QAEHPAUHWND__@@IIJAAJK@Z 00415990 f i ChildFrm.obj
 0001:00014990       ?ProcessWindowMessage@?$CRichEditCommands@VCInfoView@@@WTL@@QAEHPAUHWND__@@IIJAAJK@Z 00415990 f i ChildFrm.obj
 0001:00014cb0       ??0?$CTabbedMDIChildWindowImpl@VCChildCommon@@VCMDIWindow@WTL@@V?$CWinTraits@$0FGMPAAAA@$0EA@@ATL@@@@QAE@XZ 00415cb0 f i ChildFrm.obj
 0001:00014cd0       ?SetTabText@?$CTabbedMDIChildWindowImpl@VCChildCommon@@VCMDIWindow@WTL@@V?$CWinTraits@$0FGMPAAAA@$0EA@@ATL@@@@QAEXPBD@Z 00415cd0 f i ChildFrm.obj
 0001:00014d00       ?ProcessWindowMessage@?$CTabbedMDIChildWindowImpl@VCChildCommon@@VCMDIWindow@WTL@@V?$CWinTraits@$0FGMPAAAA@$0EA@@ATL@@@@UAEHPAUHWND__@@IIJAAJK@Z 00415d00 f i ChildFrm.obj
 0001:00014f30       ?ProcessWindowMessage@?$CMDIChildWindowImpl@VCChildCommon@@VCMDIWindow@WTL@@V?$CWinTraits@$0FGMPAAAA@$0EA@@ATL@@@WTL@@UAEHPAUHWND__@@IIJAAJK@Z 00415f30 f i ChildFrm.obj
 0001:00015170       ?UpdateLayout@?$CFrameWindowImplBase@VCMDIWindow@WTL@@V?$CWinTraits@$0FGMPAAAA@$0EA@@ATL@@@WTL@@QAEXH@Z 00416170 f i ChildFrm.obj
 0001:000151e0       ?PreTranslateMessage@?$CFrameWindowImplBase@VCHidingMDIWindow@@U?$CDockingFrameTraitsT@U?$CDockingWindowTraits@UCVC7LikeCaption@dockwins@@$0EGMAAAAA@$0IA@@dockwins@@V?$CSimpleSplitterBar@$02@2@$0GMPAAAA@$0EABAA@@dockwins@@@WTL@@QAEHPAUtagMSG@@@Z 004161e0 f i MainFrm.obj
 0001:000151e0       ?PreTranslateMessage@?$CFrameWindowImplBase@VCMDIWindow@WTL@@V?$CWinTraits@$0FGMPAAAA@$0EA@@ATL@@@WTL@@QAEHPAUtagMSG@@@Z 004161e0 f i ChildFrm.obj
 0001:00015220       ?ProcessWindowMessage@?$CFrameWindowImplBase@VCHidingMDIWindow@@U?$CDockingFrameTraitsT@U?$CDockingWindowTraits@UCVC7LikeCaption@dockwins@@$0EGMAAAAA@$0IA@@dockwins@@V?$CSimpleSplitterBar@$02@2@$0GMPAAAA@$0EABAA@@dockwins@@@WTL@@UAEHPAUHWND__@@IIJAAJK@Z 00416220 f i HydraIRC.obj
 0001:00015220       ?ProcessWindowMessage@?$CFrameWindowImplBase@VCMDIWindow@WTL@@V?$CWinTraits@$0FGMPAAAA@$0EA@@ATL@@@WTL@@UAEHPAUHWND__@@IIJAAJK@Z 00416220 f i ChildFrm.obj
 0001:000153c0       ?GetWindowProc@?$CWindowImplBaseT@VCMDIWindow@WTL@@V?$CWinTraits@$0FGMPAAAA@$0EA@@ATL@@@ATL@@UAEP6GJPAUHWND__@@IIJ@ZXZ 004163c0 f i ChildFrm.obj
 0001:000153d0       ?ProcessWindowMessage@?$CDropFilesHandler@VCChildFrame@@@@QAEHPAUHWND__@@IIJAAJK@Z 004163d0 f i ChildFrm.obj
 0001:00015430       ?MDIActivate@CMDIWindow@WTL@@QAEXPAUHWND__@@@Z 00416430 f i ChildFrm.obj
 0001:00015460       ?ProcessWindowMessage@?$CSplitterWindowImpl@V?$CHydraSplitterWindowT@$0A@@@$0A@VCWindow@ATL@@V?$CWinTraits@$0FGAAAAAA@$0A@@3@@WTL@@UAEHPAUHWND__@@IIJAAJK@Z 00416460 f i ChildFrm.obj
 0001:00015560       ?Create@?$CWindowImpl@V?$CHydraSplitterWindowT@$0A@@@VCWindow@ATL@@V?$CWinTraits@$0FGAAAAAA@$0A@@3@@ATL@@QAEPAUHWND__@@PAU3@V_U_RECT@2@PBDKKV_U_MENUorID@2@PAX@Z 00416560 f i ChildFrm.obj
 0001:00015600       ??0?$CSplitterImpl@V?$CHydraSplitterWindowT@$0A@@@$0A@@WTL@@QAE@XZ 00416600 f i ChildFrm.obj
 0001:00015730       ??0CStaticDataInitCriticalSectionLock@WTL@@QAE@XZ 00416730 f i ChildFrm.obj
 0001:00015760       ?Lock@CWindowCreateCriticalSectionLock@WTL@@QAEJXZ 00416760 f i Channel.obj
 0001:00015760       ?Lock@CStaticDataInitCriticalSectionLock@WTL@@QAEJXZ 00416760 f i ChildFrm.obj
 0001:00015780       ?SetSplitterPos@?$CSplitterImpl@V?$CHydraSplitterWindowT@$0A@@@$0A@@WTL@@QAE_NH_N@Z 00416780 f i ChildFrm.obj
 0001:000158d0       ?SetSinglePaneMode@?$CSplitterImpl@V?$CHydraSplitterWindowT@$0A@@@$0A@@WTL@@QAE_NH@Z 004168d0 f i ChildFrm.obj
 0001:000159a0       ?GetSinglePaneMode@?$CSplitterImpl@V?$CHydraSplitterWindowT@$00@@$00@WTL@@QBEHXZ 004169a0 f i ChildFrm.obj
 0001:000159a0       ?GetSinglePaneMode@?$CSplitterImpl@V?$CHydraSplitterWindowT@$0A@@@$0A@@WTL@@QBEHXZ 004169a0 f i ChildFrm.obj
 0001:000159c0       ?SetSplitterPanes@?$CSplitterImpl@V?$CHydraSplitterWindowT@$0A@@@$0A@@WTL@@QAEXPAUHWND__@@0_N@Z 004169c0 f i ChildFrm.obj
 0001:000159f0       ?SetActivePane@?$CSplitterImpl@V?$CHydraSplitterWindowT@$0A@@@$0A@@WTL@@QAE_NH@Z 004169f0 f i ChildFrm.obj
 0001:00015a40       ?ProcessWindowMessage@?$CSplitterWindowImpl@V?$CHydraSplitterWindowT@$00@@$00VCWindow@ATL@@V?$CWinTraits@$0FGAAAAAA@$0A@@3@@WTL@@UAEHPAUHWND__@@IIJAAJK@Z 00416a40 f i ChildFrm.obj
 0001:00015b40       ?Create@?$CWindowImpl@V?$CHydraSplitterWindowT@$00@@VCWindow@ATL@@V?$CWinTraits@$0FGAAAAAA@$0A@@3@@ATL@@QAEPAUHWND__@@PAU3@V_U_RECT@2@PBDKKV_U_MENUorID@2@PAX@Z 00416b40 f i ChildFrm.obj
 0001:00015be0       ??0?$CSplitterImpl@V?$CHydraSplitterWindowT@$00@@$00@WTL@@QAE@XZ 00416be0 f i ChildFrm.obj
 0001:00015d10       ?SetSplitterPos@?$CSplitterImpl@V?$CHydraSplitterWindowT@$00@@$00@WTL@@QAE_NH_N@Z 00416d10 f i ChildFrm.obj
 0001:00015e70       ?SetSinglePaneMode@?$CSplitterImpl@V?$CHydraSplitterWindowT@$00@@$00@WTL@@QAE_NH@Z 00416e70 f i ChildFrm.obj
 0001:00015f40       ?SetSplitterExtendedStyle@?$CSplitterImpl@V?$CHydraSplitterWindowT@$0A@@@$0A@@WTL@@QAEKKK@Z 00416f40 f i ChildFrm.obj
 0001:00015f40       ?SetSplitterExtendedStyle@?$CSplitterImpl@V?$CHydraSplitterWindowT@$00@@$00@WTL@@QAEKKK@Z 00416f40 f i ChildFrm.obj
 0001:00015f90       ?SetSplitterPanes@?$CSplitterImpl@V?$CHydraSplitterWindowT@$00@@$00@WTL@@QAEXPAUHWND__@@0_N@Z 00416f90 f i ChildFrm.obj
 0001:00015fc0       ?GetActivePane@?$CSplitterImpl@V?$CHydraSplitterWindowT@$0A@@@$0A@@WTL@@QBEHXZ 00416fc0 f i ChildFrm.obj
 0001:00015fc0       ?GetActivePane@?$CSplitterImpl@V?$CHydraSplitterWindowT@$00@@$00@WTL@@QBEHXZ 00416fc0 f i ChildFrm.obj
 0001:00016030       ??0?$CMDIChildWindowImpl@VCChildCommon@@VCMDIWindow@WTL@@V?$CWinTraits@$0FGMPAAAA@$0EA@@ATL@@@WTL@@QAE@XZ 00417030 f i ChildFrm.obj
 0001:00016050       ??0CVC7LikeCaption@dockwins@@QAE@XZ 00417050 f i ChildFrm.obj
 0001:00016070       ?UpdateLayout@?$CPaneContainerImpl@VCHydraPaneContainer@@VCWindow@ATL@@V?$CWinTraits@$0FGAAAAAA@$0A@@3@@WTL@@QAEXXZ 00417070 f i ChildFrm.obj
 0001:000160c0       ?Create@?$CWindowImpl@VCHydraPaneContainer@@VCWindow@ATL@@V?$CWinTraits@$0FGAAAAAA@$0A@@3@@ATL@@QAEPAUHWND__@@PAU3@V_U_RECT@2@PBDKKV_U_MENUorID@2@PAX@Z 004170c0 f i ChildFrm.obj
 0001:00016160       ??0CFileDialog@WTL@@QAE@HPBD0K0PAUHWND__@@@Z 00417160 f i ChildFrm.obj
 0001:000161a0       ??1CInfoView@@UAE@XZ       004171a0 f i ChildFrm.obj
 0001:000161a0       ??1?$CTVEditT@VCWindow@ATL@@@@UAE@XZ 004171a0 f i FavoritesDlg.obj
 0001:000161a0       ??1?$CSplitterWindowImpl@V?$CHydraSplitterWindowT@$00@@$00VCWindow@ATL@@V?$CWinTraits@$0FGAAAAAA@$0A@@3@@WTL@@UAE@XZ 004171a0 f i ChildFrm.obj
 0001:000161a0       ??1?$CAutoHidePaneImpl@V?$CAutoHideManager@U?$CDockingWindowTraits@UCVC7LikeCaption@dockwins@@$0EGMAAAAA@$0IA@@dockwins@@@dockwins@@VCWindow@ATL@@U?$CDockingWindowTraits@UCVC7LikeCaption@dockwins@@$0EGMAAAAA@$0IA@@2@@dockwins@@UAE@XZ 004171a0 f i HydraIRC.obj
 0001:000161a0       ??1CAboutDlg@@UAE@XZ       004171a0 f i MainFrm.obj
 0001:000161a0       ??1?$CDockingWindowBaseImpl@VCChannelMonitorView@@VCWindow@ATL@@U?$CBoxedDockingWindowTraits@VCVC7LikeExCaption@dockwins@@V?$CTabDockingBox@U?$CDockingBoxTraits@VCVC7LikeExCaption@dockwins@@$0IGMPAAAA@$0IA@@dockwins@@@2@$0JGMPAAAA@$0IA@@dockwins@@@dockwins@@UAE@XZ 004171a0 f i HydraIRC.obj
 0001:000161a0       ??1?$CDockingWindowBaseImpl@VCEventLogView@@VCWindow@ATL@@U?$CBoxedDockingWindowTraits@VCVC7LikeExCaption@dockwins@@V?$CTabDockingBox@U?$CDockingBoxTraits@VCVC7LikeExCaption@dockwins@@$0IGMPAAAA@$0IA@@dockwins@@@2@$0JGMPAAAA@$0IA@@dockwins@@@dockwins@@UAE@XZ 004171a0 f i EventLogFrm.obj
 0001:000161a0       ??1CFileDialog@WTL@@UAE@XZ 004171a0 f i ChildFrm.obj
 0001:000161a0       ??1?$CSplitterWindowImpl@V?$CHydraSplitterWindowT@$0A@@@$0A@VCWindow@ATL@@V?$CWinTraits@$0FGAAAAAA@$0A@@3@@WTL@@UAE@XZ 004171a0 f i ChildFrm.obj
 0001:000161a0       ??1?$CDockingWindowBaseImpl@VCServerListView@@VCWindow@ATL@@U?$CBoxedDockingWindowTraits@UCVC7LikeCaption@dockwins@@V?$CTabDockingBox@U?$CDockingBoxTraits@UCVC7LikeCaption@dockwins@@$0IGMPAAAA@$0IA@@dockwins@@@2@$0JGMPAAAA@$0IA@@dockwins@@@dockwins@@UAE@XZ 004171a0 f i HydraIRC.obj
 0001:000161a0       ??1?$CColorDialogImpl@VCColorDialog@WTL@@@WTL@@UAE@XZ 004171a0 f i EditNotificationDlg.obj
 0001:000161a0       ??1?$CDockingWindowBaseImpl@VCUserListView@@VCWindow@ATL@@U?$CBoxedDockingWindowTraits@UCVC7LikeCaption@dockwins@@V?$CTabDockingBox@U?$CDockingBoxTraits@UCVC7LikeCaption@dockwins@@$0IGMPAAAA@$0IA@@dockwins@@@2@$0JGMPAAAA@$0IA@@dockwins@@@dockwins@@UAE@XZ 004171a0 f i ChildFrm.obj
 0001:000161a0       ??1CPropertyEditWindow@@UAE@XZ 004171a0 f i Prefs_MiscPage.obj
 0001:000161a0       ??1?$CDockingWindowBaseImpl@VCTextQueueView@@VCWindow@ATL@@U?$CBoxedDockingWindowTraits@VCVC7LikeExCaption@dockwins@@V?$CTabDockingBox@U?$CDockingBoxTraits@VCVC7LikeExCaption@dockwins@@$0IGMPAAAA@$0IA@@dockwins@@@2@$0JGMPAAAA@$0IA@@dockwins@@@dockwins@@UAE@XZ 004171a0 f i TextQueueFrm.obj
 0001:000161a0       ??1?$CDockingWindowBaseImpl@V?$CTabDockingBox@U?$CDockingBoxTraits@UCVC7LikeCaption@dockwins@@$0IGMPAAAA@$0IA@@dockwins@@@dockwins@@VCWindow@ATL@@U?$CDockingBoxTraits@UCVC7LikeCaption@dockwins@@$0IGMPAAAA@$0IA@@2@@dockwins@@UAE@XZ 004171a0 f i ChildFrm.obj
 0001:000161a0       ??1?$CDockingWindowBaseImpl@VCServerMonitorView@@VCWindow@ATL@@U?$CBoxedDockingWindowTraits@VCVC7LikeExCaption@dockwins@@V?$CTabDockingBox@U?$CDockingBoxTraits@VCVC7LikeExCaption@dockwins@@$0IGMPAAAA@$0IA@@dockwins@@@2@$0JGMPAAAA@$0IA@@dockwins@@@dockwins@@UAE@XZ 004171a0 f i HydraIRC.obj
 0001:000161a0       ??1?$CPaneContainerImpl@VCHydraPaneContainer@@VCWindow@ATL@@V?$CWinTraits@$0FGAAAAAA@$0A@@3@@WTL@@UAE@XZ 004171a0 f i ChildFrm.obj
 0001:000161a0       ??1?$CDockingWindowBaseImpl@VCOutputView@@VCWindow@ATL@@U?$CBoxedDockingWindowTraits@VCVC7LikeExCaption@dockwins@@V?$CTabDockingBox@U?$CDockingBoxTraits@VCVC7LikeExCaption@dockwins@@$0IGMPAAAA@$0IA@@dockwins@@@2@$0JGMPAAAA@$0IA@@dockwins@@@dockwins@@UAE@XZ 004171a0 f i HydraIRC.obj
 0001:000161a0       ??1?$CDockingWindowBaseImpl@V?$CTabDockingBox@U?$CDockingBoxTraits@VCVC7LikeExCaption@dockwins@@$0IGMPAAAA@$0IA@@dockwins@@@dockwins@@VCWindow@ATL@@U?$CDockingBoxTraits@VCVC7LikeExCaption@dockwins@@$0IGMPAAAA@$0IA@@2@@dockwins@@UAE@XZ 004171a0 f i EventLogFrm.obj
 0001:000161a0       ??1CUserIdentityDlg@@UAE@XZ 004171a0 f i ConnectDlg.obj
 0001:000161a0       ??1?$CDockingWindowBaseImpl@VCTransfersView@@VCWindow@ATL@@U?$CBoxedDockingWindowTraits@VCVC7LikeExCaption@dockwins@@V?$CTabDockingBox@U?$CDockingBoxTraits@VCVC7LikeExCaption@dockwins@@$0IGMPAAAA@$0IA@@dockwins@@@2@$0JGMPAAAA@$0IA@@dockwins@@@dockwins@@UAE@XZ 004171a0 f i Transfers.obj
 0001:000161c0       ?GetWndClassInfo@?$CWindowImpl@VCHeaderView@@VCWindow@ATL@@V?$CWinTraits@$0FGAAAAAA@$0A@@3@@ATL@@SAAAU_ATL_WNDCLASSINFOA@2@XZ 004171c0 f i ChildFrm.obj
 0001:000161d0       ?OnEditRedo@?$CRichEditCommands@VCIRCEditCtrl@@@WTL@@QAEJGGPAUHWND__@@AAH@Z 004171d0 f i HeaderView.obj
 0001:000161d0       ?OnEditRedo@?$CRichEditCommands@VCTextInputView@@@WTL@@QAEJGGPAUHWND__@@AAH@Z 004171d0 f i ChildFrm.obj
 0001:000161d0       ?OnEditRedo@?$CRichEditCommands@VCInfoView@@@WTL@@QAEJGGPAUHWND__@@AAH@Z 004171d0 f i ChildFrm.obj
 0001:00016210       ?OnEditClear@?$CEditCommands@VCIRCEditCtrl@@@WTL@@QAEJGGPAUHWND__@@AAH@Z 00417210 f i HeaderView.obj
 0001:00016210       ?OnEditClear@?$CEditCommands@VCTextInputView@@@WTL@@QAEJGGPAUHWND__@@AAH@Z 00417210 f i ChildFrm.obj
 0001:00016210       ?OnEditClear@?$CEditCommands@VCInfoView@@@WTL@@QAEJGGPAUHWND__@@AAH@Z 00417210 f i ChildFrm.obj
 0001:00016250       ?AtlLoadIcon@WTL@@YAPAUHICON__@@V_U_STRINGorID@ATL@@@Z 00417250 f i ChildFrm.obj
 0001:00016270       ?OnDockingBoxMessage@?$CBoxedDockingWindowBaseImpl@VCServerListView@@VCWindow@ATL@@U?$CBoxedDockingWindowTraits@UCVC7LikeCaption@dockwins@@V?$CTabDockingBox@U?$CDockingBoxTraits@UCVC7LikeCaption@dockwins@@$0IGMPAAAA@$0IA@@dockwins@@@2@$0JGMPAAAA@$0IA@@dockwins@@@dockwins@@IAEJIIJAAH@Z 00417270 f i HydraIRC.obj
 0001:00016270       ?OnDockingBoxMessage@?$CBoxedDockingWindowBaseImpl@VCUserListView@@VCWindow@ATL@@U?$CBoxedDockingWindowTraits@UCVC7LikeCaption@dockwins@@V?$CTabDockingBox@U?$CDockingBoxTraits@UCVC7LikeCaption@dockwins@@$0IGMPAAAA@$0IA@@dockwins@@@2@$0JGMPAAAA@$0IA@@dockwins@@@dockwins@@IAEJIIJAAH@Z 00417270 f i ChildFrm.obj
 0001:000163c0       ?IsIconic@CWindow@ATL@@QBEHXZ 004173c0 f i ChildFrm.obj
 0001:000163e0       ?IsZoomed@CWindow@ATL@@QBEHXZ 004173e0 f i ChildFrm.obj
 0001:00016400       ?SendMessageToDescendants@CWindow@ATL@@QAEXIIJH@Z 00417400 f i ChildFrm.obj
 0001:00016490       ?IsWindowEnabled@CWindow@ATL@@QBEHXZ 00417490 f i ChildFrm.obj
 0001:000164b0       ?OffsetRect@CRect@WTL@@QAEXHH@Z 004174b0 f i ChildFrm.obj
 0001:000164b0       ??YCRect@WTL@@QAEXUtagPOINT@@@Z 004174b0 f i ChildFrm.obj
 0001:000164b0       ??YCRect@WTL@@QAEXUtagSIZE@@@Z 004174b0 f i HydraIRC.obj
 0001:000164d0       ??ZCRect@WTL@@QAEXUtagPOINT@@@Z 004174d0 f i ChildFrm.obj
 0001:00016500       ??0CWindowDC@WTL@@QAE@PAUHWND__@@@Z 00417500 f i ChildFrm.obj
 0001:00016540       ?GetTopLevelParent@CWindow@ATL@@QBE?AV12@XZ 00417540 f i ChildFrm.obj
 0001:00016590       ?SetRectEmpty@CRect@WTL@@QAEXXZ 00417590 f i ChildFrm.obj
 0001:000165b0       ?ScreenToClient@CWindow@ATL@@QBEHPAUtagPOINT@@@Z 004175b0 f i ChildFrm.obj
 0001:000165d0       ?OnDockStateChanged@?$CDockingWindowBaseImpl@VCUserListView@@VCWindow@ATL@@U?$CBoxedDockingWindowTraits@UCVC7LikeCaption@dockwins@@V?$CTabDockingBox@U?$CDockingBoxTraits@UCVC7LikeCaption@dockwins@@$0IGMPAAAA@$0IA@@dockwins@@@2@$0JGMPAAAA@$0IA@@dockwins@@@dockwins@@QAEJIIJAAH@Z 004175d0 f i ChildFrm.obj
 0001:00016650       ?Create@?$CWindowImpl@VCUserListView@@VCWindow@ATL@@U?$CBoxedDockingWindowTraits@UCVC7LikeCaption@dockwins@@V?$CTabDockingBox@U?$CDockingBoxTraits@UCVC7LikeCaption@dockwins@@$0IGMPAAAA@$0IA@@dockwins@@@2@$0JGMPAAAA@$0IA@@dockwins@@@ATL@@QAEPAUHWND__@@PAU3@V_U_RECT@2@PBDKKV_U_MENUorID@2@PAX@Z 00417650 f i ChildFrm.obj
 0001:000166f0       ?GetWndClassInfo@CUserListView@@SAAAU_ATL_WNDCLASSINFOA@ATL@@XZ 004176f0 f i ChildFrm.obj
 0001:00016700       ?OnEditClearAll@?$CEditCommands@VCTextInputView@@@WTL@@QAEJGGPAUHWND__@@AAH@Z 00417700 f i ChildFrm.obj
 0001:00016700       ?OnEditClearAll@?$CEditCommands@VCIRCEditCtrl@@@WTL@@QAEJGGPAUHWND__@@AAH@Z 00417700 f i HeaderView.obj
 0001:00016700       ?OnEditClearAll@?$CEditCommands@VCInfoView@@@WTL@@QAEJGGPAUHWND__@@AAH@Z 00417700 f i ChildFrm.obj
 0001:00016750       ?OnEditCopy@?$CEditCommands@VCInfoView@@@WTL@@QAEJGGPAUHWND__@@AAH@Z 00417750 f i ChildFrm.obj
 0001:00016750       ?OnEditCopy@?$CEditCommands@VCTextInputView@@@WTL@@QAEJGGPAUHWND__@@AAH@Z 00417750 f i ChildFrm.obj
 0001:00016750       ?OnEditCopy@?$CEditCommands@VCIRCEditCtrl@@@WTL@@QAEJGGPAUHWND__@@AAH@Z 00417750 f i HeaderView.obj
 0001:00016790       ?OnEditSelectAll@?$CEditCommands@VCIRCEditCtrl@@@WTL@@QAEJGGPAUHWND__@@AAH@Z 00417790 f i HeaderView.obj
 0001:00016790       ?OnEditSelectAll@?$CEditCommands@VCInfoView@@@WTL@@QAEJGGPAUHWND__@@AAH@Z 00417790 f i ChildFrm.obj
 0001:00016790       ?OnEditSelectAll@?$CEditCommands@VCTextInputView@@@WTL@@QAEJGGPAUHWND__@@AAH@Z 00417790 f i ChildFrm.obj
 0001:000167d0       ?OnMDIActivate@?$CTabbedMDIChildWindowImpl@VCChildCommon@@VCMDIWindow@WTL@@V?$CWinTraits@$0FGMPAAAA@$0EA@@ATL@@@@QAEJIIJAAH@Z 004177d0 f i ChildFrm.obj
 0001:00016820       ?OnSize@?$CTabbedMDIChildWindowImpl@VCChildCommon@@VCMDIWindow@WTL@@V?$CWinTraits@$0FGMPAAAA@$0EA@@ATL@@@@QAEJIIJAAH@Z 00417820 f i ChildFrm.obj
 0001:000168b0       ?OnMouseActivate@?$CTabbedMDIChildWindowImpl@VCChildCommon@@VCMDIWindow@WTL@@V?$CWinTraits@$0FGMPAAAA@$0EA@@ATL@@@@QAEJIIJAAH@Z 004178b0 f i ChildFrm.obj
 0001:00016920       ?OnSetFocus@?$CTabbedMDIChildWindowImpl@VCChildCommon@@VCMDIWindow@WTL@@V?$CWinTraits@$0FGMPAAAA@$0EA@@ATL@@@@QAEJIIJAAH@Z 00417920 f i ChildFrm.obj
 0001:00016970       ?OnShowTabContextMenu@?$CTabbedMDIChildWindowImpl@VCChildCommon@@VCMDIWindow@WTL@@V?$CWinTraits@$0FGMPAAAA@$0EA@@ATL@@@@QAEJIIJAAH@Z 00417970 f i ChildFrm.obj
 0001:00016a40       ?GetSystemMenu@CWindow@ATL@@QBEPAUHMENU__@@H@Z 00417a40 f i ChildFrm.obj
 0001:00016a60       ?OnSetText@?$CTabbedMDIChildWindowImpl@VCChildCommon@@VCMDIWindow@WTL@@V?$CWinTraits@$0FGMPAAAA@$0EA@@ATL@@@@QAEJIIJAAH@Z 00417a60 f i ChildFrm.obj
 0001:00016a60       ?OnSysKeyDown@?$CCommandBarCtrlImpl@VCTabbedMDICommandBarCtrl@@VCCommandBarCtrlBase@WTL@@V?$CWinTraits@$0FGAAAAAA@$0A@@ATL@@@WTL@@QAEJIIJAAH@Z 00417a60 f i HydraIRC.obj
 0001:00016a60       ?OnSysChar@?$CCommandBarCtrlImpl@VCTabbedMDICommandBarCtrl@@VCCommandBarCtrlBase@WTL@@V?$CWinTraits@$0FGAAAAAA@$0A@@ATL@@@WTL@@QAEJIIJAAH@Z 00417a60 f i HydraIRC.obj
 0001:00016a60       ?OnRButtonUp@?$CCustomTabCtrl@V?$CDotNetTabCtrl@VCTabViewTabItem@@@@VCTabViewTabItem@@VCWindow@ATL@@V?$CWinTraits@$0FGAAEAAA@$0A@@4@@@QAEJIIJAAH@Z 00417a60 f i HydraIRC.obj
 0001:00016a60       ?OnDestroy@?$CTabbedMDIClient@V?$CDotNetTabCtrl@VCTabViewTabItem@@@@V?$CMDITabOwner@V?$CDotNetTabCtrl@VCTabViewTabItem@@@@@@@@QAEJIIJAAH@Z 00417a60 f i HydraIRC.obj
 0001:00016a60       ?OnRButtonUp@?$CCustomTabCtrl@VCFlyingTabCtrl@dockwins@@VCTabViewTabItem@@VCWindow@ATL@@V?$CWinTraits@$0FGAAEAAA@$0A@@5@@@QAEJIIJAAH@Z 00417a60 f i ChildFrm.obj
 0001:00016a60       ?OnMButtonUp@?$CCustomTabCtrl@VCFlyingTabCtrl@dockwins@@VCTabViewTabItem@@VCWindow@ATL@@V?$CWinTraits@$0FGAAEAAA@$0A@@5@@@QAEJIIJAAH@Z 00417a60 f i ChildFrm.obj
 0001:00016a60       ?OnMButtonUp@?$CCustomTabCtrl@V?$CDotNetTabCtrl@VCTabViewTabItem@@@@VCTabViewTabItem@@VCWindow@ATL@@V?$CWinTraits@$0FGAAEAAA@$0A@@4@@@QAEJIIJAAH@Z 00417a60 f i HydraIRC.obj
 0001:00016a60       ?OnSaveModified@?$CTabbedMDIChildWindowImpl@VCChildCommon@@VCMDIWindow@WTL@@V?$CWinTraits@$0FGMPAAAA@$0EA@@ATL@@@@QAEJIIJAAH@Z 00417a60 f i ChildFrm.obj
 0001:00016a60       ?OnSysKeyUp@?$CCommandBarCtrlImpl@VCTabbedMDICommandBarCtrl@@VCCommandBarCtrlBase@WTL@@V?$CWinTraits@$0FGAAAAAA@$0A@@ATL@@@WTL@@QAEJIIJAAH@Z 00417a60 f i HydraIRC.obj
 0001:00016a80       ?OnCloseWithNoPrompt@?$CTabbedMDIChildWindowImpl@VCChildCommon@@VCMDIWindow@WTL@@V?$CWinTraits@$0FGMPAAAA@$0EA@@ATL@@@@QAEJIIJAAH@Z 00417a80 f i ChildFrm.obj
 0001:00016aa0       ?OnSize@?$CMDIChildWindowImpl@VCChildCommon@@VCMDIWindow@WTL@@V?$CWinTraits@$0FGMPAAAA@$0EA@@ATL@@@WTL@@QAEJIIJAAH@Z 00417aa0 f i ChildFrm.obj
 0001:00016ae0       ?OnWindowPosChanged@?$CMDIChildWindowImpl@VCChildCommon@@VCMDIWindow@WTL@@V?$CWinTraits@$0FGMPAAAA@$0EA@@ATL@@@WTL@@QAEJIIJAAH@Z 00417ae0 f i ChildFrm.obj
 0001:00016b80       ?GetExStyle@CWindow@ATL@@QBEKXZ 00417b80 f i ChildFrm.obj
 0001:00016ba0       ?OnMouseActivate@?$CMDIChildWindowImpl@VCChildCommon@@VCMDIWindow@WTL@@V?$CWinTraits@$0FGMPAAAA@$0EA@@ATL@@@WTL@@QAEJIIJAAH@Z 00417ba0 f i ChildFrm.obj
 0001:00016c00       ?OnMenuSelect@?$CMDIChildWindowImpl@VCChildCommon@@VCMDIWindow@WTL@@V?$CWinTraits@$0FGMPAAAA@$0EA@@ATL@@@WTL@@QAEJIIJAAH@Z 00417c00 f i ChildFrm.obj
 0001:00016c30       ?OnMDIActivate@?$CMDIChildWindowImpl@VCChildCommon@@VCMDIWindow@WTL@@V?$CWinTraits@$0FGMPAAAA@$0EA@@ATL@@@WTL@@QAEJIIJAAH@Z 00417c30 f i ChildFrm.obj
 0001:00016c90       ?SetMDIFrameMenu@CMDIWindow@WTL@@QAEXXZ 00417c90 f i ChildFrm.obj
 0001:00016ce0       ?MDISetMenu@CMDIWindow@WTL@@QAEPAUHMENU__@@PAU3@0@Z 00417ce0 f i ChildFrm.obj
 0001:00016d10       ?MDIRefreshMenu@CMDIWindow@WTL@@QAEPAUHMENU__@@XZ 00417d10 f i ChildFrm.obj
 0001:00016d40       ?GetStandardWindowMenu@CMDIWindow@WTL@@SAPAUHMENU__@@PAU3@@Z 00417d40 f i ChildFrm.obj
 0001:00016ef0       ?OnDestroy@?$CMDIChildWindowImpl@VCChildCommon@@VCMDIWindow@WTL@@V?$CWinTraits@$0FGMPAAAA@$0EA@@ATL@@@WTL@@QAEJIIJAAH@Z 00417ef0 f i ChildFrm.obj
 0001:00016f40       ?OnReBarAutoSize@?$CMDIChildWindowImpl@VCChildCommon@@VCMDIWindow@WTL@@V?$CWinTraits@$0FGMPAAAA@$0EA@@ATL@@@WTL@@QAEJHPAUtagNMHDR@@AAH@Z 00417f40 f i ChildFrm.obj
 0001:00016f70       ??0?$CFrameWindowImplBase@VCMDIWindow@WTL@@V?$CWinTraits@$0FGMPAAAA@$0EA@@ATL@@@WTL@@QAE@XZ 00417f70 f i ChildFrm.obj
 0001:00016fb0       ?UpdateBarsPosition@?$CFrameWindowImplBase@VCHidingMDIWindow@@U?$CDockingFrameTraitsT@U?$CDockingWindowTraits@UCVC7LikeCaption@dockwins@@$0EGMAAAAA@$0IA@@dockwins@@V?$CSimpleSplitterBar@$02@2@$0GMPAAAA@$0EABAA@@dockwins@@@WTL@@QAEXAAUtagRECT@@H@Z 00417fb0 f i HydraIRC.obj
 0001:00016fb0       ?UpdateBarsPosition@?$CFrameWindowImplBase@VCMDIWindow@WTL@@V?$CWinTraits@$0FGMPAAAA@$0EA@@ATL@@@WTL@@QAEXAAUtagRECT@@H@Z 00417fb0 f i ChildFrm.obj
 0001:000170b0       ?OnMenuSelect@?$CFrameWindowImplBase@VCMDIWindow@WTL@@V?$CWinTraits@$0FGMPAAAA@$0EA@@ATL@@@WTL@@QAEJIIJAAH@Z 004180b0 f i ChildFrm.obj
 0001:000170b0       ?OnMenuSelect@?$CFrameWindowImplBase@VCHidingMDIWindow@@U?$CDockingFrameTraitsT@U?$CDockingWindowTraits@UCVC7LikeCaption@dockwins@@$0EGMAAAAA@$0IA@@dockwins@@V?$CSimpleSplitterBar@$02@2@$0GMPAAAA@$0EABAA@@dockwins@@@WTL@@QAEJIIJAAH@Z 004180b0 f i HydraIRC.obj
 0001:000172b0       ?OnDestroy@?$CFrameWindowImplBase@VCMDIWindow@WTL@@V?$CWinTraits@$0FGMPAAAA@$0EA@@ATL@@@WTL@@QAEJIIJAAH@Z 004182b0 f i ChildFrm.obj
 0001:000172b0       ?OnDestroy@?$CFrameWindowImplBase@VCHidingMDIWindow@@U?$CDockingFrameTraitsT@U?$CDockingWindowTraits@UCVC7LikeCaption@dockwins@@$0EGMAAAAA@$0IA@@dockwins@@V?$CSimpleSplitterBar@$02@2@$0GMPAAAA@$0EABAA@@dockwins@@@WTL@@QAEJIIJAAH@Z 004182b0 f i HydraIRC.obj
 0001:000172f0       ?OnToolTipTextA@?$CFrameWindowImplBase@VCMDIWindow@WTL@@V?$CWinTraits@$0FGMPAAAA@$0EA@@ATL@@@WTL@@QAEJHPAUtagNMHDR@@AAH@Z 004182f0 f i ChildFrm.obj
 0001:000172f0       ?OnToolTipTextA@?$CFrameWindowImplBase@VCHidingMDIWindow@@U?$CDockingFrameTraitsT@U?$CDockingWindowTraits@UCVC7LikeCaption@dockwins@@$0EGMAAAAA@$0IA@@dockwins@@V?$CSimpleSplitterBar@$02@2@$0GMPAAAA@$0EABAA@@dockwins@@@WTL@@QAEJHPAUtagNMHDR@@AAH@Z 004182f0 f i HydraIRC.obj
 0001:000173f0       ?strncpyW_x@SecureHelper@WTL@@YAHPA_WIPB_WI@Z 004183f0 f i ChildFrm.obj
 0001:000174c0       ?Update@CDWSettings@dockwins@@QBEXXZ 004184c0 f i ChildFrm.obj
 0001:000174e0       ?Update@CSettings@CDWSettings@dockwins@@QAEXXZ 004184e0 f i ChildFrm.obj
 0001:000176c0       ?IgnoreSystemSettings@CDWStyle@dockwins@@QBE_NXZ 004186c0 f i ChildFrm.obj
 0001:000176e0       ?Set@CDWStyle@dockwins@@QAE?AV12@KABV12@@Z 004186e0 f i ChildFrm.obj
 0001:00017720       ?CreateCoolCtrlTextColor@CSettings@CDWSettings@dockwins@@SAKXZ 00418720 f i ChildFrm.obj
 0001:000177f0       ?CreateCoolCtrlBackgroundColor@CSettings@CDWSettings@dockwins@@SAKXZ 004187f0 f i ChildFrm.obj
 0001:00017a00       ?Dock@CDocker@dockwins@@QBE_NPAUtagDFDOCKRECT@2@@Z 00418a00 f i ChildFrm.obj
 0001:00017a40       ?Undock@CDocker@dockwins@@QBE_NPAUtagDFMHDR@2@@Z 00418a40 f i ChildFrm.obj
 0001:00017a80       ?OnAction@CCaptionBase@dockwins@@QAE_NPAUHWND__@@I@Z 00418a80 f i ChildFrm.obj
 0001:00017aa0       ?HotTrack@CCaptionBase@dockwins@@QAE_NPAUHWND__@@I@Z 00418aa0 f i ChildFrm.obj
 0001:00017ab0       ?OnDropFiles@?$CDropFilesHandler@VCChildFrame@@@@QAEJIIJAAH@Z 00418ab0 f i ChildFrm.obj
 0001:00017c40       ?GetWndClassInfo@?$CHydraSplitterWindowT@$0A@@@SAAAU_ATL_WNDCLASSINFOA@ATL@@XZ 00418c40 f i ChildFrm.obj
 0001:00017c50       ?OnSize@?$CSplitterWindowImpl@V?$CHydraSplitterWindowT@$0A@@@$0A@VCWindow@ATL@@V?$CWinTraits@$0FGAAAAAA@$0A@@3@@WTL@@QAEJIIJAAH@Z 00418c50 f i ChildFrm.obj
 0001:00017c80       ?ProcessWindowMessage@?$CSplitterImpl@V?$CHydraSplitterWindowT@$0A@@@$0A@@WTL@@QAEHPAUHWND__@@IIJAAJK@Z 00418c80 f i ChildFrm.obj
 0001:00017f80       ?UpdateSplitterLayout@?$CSplitterImpl@V?$CHydraSplitterWindowT@$0A@@@$0A@@WTL@@QAEXXZ 00418f80 f i ChildFrm.obj
 0001:00018100       ?InvalidateRect@CWindow@ATL@@QAEHPBUtagRECT@@H@Z 00419100 f i ChildFrm.obj
 0001:00018130       ?IsProportional@?$CSplitterImpl@V?$CHydraSplitterWindowT@$0A@@@$0A@@WTL@@QBE_NXZ 00419130 f i ChildFrm.obj
 0001:00018130       ?IsProportional@?$CSplitterImpl@V?$CHydraSplitterWindowT@$00@@$00@WTL@@QBE_NXZ 00419130 f i ChildFrm.obj
 0001:00018150       ?StoreProportionalPos@?$CSplitterImpl@V?$CHydraSplitterWindowT@$0A@@@$0A@@WTL@@QAEXXZ 00419150 f i ChildFrm.obj
 0001:000181d0       ?StoreRightAlignPos@?$CSplitterImpl@V?$CHydraSplitterWindowT@$0A@@@$0A@@WTL@@QAEXXZ 004191d0 f i ChildFrm.obj
 0001:00018240       ?GetWndClassInfo@?$CHydraSplitterWindowT@$00@@SAAAU_ATL_WNDCLASSINFOA@ATL@@XZ 00419240 f i ChildFrm.obj
 0001:00018250       ?OnSize@?$CSplitterWindowImpl@V?$CHydraSplitterWindowT@$00@@$00VCWindow@ATL@@V?$CWinTraits@$0FGAAAAAA@$0A@@3@@WTL@@QAEJIIJAAH@Z 00419250 f i ChildFrm.obj
 0001:00018280       ?ProcessWindowMessage@?$CSplitterImpl@V?$CHydraSplitterWindowT@$00@@$00@WTL@@QAEHPAUHWND__@@IIJAAJK@Z 00419280 f i ChildFrm.obj
 0001:00018580       ?UpdateSplitterLayout@?$CSplitterImpl@V?$CHydraSplitterWindowT@$00@@$00@WTL@@QAEXXZ 00419580 f i ChildFrm.obj
 0001:00018700       ?StoreProportionalPos@?$CSplitterImpl@V?$CHydraSplitterWindowT@$00@@$00@WTL@@QAEXXZ 00419700 f i ChildFrm.obj
 0001:00018790       ?IsRightAligned@?$CSplitterImpl@V?$CHydraSplitterWindowT@$0A@@@$0A@@WTL@@QBE_NXZ 00419790 f i ChildFrm.obj
 0001:00018790       ?IsRightAligned@?$CSplitterImpl@V?$CHydraSplitterWindowT@$00@@$00@WTL@@QBE_NXZ 00419790 f i ChildFrm.obj
 0001:000187b0       ?StoreRightAlignPos@?$CSplitterImpl@V?$CHydraSplitterWindowT@$00@@$00@WTL@@QAEXXZ 004197b0 f i ChildFrm.obj
 0001:00018830       ?Undo@?$CRichEditCtrlT@VCWindow@ATL@@@WTL@@QAEHXZ 00419830 f i ChildFrm.obj
 0001:00018850       ?Copy@?$CRichEditCtrlT@VCWindow@ATL@@@WTL@@QAEXXZ 00419850 f i ChildFrm.obj
 0001:00018870       ?Cut@?$CRichEditCtrlT@VCWindow@ATL@@@WTL@@QAEXXZ 00419870 f i ChildFrm.obj
 0001:00018890       ?Paste@?$CRichEditCtrlT@VCWindow@ATL@@@WTL@@QAEXXZ 00419890 f i ChildFrm.obj
 0001:000188b0       ?Redo@?$CRichEditCtrlT@VCWindow@ATL@@@WTL@@QAEHXZ 004198b0 f i ChildFrm.obj
 0001:000188d0       ?ClientToScreen@CWindow@ATL@@QBEHPAUtagRECT@@@Z 004198d0 f i ChildFrm.obj
 0001:00018910       ?OnDock@?$CBoxedDockingWindowImpl@VCServerListView@@VCWindow@ATL@@U?$CBoxedDockingWindowTraits@UCVC7LikeCaption@dockwins@@V?$CTabDockingBox@U?$CDockingBoxTraits@UCVC7LikeCaption@dockwins@@$0IGMPAAAA@$0IA@@dockwins@@@2@$0JGMPAAAA@$0IA@@dockwins@@@dockwins@@QAEJPAUtagDFDOCKRECT@2@@Z 00419910 f i HydraIRC.obj
 0001:00018910       ?OnDock@?$CBoxedDockingWindowImpl@VCUserListView@@VCWindow@ATL@@U?$CBoxedDockingWindowTraits@UCVC7LikeCaption@dockwins@@V?$CTabDockingBox@U?$CDockingBoxTraits@UCVC7LikeCaption@dockwins@@$0IGMPAAAA@$0IA@@dockwins@@@2@$0JGMPAAAA@$0IA@@dockwins@@@dockwins@@QAEJPAUtagDFDOCKRECT@2@@Z 00419910 f i ChildFrm.obj
 0001:00018a00       ?OnSetDockingPosition@?$CBoxedDockingWindowImpl@VCUserListView@@VCWindow@ATL@@U?$CBoxedDockingWindowTraits@UCVC7LikeCaption@dockwins@@V?$CTabDockingBox@U?$CDockingBoxTraits@UCVC7LikeCaption@dockwins@@$0IGMPAAAA@$0IA@@dockwins@@@2@$0JGMPAAAA@$0IA@@dockwins@@@dockwins@@QAE_NPAUtagDFDOCKPOS@2@@Z 00419a00 f i ChildFrm.obj
 0001:00018a00       ?OnSetDockingPosition@?$CBoxedDockingWindowImpl@VCServerListView@@VCWindow@ATL@@U?$CBoxedDockingWindowTraits@UCVC7LikeCaption@dockwins@@V?$CTabDockingBox@U?$CDockingBoxTraits@UCVC7LikeCaption@dockwins@@$0IGMPAAAA@$0IA@@dockwins@@@2@$0JGMPAAAA@$0IA@@dockwins@@@dockwins@@QAE_NPAUtagDFDOCKPOS@2@@Z 00419a00 f i HydraIRC.obj
 0001:00018ad0       ?Invalidate@CDockingSide@dockwins@@SAXAAK@Z 00419ad0 f i ChildFrm.obj
 0001:00018af0       ?IsRectEmpty@CRect@WTL@@QBEHXZ 00419af0 f i ChildFrm.obj
 0001:00018b10       ?ClientToScreen@CWindow@ATL@@QBEHPAUtagPOINT@@@Z 00419b10 f i ChildFrm.obj
 0001:00018b30       ??0?$_Revranit@V?$_Deque_iterator@VCWndFrame@dockwins@@V?$allocator@VCWndFrame@dockwins@@@std@@$00@std@@U?$iterator@Urandom_access_iterator_tag@std@@VCWndFrame@dockwins@@HPAV34@AAV34@@2@@std@@QAE@V?$_Deque_iterator@VCWndFrame@dockwins@@V?$allocator@VCWndFrame@dockwins@@@std@@$00@1@@Z 00419b30 f i HydraIRC.obj
 0001:00018b30       ??0?$_Revranit@V?$_Deque_iterator@V?$CPtrFrame@UIFrame@dockwins@@@dockwins@@V?$allocator@V?$CPtrFrame@UIFrame@dockwins@@@dockwins@@@std@@$00@std@@U?$iterator@Urandom_access_iterator_tag@std@@V?$CPtrFrame@UIFrame@dockwins@@@dockwins@@HPAV34@AAV34@@2@@std@@QAE@V?$_Deque_iterator@V?$CPtrFrame@UIFrame@dockwins@@@dockwins@@V?$allocator@V?$CPtrFrame@UIFrame@dockwins@@@dockwins@@@std@@$00@1@@Z 00419b30 f i HydraIRC.obj
 0001:00018b30       ??0CPoint@WTL@@QAE@UtagPOINT@@@Z 00419b30 f i ChildFrm.obj
 0001:00018b50       ?Width@CRect@WTL@@QBEHXZ   00419b50 f i ChildFrm.obj
 0001:00018b70       ?Height@CRect@WTL@@QBEHXZ  00419b70 f i ChildFrm.obj
 0001:00018b90       ?CopyRect@CRect@WTL@@QAEXPBUtagRECT@@@Z 00419b90 f i ChildFrm.obj
 0001:00018bb0       ?AdjustDragRect@CDocker@dockwins@@QBE_NPAUtagDFDOCKRECT@2@@Z 00419bb0 f i ChildFrm.obj
 0001:00018bf0       ?UpdateClientEdge@?$CMDIChildWindowImpl@VCChildCommon@@VCMDIWindow@WTL@@V?$CWinTraits@$0FGMPAAAA@$0EA@@ATL@@@WTL@@QAEHPAUtagRECT@@@Z 00419bf0 f i ChildFrm.obj
 0001:00018cf0       ?SizeOf_REBARBANDINFO@RunTimeHelper@WTL@@YAHXZ 00419cf0 f i ChildFrm.obj
 0001:00018d10       ??0CMenuItemInfo@WTL@@QAE@XZ 00419d10 f i ChildFrm.obj
 0001:00018d50       ?AtlIsOldWindows@WTL@@YA_NXZ 00419d50 f i ChildFrm.obj
 0001:00018df0       ?MapWindowPoints@CWindow@ATL@@QBEHPAUHWND__@@PAUtagPOINT@@I@Z 00419df0 f i ChildFrm.obj
 0001:00018e20       ?MapWindowPoints@CWindow@ATL@@QBEHPAUHWND__@@PAUtagRECT@@@Z 00419e20 f i ChildFrm.obj
 0001:00018e50       ??0?$CWindowImplBaseT@VCMDIWindow@WTL@@V?$CWinTraits@$0FGMPAAAA@$0EA@@ATL@@@ATL@@QAE@XZ 00419e50 f i ChildFrm.obj
 0001:00018e80       ?DefWindowProcA@?$CWindowImplBaseT@VCMDIWindow@WTL@@V?$CWinTraits@$0FGMPAAAA@$0EA@@ATL@@@ATL@@QAEJIIJ@Z 00419e80 f i ChildFrm.obj
 0001:00018eb0       ?IsWindowBox@CDockingBox@dockwins@@SA_NPAUHWND__@@@Z 00419eb0 f i ChildFrm.obj
 0001:00018ef0       ?DockingBoxMessage@CDockingBox@dockwins@@SAKXZ 00419ef0 f i ChildFrm.obj
 0001:00018f00       ??0CBoxDocker@dockwins@@QAE@PAUHWND__@@@Z 00419f00 f i ChildFrm.obj
 0001:00018f00       ??0CDockingBox@dockwins@@QAE@PAUHWND__@@@Z 00419f00 f i ChildFrm.obj
 0001:00018f20       ?GetDockingPosition@CBoxDocker@dockwins@@QBE_NPAUtagDFDOCKPOS@2@@Z 00419f20 f i ChildFrm.obj
 0001:00018f90       ?SetDockingPosition@CBoxDocker@dockwins@@QBE_NPAUtagDFDOCKPOS@2@@Z 00419f90 f i ChildFrm.obj
 0001:00019060       ?IsValid@CDockingSide@dockwins@@QBE_NXZ 0041a060 f i ChildFrm.obj
 0001:00019080       ?Activate@CBoxDocker@dockwins@@QAE_NPAUtagDFMHDR@2@@Z 0041a080 f i ChildFrm.obj
 0001:000190c0       ??0CVC7LikeExCaption@dockwins@@QAE@XZ 0041a0c0 f i ChildFrm.obj
 0001:00019110       ??0CCaptionBase@dockwins@@QAE@K_N@Z 0041a110 f i ChildFrm.obj
 0001:00019140       ??0COrientedRect@dockwins@@QAE@_NK@Z 0041a140 f i ChildFrm.obj
 0001:00019180       ??0CPinButton@CVC7LikeExCaption@dockwins@@QAE@XZ 0041a180 f i ChildFrm.obj
 0001:000191b0       ?CalculateRect@CButton@CVC7LikeExCaption@dockwins@@UAEXAAVCRect@WTL@@_N@Z 0041a1b0 f i ChildFrm.obj
 0001:00019280       ?DeflateRect@CRect@WTL@@QAEXHH@Z 0041a280 f i ChildFrm.obj
 0001:000192b0       ?Press@CButton@CVC7LikeExCaption@dockwins@@UAEXPAUHWND__@@@Z 0041a2b0 f i ChildFrm.obj
 0001:00019350       ?Release@CButton@CVC7LikeExCaption@dockwins@@UAEXPAUHWND__@@@Z 0041a350 f i ChildFrm.obj
 0001:000193d0       ?Hot@CButton@CVC7LikeExCaption@dockwins@@UAEXPAUHWND__@@@Z 0041a3d0 f i ChildFrm.obj
 0001:00019470       ?Draw@CCloseButton@CVC7LikeExCaption@dockwins@@UAEXAAV?$CDCT@$00@WTL@@@Z 0041a470 f i ChildFrm.obj
 0001:00019470       ?Draw@CPinButton@CVC7LikeExCaption@dockwins@@UAEXAAV?$CDCT@$00@WTL@@@Z 0041a470 f i ChildFrm.obj
 0001:000194a0       ?Draw@CPinButton@CVC7LikeExCaption@dockwins@@UAEXPAUHWND__@@AAV?$CDCT@$00@WTL@@W4tagButtonState@CButton@23@@Z 0041a4a0 f i ChildFrm.obj
 0001:00019a60       ?CalculateRect@CVC7LikeExCaption@dockwins@@QAE_NAAVCRect@WTL@@_N@Z 0041aa60 f i ChildFrm.obj
 0001:00019ae0       ?CalculateRect@CCaptionBase@dockwins@@QAE_NAAVCRect@WTL@@_N@Z 0041aae0 f i ChildFrm.obj
 0001:00019b00       ?CalculateRect@COrientedRect@dockwins@@QAE_NAAVCRect@WTL@@_N@Z 0041ab00 f i ChildFrm.obj
 0001:00019bd0       ?Draw@CVC7LikeExCaption@dockwins@@QAEXPAUHWND__@@AAV?$CDCT@$00@WTL@@@Z 0041abd0 f i ChildFrm.obj
 0001:00019e40       ??0CRect@WTL@@QAE@PBUtagRECT@@@Z 0041ae40 f i ChildFrm.obj
 0001:00019e60       ?InflateRect@CRect@WTL@@QAEXUtagSIZE@@@Z 0041ae60 f i HydraIRC.obj
 0001:00019e60       ?InflateRect@CRect@WTL@@QAEXHH@Z 0041ae60 f i ChildFrm.obj
 0001:00019e80       ?HSmCaptionFont@CDWSettings@dockwins@@QBEPAUHFONT__@@XZ 0041ae80 f i ChildFrm.obj
 0001:00019ea0       ?HSmCaptionFont@CSettings@CDWSettings@dockwins@@QBEPAUHFONT__@@XZ 0041aea0 f i ChildFrm.obj
 0001:00019ec0       ?VSmCaptionFont@CDWSettings@dockwins@@QBEPAUHFONT__@@XZ 0041aec0 f i ChildFrm.obj
 0001:00019ee0       ?HitTest@CVC7LikeExCaption@dockwins@@QBEJABVCPoint@WTL@@@Z 0041aee0 f i ChildFrm.obj
 0001:00019f80       ?PtInRect@CRect@WTL@@QBEHUtagPOINT@@@Z 0041af80 f i ChildFrm.obj
 0001:00019fa0       ?HotTrack@CVC7LikeExCaption@dockwins@@QAE_NPAUHWND__@@I@Z 0041afa0 f i ChildFrm.obj
 0001:0001a040       ??0CButton@CVC7LikeExCaption@dockwins@@QAE@XZ 0041b040 f i ChildFrm.obj
 0001:0001a060       ??0CButton@CCaptionBase@dockwins@@QAE@XZ 0041b060 f i ChildFrm.obj
 0001:0001a090       ??0CCloseButton@CVC7LikeExCaption@dockwins@@QAE@XZ 0041b090 f i ChildFrm.obj
 0001:0001a0b0       ?Draw@CCloseButton@CVC7LikeExCaption@dockwins@@UAEXPAUHWND__@@AAV?$CDCT@$00@WTL@@W4tagButtonState@CButton@23@@Z 0041b0b0 f i ChildFrm.obj
 0001:0001a3d0       ?SetSplitterRect@?$CSplitterImpl@V?$CHydraSplitterWindowT@$0A@@@$0A@@WTL@@QAEXPAUtagRECT@@_N@Z 0041b3d0 f i ChildFrm.obj
 0001:0001a480       ?OnCreate@?$CSplitterImpl@V?$CHydraSplitterWindowT@$0A@@@$0A@@WTL@@QAEJIIJAAH@Z 0041b480 f i ChildFrm.obj
 0001:0001a4b0       ?OnPaint@?$CSplitterImpl@V?$CHydraSplitterWindowT@$0A@@@$0A@@WTL@@QAEJIIJAAH@Z 0041b4b0 f i ChildFrm.obj
 0001:0001a590       ??0CPaintDC@WTL@@QAE@PAUHWND__@@@Z 0041b590 f i ChildFrm.obj
 0001:0001a5d0       ??1CPaintDC@WTL@@QAE@XZ    0041b5d0 f i ChildFrm.obj
 0001:0001a640       ?OnSetCursor@?$CSplitterImpl@V?$CHydraSplitterWindowT@$0A@@@$0A@@WTL@@QAEJIIJAAH@Z 0041b640 f i ChildFrm.obj
 0001:0001a6f0       ?OnMouseMove@?$CSplitterImpl@V?$CHydraSplitterWindowT@$0A@@@$0A@@WTL@@QAEJIIJAAH@Z 0041b6f0 f i ChildFrm.obj
 0001:0001a830       ?UpdateWindow@CWindow@ATL@@QAEHXZ 0041b830 f i ChildFrm.obj
 0001:0001a850       ?OnLButtonDown@?$CSplitterImpl@V?$CHydraSplitterWindowT@$0A@@@$0A@@WTL@@QAEJIIJAAH@Z 0041b850 f i ChildFrm.obj
 0001:0001a920       ?SetCapture@CWindow@ATL@@QAEPAUHWND__@@XZ 0041b920 f i ChildFrm.obj
 0001:0001a940       ?OnLButtonUp@?$CSplitterImpl@V?$CHydraSplitterWindowT@$0A@@@$0A@@WTL@@QAEJIIJAAH@Z 0041b940 f i ChildFrm.obj
 0001:0001a940       ?OnLButtonUp@?$CSplitterImpl@V?$CHydraSplitterWindowT@$00@@$00@WTL@@QAEJIIJAAH@Z 0041b940 f i ChildFrm.obj
 0001:0001a970       ?OnLButtonDoubleClick@?$CSplitterImpl@V?$CHydraSplitterWindowT@$0A@@@$0A@@WTL@@QAEJIIJAAH@Z 0041b970 f i ChildFrm.obj
 0001:0001a9b0       ?OnCaptureChanged@?$CSplitterImpl@V?$CHydraSplitterWindowT@$0A@@@$0A@@WTL@@QAEJIIJAAH@Z 0041b9b0 f i ChildFrm.obj
 0001:0001aa10       ?OnSetFocus@?$CSplitterImpl@V?$CHydraSplitterWindowT@$0A@@@$0A@@WTL@@QAEJIIJAAH@Z 0041ba10 f i ChildFrm.obj
 0001:0001aa10       ?OnSetFocus@?$CSplitterImpl@V?$CHydraSplitterWindowT@$00@@$00@WTL@@QAEJIIJAAH@Z 0041ba10 f i ChildFrm.obj
 0001:0001aa70       ?OnMouseActivate@?$CSplitterImpl@V?$CHydraSplitterWindowT@$0A@@@$0A@@WTL@@QAEJIIJAAH@Z 0041ba70 f i ChildFrm.obj
 0001:0001ab60       ?OnSettingChange@?$CSplitterImpl@V?$CHydraSplitterWindowT@$0A@@@$0A@@WTL@@QAEJIIJAAH@Z 0041bb60 f i ChildFrm.obj
 0001:0001ab80       ?GetSplitterBarRect@?$CSplitterImpl@V?$CHydraSplitterWindowT@$0A@@@$0A@@WTL@@QBE_NPAUtagRECT@@@Z 0041bb80 f i ChildFrm.obj
 0001:0001ac40       ?GetSplitterPaneRect@?$CSplitterImpl@V?$CHydraSplitterWindowT@$0A@@@$0A@@WTL@@QBE_NHPAUtagRECT@@@Z 0041bc40 f i ChildFrm.obj
 0001:0001adb0       ?SetSplitterRect@?$CSplitterImpl@V?$CHydraSplitterWindowT@$00@@$00@WTL@@QAEXPAUtagRECT@@_N@Z 0041bdb0 f i ChildFrm.obj
 0001:0001ae60       ?OnCreate@?$CSplitterImpl@V?$CHydraSplitterWindowT@$00@@$00@WTL@@QAEJIIJAAH@Z 0041be60 f i ChildFrm.obj
 0001:0001ae90       ?OnPaint@?$CSplitterImpl@V?$CHydraSplitterWindowT@$00@@$00@WTL@@QAEJIIJAAH@Z 0041be90 f i ChildFrm.obj
 0001:0001af70       ?OnSetCursor@?$CSplitterImpl@V?$CHydraSplitterWindowT@$00@@$00@WTL@@QAEJIIJAAH@Z 0041bf70 f i ChildFrm.obj
 0001:0001b020       ?OnMouseMove@?$CSplitterImpl@V?$CHydraSplitterWindowT@$00@@$00@WTL@@QAEJIIJAAH@Z 0041c020 f i ChildFrm.obj
 0001:0001b160       ?OnLButtonDown@?$CSplitterImpl@V?$CHydraSplitterWindowT@$00@@$00@WTL@@QAEJIIJAAH@Z 0041c160 f i ChildFrm.obj
 0001:0001b240       ?OnLButtonDoubleClick@?$CSplitterImpl@V?$CHydraSplitterWindowT@$00@@$00@WTL@@QAEJIIJAAH@Z 0041c240 f i ChildFrm.obj
 0001:0001b280       ?OnCaptureChanged@?$CSplitterImpl@V?$CHydraSplitterWindowT@$00@@$00@WTL@@QAEJIIJAAH@Z 0041c280 f i ChildFrm.obj
 0001:0001b2e0       ?OnMouseActivate@?$CSplitterImpl@V?$CHydraSplitterWindowT@$00@@$00@WTL@@QAEJIIJAAH@Z 0041c2e0 f i ChildFrm.obj
 0001:0001b3d0       ?GetWndClassInfo@CHydraPaneContainer@@SAAAU_ATL_WNDCLASSINFOA@ATL@@XZ 0041c3d0 f i ChildFrm.obj
 0001:0001b3e0       ??0CHydraPaneContainer@@QAE@XZ 0041c3e0 f i ChildFrm.obj
 0001:0001b460       ?OnSettingChange@?$CSplitterImpl@V?$CHydraSplitterWindowT@$00@@$00@WTL@@QAEJIIJAAH@Z 0041c460 f i ChildFrm.obj
 0001:0001b480       ?SetGradientFill@CHydraPaneContainer@@QAEXH@Z 0041c480 f i ChildFrm.obj
 0001:0001b4b0       ?GetSplitterBarRect@?$CSplitterImpl@V?$CHydraSplitterWindowT@$00@@$00@WTL@@QBE_NPAUtagRECT@@@Z 0041c4b0 f i ChildFrm.obj
 0001:0001b580       ?ResetColors@CHydraPaneContainer@@QAEXXZ 0041c580 f i ChildFrm.obj
 0001:0001b5f0       ?GetSplitterPaneRect@?$CSplitterImpl@V?$CHydraSplitterWindowT@$00@@$00@WTL@@QBE_NHPAUtagRECT@@@Z 0041c5f0 f i ChildFrm.obj
 0001:0001b770       ?IsInteractive@?$CSplitterImpl@V?$CHydraSplitterWindowT@$0A@@@$0A@@WTL@@QBE_NXZ 0041c770 f i ChildFrm.obj
 0001:0001b770       ?IsInteractive@?$CSplitterImpl@V?$CHydraSplitterWindowT@$00@@$00@WTL@@QBE_NXZ 0041c770 f i ChildFrm.obj
 0001:0001b790       ??0?$CDrag@D@@QAE@I@Z      0041c790 f i ChildFrm.obj
 0001:0001b7c0       ??1?$CDrag@D@@QAE@XZ       0041c7c0 f i ChildFrm.obj
 0001:0001b7f0       ?IsInClientRect@?$CDrag@D@@QAEHPAUHWND__@@@Z 0041c7f0 f i ChildFrm.obj
 0001:0001b830       ?GetNumFiles@?$CDrag@D@@QAEIXZ 0041c830 f i ChildFrm.obj
 0001:0001b850       ?DragQueryFileA@?$CDrag@D@@QAEII@Z 0041c850 f i ChildFrm.obj
 0001:0001b880       ??B?$CDrag@D@@QBEPBDXZ     0041c880 f i ChildFrm.obj
 0001:0001b8a0       ?CreatePopupMenu@?$CMenuT@$0A@@WTL@@QAEHXZ 0041c8a0 f i ChildFrm.obj
 0001:0001b8d0       ?RemoveMenu@?$CMenuT@$0A@@WTL@@QAEHII@Z 0041c8d0 f i ChildFrm.obj
 0001:0001b900       ?GetWndStyle@?$CWinTraits@$0JGMPAAAA@$0IA@@ATL@@SAKK@Z 0041c900 f i ChildFrm.obj
 0001:0001b920       ?CreateDockingBox@?$CBoxedDockingWindowImpl@VCUserListView@@VCWindow@ATL@@U?$CBoxedDockingWindowTraits@UCVC7LikeCaption@dockwins@@V?$CTabDockingBox@U?$CDockingBoxTraits@UCVC7LikeCaption@dockwins@@$0IGMPAAAA@$0IA@@dockwins@@@2@$0JGMPAAAA@$0IA@@dockwins@@@dockwins@@QAEPAUHWND__@@XZ 0041c920 f i ChildFrm.obj
 0001:0001b920       ?CreateDockingBox@?$CBoxedDockingWindowImpl@VCServerListView@@VCWindow@ATL@@U?$CBoxedDockingWindowTraits@UCVC7LikeCaption@dockwins@@V?$CTabDockingBox@U?$CDockingBoxTraits@UCVC7LikeCaption@dockwins@@$0IGMPAAAA@$0IA@@dockwins@@@2@$0JGMPAAAA@$0IA@@dockwins@@@dockwins@@QAEPAUHWND__@@XZ 0041c920 f i HydraIRC.obj
 0001:0001b9c0       ?Replace@CDocker@dockwins@@QBE_NPAUtagDFDOCKREPLACE@2@@Z 0041c9c0 f i ChildFrm.obj
 0001:0001ba00       ?PlaceAs@CDockingBox@dockwins@@QAEHPAUHWND__@@@Z 0041ca00 f i ChildFrm.obj
 0001:0001ba40       ?PinUp@CDocker@dockwins@@QBE_NPAUtagDFPINUP@2@@Z 0041ca40 f i ChildFrm.obj
 0001:0001ba80       ?IsPinned@CDocker@dockwins@@QBE_NPAUtagDFMHDR@2@@Z 0041ca80 f i ChildFrm.obj
 0001:0001bac0       ?OnDocked@?$CDockingWindowBaseImpl@VCOutputView@@VCWindow@ATL@@U?$CBoxedDockingWindowTraits@VCVC7LikeExCaption@dockwins@@V?$CTabDockingBox@U?$CDockingBoxTraits@VCVC7LikeExCaption@dockwins@@$0IGMPAAAA@$0IA@@dockwins@@@2@$0JGMPAAAA@$0IA@@dockwins@@@dockwins@@QAEXPAUHWND__@@_N@Z 0041cac0 f i Output.obj
 0001:0001bac0       ?OnDocked@?$CDockingWindowBaseImpl@VCTransfersView@@VCWindow@ATL@@U?$CBoxedDockingWindowTraits@VCVC7LikeExCaption@dockwins@@V?$CTabDockingBox@U?$CDockingBoxTraits@VCVC7LikeExCaption@dockwins@@$0IGMPAAAA@$0IA@@dockwins@@@2@$0JGMPAAAA@$0IA@@dockwins@@@dockwins@@QAEXPAUHWND__@@_N@Z 0041cac0 f i Transfers.obj
 0001:0001bac0       ?OnDocked@?$CDockingWindowBaseImpl@VCTextQueueView@@VCWindow@ATL@@U?$CBoxedDockingWindowTraits@VCVC7LikeExCaption@dockwins@@V?$CTabDockingBox@U?$CDockingBoxTraits@VCVC7LikeExCaption@dockwins@@$0IGMPAAAA@$0IA@@dockwins@@@2@$0JGMPAAAA@$0IA@@dockwins@@@dockwins@@QAEXPAUHWND__@@_N@Z 0041cac0 f i TextQueueFrm.obj
 0001:0001bac0       ?OnDocked@?$CDockingWindowBaseImpl@V?$CTabDockingBox@U?$CDockingBoxTraits@VCVC7LikeExCaption@dockwins@@$0IGMPAAAA@$0IA@@dockwins@@@dockwins@@VCWindow@ATL@@U?$CDockingBoxTraits@VCVC7LikeExCaption@dockwins@@$0IGMPAAAA@$0IA@@2@@dockwins@@QAEXPAUHWND__@@_N@Z 0041cac0 f i EventLogFrm.obj
 0001:0001bac0       ?OnDocked@?$CDockingWindowBaseImpl@VCEventLogView@@VCWindow@ATL@@U?$CBoxedDockingWindowTraits@VCVC7LikeExCaption@dockwins@@V?$CTabDockingBox@U?$CDockingBoxTraits@VCVC7LikeExCaption@dockwins@@$0IGMPAAAA@$0IA@@dockwins@@@2@$0JGMPAAAA@$0IA@@dockwins@@@dockwins@@QAEXPAUHWND__@@_N@Z 0041cac0 f i EventLogFrm.obj
 0001:0001bac0       ?OnDocked@?$CDockingWindowBaseImpl@VCServerListView@@VCWindow@ATL@@U?$CBoxedDockingWindowTraits@UCVC7LikeCaption@dockwins@@V?$CTabDockingBox@U?$CDockingBoxTraits@UCVC7LikeCaption@dockwins@@$0IGMPAAAA@$0IA@@dockwins@@@2@$0JGMPAAAA@$0IA@@dockwins@@@dockwins@@QAEXPAUHWND__@@_N@Z 0041cac0 f i ServerList.obj
 0001:0001bac0       ?OnDocked@?$CDockingWindowBaseImpl@VCUserListView@@VCWindow@ATL@@U?$CBoxedDockingWindowTraits@UCVC7LikeCaption@dockwins@@V?$CTabDockingBox@U?$CDockingBoxTraits@UCVC7LikeCaption@dockwins@@$0IGMPAAAA@$0IA@@dockwins@@@2@$0JGMPAAAA@$0IA@@dockwins@@@dockwins@@QAEXPAUHWND__@@_N@Z 0041cac0 f i ChildFrm.obj
 0001:0001bac0       ?OnDocked@?$CDockingWindowBaseImpl@V?$CTabDockingBox@U?$CDockingBoxTraits@UCVC7LikeCaption@dockwins@@$0IGMPAAAA@$0IA@@dockwins@@@dockwins@@VCWindow@ATL@@U?$CDockingBoxTraits@UCVC7LikeCaption@dockwins@@$0IGMPAAAA@$0IA@@2@@dockwins@@QAEXPAUHWND__@@_N@Z 0041cac0 f i ChildFrm.obj
 0001:0001bac0       ?OnDocked@?$CDockingWindowBaseImpl@VCServerMonitorView@@VCWindow@ATL@@U?$CBoxedDockingWindowTraits@VCVC7LikeExCaption@dockwins@@V?$CTabDockingBox@U?$CDockingBoxTraits@VCVC7LikeExCaption@dockwins@@$0IGMPAAAA@$0IA@@dockwins@@@2@$0JGMPAAAA@$0IA@@dockwins@@@dockwins@@QAEXPAUHWND__@@_N@Z 0041cac0 f i ServerMonitor.obj
 0001:0001bac0       ?OnDocked@?$CDockingWindowBaseImpl@VCChannelMonitorView@@VCWindow@ATL@@U?$CBoxedDockingWindowTraits@VCVC7LikeExCaption@dockwins@@V?$CTabDockingBox@U?$CDockingBoxTraits@VCVC7LikeExCaption@dockwins@@$0IGMPAAAA@$0IA@@dockwins@@@2@$0JGMPAAAA@$0IA@@dockwins@@@dockwins@@QAEXPAUHWND__@@_N@Z 0041cac0 f i ChannelMonitor.obj
 0001:0001bae0       ??0?$CWindowImplRoot@VCMDIWindow@WTL@@@ATL@@QAE@XZ 0041cae0 f i ChildFrm.obj
 0001:0001bb30       ??0CMDIWindow@WTL@@QAE@PAUHWND__@@@Z 0041cb30 f i ChildFrm.obj
 0001:0001bb60       ??0?$CWindowImplBaseT@VCWindow@ATL@@U?$CBoxedDockingWindowTraits@UCVC7LikeCaption@dockwins@@V?$CTabDockingBox@U?$CDockingBoxTraits@UCVC7LikeCaption@dockwins@@$0IGMPAAAA@$0IA@@dockwins@@@2@$0JGMPAAAA@$0IA@@dockwins@@@ATL@@QAE@XZ 0041cb60 f i ChildFrm.obj
 0001:0001bb60       ??0?$CWindowImplBaseT@VCWindow@ATL@@V?$CWinTraits@$0FGAAAAAA@$0A@@2@@ATL@@QAE@XZ 0041cb60 f i ChildFrm.obj
 0001:0001bb60       ??0?$CWindowImplBaseT@VCWindow@ATL@@U?$CDockingWindowTraits@UCVC7LikeCaption@dockwins@@$0EGMAAAAA@$0IA@@dockwins@@@ATL@@QAE@XZ 0041cb60 f i HydraIRC.obj
 0001:0001bb60       ??0?$CWindowImplBaseT@VCWindow@ATL@@V?$CWinTraits@$0FGAAEAAA@$0A@@2@@ATL@@QAE@XZ 0041cb60 f i ChildFrm.obj
 0001:0001bb60       ??0?$CWindowImplBaseT@VCWindow@ATL@@U?$CBoxedDockingWindowTraits@VCVC7LikeExCaption@dockwins@@V?$CTabDockingBox@U?$CDockingBoxTraits@VCVC7LikeExCaption@dockwins@@$0IGMPAAAA@$0IA@@dockwins@@@2@$0JGMPAAAA@$0IA@@dockwins@@@ATL@@QAE@XZ 0041cb60 f i EventLogFrm.obj
 0001:0001bb60       ??0?$CWindowImplBaseT@VCWindow@ATL@@U?$CDockingBoxTraits@UCVC7LikeCaption@dockwins@@$0IGMPAAAA@$0IA@@dockwins@@@ATL@@QAE@XZ 0041cb60 f i ChildFrm.obj
 0001:0001bb60       ??0?$CWindowImplBaseT@VCWindow@ATL@@U?$CDockingBoxTraits@VCVC7LikeExCaption@dockwins@@$0IGMPAAAA@$0IA@@dockwins@@@ATL@@QAE@XZ 0041cb60 f i EventLogFrm.obj
 0001:0001bb90       ?GetWindowProc@?$CWindowImplBaseT@VCWindow@ATL@@U?$CDockingBoxTraits@VCVC7LikeExCaption@dockwins@@$0IGMPAAAA@$0IA@@dockwins@@@ATL@@UAEP6GJPAUHWND__@@IIJ@ZXZ 0041cb90 f i EventLogFrm.obj
 0001:0001bb90       ?GetWindowProc@?$CWindowImplBaseT@V?$CRichEditCtrlT@VCWindow@ATL@@@WTL@@V?$CWinTraits@$0FGAAAAAA@$0A@@ATL@@@ATL@@UAEP6GJPAUHWND__@@IIJ@ZXZ 0041cb90 f i ChildFrm.obj
 0001:0001bb90       ?GetWindowProc@?$CWindowImplBaseT@V?$CStatusBarCtrlT@VCWindow@ATL@@@WTL@@V?$CWinTraits@$0FGAAAAAA@$0A@@ATL@@@ATL@@UAEP6GJPAUHWND__@@IIJ@ZXZ 0041cb90 f i HydraIRC.obj
 0001:0001bb90       ?GetWindowProc@?$CWindowImplBaseT@VCWindow@ATL@@U?$CBoxedDockingWindowTraits@VCVC7LikeExCaption@dockwins@@V?$CTabDockingBox@U?$CDockingBoxTraits@VCVC7LikeExCaption@dockwins@@$0IGMPAAAA@$0IA@@dockwins@@@2@$0JGMPAAAA@$0IA@@dockwins@@@ATL@@UAEP6GJPAUHWND__@@IIJ@ZXZ 0041cb90 f i EventLogFrm.obj
 0001:0001bb90       ?GetWindowProc@?$CWindowImplBaseT@VCWindow@ATL@@V?$CWinTraits@$0FGAAAAAA@$0A@@2@@ATL@@UAEP6GJPAUHWND__@@IIJ@ZXZ 0041cb90 f i ChildFrm.obj
 0001:0001bb90       ?GetWindowProc@?$CWindowImplBaseT@VCWindow@ATL@@U?$CDockingWindowTraits@UCVC7LikeCaption@dockwins@@$0EGMAAAAA@$0IA@@dockwins@@@ATL@@UAEP6GJPAUHWND__@@IIJ@ZXZ 0041cb90 f i HydraIRC.obj
 0001:0001bb90       ?GetWindowProc@?$CWindowImplBaseT@VCWindow@ATL@@U?$CBoxedDockingWindowTraits@UCVC7LikeCaption@dockwins@@V?$CTabDockingBox@U?$CDockingBoxTraits@UCVC7LikeCaption@dockwins@@$0IGMPAAAA@$0IA@@dockwins@@@2@$0JGMPAAAA@$0IA@@dockwins@@@ATL@@UAEP6GJPAUHWND__@@IIJ@ZXZ 0041cb90 f i ChildFrm.obj
 0001:0001bb90       ?GetWindowProc@?$CWindowImplBaseT@V?$CEditT@VCWindow@ATL@@@WTL@@V?$CWinTraits@$0FGAAAAAA@$0A@@ATL@@@ATL@@UAEP6GJPAUHWND__@@IIJ@ZXZ 0041cb90 f i FavoritesDlg.obj
 0001:0001bb90       ?GetWindowProc@?$CWindowImplBaseT@VCWindow@ATL@@V?$CWinTraits@$0FGAAEAAA@$0A@@2@@ATL@@UAEP6GJPAUHWND__@@IIJ@ZXZ 0041cb90 f i ChildFrm.obj
 0001:0001bb90       ?GetWindowProc@?$CWindowImplBaseT@V?$CListBoxT@VCWindow@ATL@@@WTL@@V?$CWinTraitsOR@$0CB@$0A@V?$CWinTraits@$0FGAAAAAA@$0A@@ATL@@@ATL@@@ATL@@UAEP6GJPAUHWND__@@IIJ@ZXZ 0041cb90 f i MainFrm.obj
 0001:0001bb90       ?GetWindowProc@?$CWindowImplBaseT@VCWindow@ATL@@U?$CDockingBoxTraits@UCVC7LikeCaption@dockwins@@$0IGMPAAAA@$0IA@@dockwins@@@ATL@@UAEP6GJPAUHWND__@@IIJ@ZXZ 0041cb90 f i ChildFrm.obj
 0001:0001bba0       ?DefWindowProcA@?$CWindowImplBaseT@VCWindow@ATL@@U?$CDockingBoxTraits@UCVC7LikeCaption@dockwins@@$0IGMPAAAA@$0IA@@dockwins@@@ATL@@QAEJIIJ@Z 0041cba0 f i ChildFrm.obj
 0001:0001bba0       ?DefWindowProcA@?$CWindowImplBaseT@VCWindow@ATL@@U?$CDockingBoxTraits@VCVC7LikeExCaption@dockwins@@$0IGMPAAAA@$0IA@@dockwins@@@ATL@@QAEJIIJ@Z 0041cba0 f i EventLogFrm.obj
 0001:0001bba0       ?DefWindowProcA@?$CWindowImplBaseT@VCWindow@ATL@@U?$CBoxedDockingWindowTraits@UCVC7LikeCaption@dockwins@@V?$CTabDockingBox@U?$CDockingBoxTraits@UCVC7LikeCaption@dockwins@@$0IGMPAAAA@$0IA@@dockwins@@@2@$0JGMPAAAA@$0IA@@dockwins@@@ATL@@QAEJIIJ@Z 0041cba0 f i ChildFrm.obj
 0001:0001bba0       ?DefWindowProcA@?$CWindowImplBaseT@V?$CEditT@VCWindow@ATL@@@WTL@@V?$CWinTraits@$0FGAAAAAA@$0A@@ATL@@@ATL@@QAEJIIJ@Z 0041cba0 f i FavoritesDlg.obj
 0001:0001bba0       ?DefWindowProcA@?$CWindowImplBaseT@V?$CStatusBarCtrlT@VCWindow@ATL@@@WTL@@V?$CWinTraits@$0FGAAAAAA@$0A@@ATL@@@ATL@@QAEJIIJ@Z 0041cba0 f i HydraIRC.obj
 0001:0001bba0       ?DefWindowProcA@?$CWindowImplBaseT@V?$CListBoxT@VCWindow@ATL@@@WTL@@V?$CWinTraitsOR@$0CB@$0A@V?$CWinTraits@$0FGAAAAAA@$0A@@ATL@@@ATL@@@ATL@@QAEJIIJ@Z 0041cba0 f i MainFrm.obj
 0001:0001bba0       ?DefWindowProcA@?$CWindowImplBaseT@VCWindow@ATL@@U?$CBoxedDockingWindowTraits@VCVC7LikeExCaption@dockwins@@V?$CTabDockingBox@U?$CDockingBoxTraits@VCVC7LikeExCaption@dockwins@@$0IGMPAAAA@$0IA@@dockwins@@@2@$0JGMPAAAA@$0IA@@dockwins@@@ATL@@QAEJIIJ@Z 0041cba0 f i EventLogFrm.obj
 0001:0001bba0       ?DefWindowProcA@?$CWindowImplBaseT@V?$CRichEditCtrlT@VCWindow@ATL@@@WTL@@V?$CWinTraits@$0FGAAAAAA@$0A@@ATL@@@ATL@@QAEJIIJ@Z 0041cba0 f i ChildFrm.obj
 0001:0001bba0       ?DefWindowProcA@?$CWindowImplBaseT@VCWindow@ATL@@U?$CDockingWindowTraits@UCVC7LikeCaption@dockwins@@$0EGMAAAAA@$0IA@@dockwins@@@ATL@@QAEJIIJ@Z 0041cba0 f i HydraIRC.obj
 0001:0001bba0       ?DefWindowProcA@?$CWindowImplBaseT@VCWindow@ATL@@V?$CWinTraits@$0FGAAAAAA@$0A@@2@@ATL@@QAEJIIJ@Z 0041cba0 f i ChildFrm.obj
 0001:0001bba0       ?DefWindowProcA@?$CWindowImplBaseT@VCWindow@ATL@@V?$CWinTraits@$0FGAAEAAA@$0A@@2@@ATL@@QAEJIIJ@Z 0041cba0 f i ChildFrm.obj
 0001:0001bbd0       ??1?$CPenT@$0A@@WTL@@QAE@XZ 0041cbd0 f i ChildFrm.obj
 0001:0001bbd0       ??1?$CBrushT@$0A@@WTL@@QAE@XZ 0041cbd0 f i ChildFrm.obj
 0001:0001bbd0       ??1?$CFontT@$0A@@WTL@@QAE@XZ 0041cbd0 f i ChildFrm.obj
 0001:0001bbd0       ??1?$CBitmapT@$0A@@WTL@@QAE@XZ 0041cbd0 f i ChildFrm.obj
 0001:0001bbf0       ??4?$CBitmapT@$0A@@WTL@@QAEAAV01@PAUHBITMAP__@@@Z 0041cbf0 f i ChildFrm.obj
 0001:0001bbf0       ??4?$CFontT@$0A@@WTL@@QAEAAV01@PAUHFONT__@@@Z 0041cbf0 f i ChildFrm.obj
 0001:0001bc10       ??1?$CDCT@$00@WTL@@QAE@XZ  0041cc10 f i ChildFrm.obj
 0001:0001bc40       ?WindowFromDC@?$CDCT@$00@WTL@@QBEPAUHWND__@@XZ 0041cc40 f i ChildFrm.obj
 0001:0001bc60       ?SelectPen@?$CDCT@$00@WTL@@QAEPAUHPEN__@@PAU3@@Z 0041cc60 f i ChildFrm.obj
 0001:0001bc60       ?SelectBrush@?$CDCT@$0A@@WTL@@QAEPAUHBRUSH__@@PAU3@@Z 0041cc60 f i ChildFrm.obj
 0001:0001bc60       ?SelectFont@?$CDCT@$0A@@WTL@@QAEPAUHFONT__@@PAU3@@Z 0041cc60 f i ChildFrm.obj
 0001:0001bc60       ?SelectFont@?$CDCT@$00@WTL@@QAEPAUHFONT__@@PAU3@@Z 0041cc60 f i ChildFrm.obj
 0001:0001bc60       ?SelectPen@?$CDCT@$0A@@WTL@@QAEPAUHPEN__@@PAU3@@Z 0041cc60 f i ChildFrm.obj
 0001:0001bc60       ?SelectBitmap@?$CDCT@$0A@@WTL@@QAEPAUHBITMAP__@@PAU3@@Z 0041cc60 f i HydraIRC.obj
 0001:0001bc60       ?SelectBrush@?$CDCT@$00@WTL@@QAEPAUHBRUSH__@@PAU3@@Z 0041cc60 f i ChildFrm.obj
 0001:0001bc60       ?SelectBitmap@?$CDCT@$00@WTL@@QAEPAUHBITMAP__@@PAU3@@Z 0041cc60 f i ChildFrm.obj
 0001:0001bc80       ?SetBkMode@?$CDCT@$00@WTL@@QAEHH@Z 0041cc80 f i ChildFrm.obj
 0001:0001bc80       ?SetBkMode@?$CDCT@$0A@@WTL@@QAEHH@Z 0041cc80 f i ChildFrm.obj
 0001:0001bca0       ?MoveTo@?$CDCT@$00@WTL@@QAEHHHPAUtagPOINT@@@Z 0041cca0 f i ChildFrm.obj
 0001:0001bca0       ?MoveTo@?$CDCT@$0A@@WTL@@QAEHHHPAUtagPOINT@@@Z 0041cca0 f i ChildFrm.obj
 0001:0001bcd0       ?FillRect@?$CDCT@$0A@@WTL@@QAEHPBUtagRECT@@PAUHBRUSH__@@@Z 0041ccd0 f i HydraIRC.obj
 0001:0001bcd0       ?FillRect@?$CDCT@$00@WTL@@QAEHPBUtagRECT@@PAUHBRUSH__@@@Z 0041ccd0 f i ChildFrm.obj
 0001:0001bd00       ?GetTextExtent@?$CDCT@$00@WTL@@QBEHPBDHPAUtagSIZE@@@Z 0041cd00 f i ChildFrm.obj
 0001:0001bd00       ?GetTextExtent@?$CDCT@$0A@@WTL@@QBEHPBDHPAUtagSIZE@@@Z 0041cd00 f i Prefs_MiscPage.obj
 0001:0001bd40       ?DrawEdge@?$CDCT@$0A@@WTL@@QAEHPAUtagRECT@@II@Z 0041cd40 f i ChildFrm.obj
 0001:0001bd40       ?DrawEdge@?$CDCT@$00@WTL@@QAEHPAUtagRECT@@II@Z 0041cd40 f i ChildFrm.obj
 0001:0001bd70       ??1?$CTempBuffer@D$0BAA@VCCRTAllocator@ATL@@@ATL@@QAE@XZ 0041cd70 f i HydraIRC.obj
 0001:0001bd70       ??1?$CTempBuffer@D$0CAA@VCCRTAllocator@ATL@@@ATL@@QAE@XZ 0041cd70 f i ChildFrm.obj
 0001:0001bd70       ??1?$CTempBuffer@D$0EAA@VCCRTAllocator@ATL@@@ATL@@QAE@XZ 0041cd70 f i HydraIRC.obj
 0001:0001bd70       ??1?$CTempBuffer@E$0BAA@VCCRTAllocator@ATL@@@ATL@@QAE@XZ 0041cd70 f i HydraIRC.obj
 0001:0001bd70       ??1?$CTempBuffer@H$0CAA@VCCRTAllocator@ATL@@@ATL@@QAE@XZ 0041cd70 f i HydraIRC.obj
 0001:0001bd90       ?Allocate@?$CTempBuffer@D$0CAA@VCCRTAllocator@ATL@@@ATL@@QAEPADI@Z 0041cd90 f i ChildFrm.obj
 0001:0001bdc0       ??0?$CFileDialogImpl@VCFileDialog@WTL@@@WTL@@QAE@HPBD0K0PAUHWND__@@@Z 0041cdc0 f i ChildFrm.obj
 0001:0001bee0       ?Attach@?$CFontT@$00@WTL@@QAEXPAUHFONT__@@@Z 0041cee0 f i ChildFrm.obj
 0001:0001bf20       ?CreatePointFont@?$CFontT@$00@WTL@@QAEPAUHFONT__@@HPBDPAUHDC__@@_N2@Z 0041cf20 f i ChildFrm.obj
 0001:0001bfb0       ?DrawSplitter@?$CSplitterImpl@V?$CHydraSplitterWindowT@$0A@@@$0A@@WTL@@QAEXV?$CDCT@$0A@@2@@Z 0041cfb0 f i ChildFrm.obj
 0001:0001c0c0       ??1?$CDCT@$0A@@WTL@@QAE@XZ 0041d0c0 f i ChildFrm.obj
 0001:0001c0e0       ?IsOverSplitterBar@?$CSplitterImpl@V?$CHydraSplitterWindowT@$0A@@@$0A@@WTL@@QBE_NHH@Z 0041d0e0 f i ChildFrm.obj
 0001:0001c1a0       ?DrawGhostBar@?$CSplitterImpl@V?$CHydraSplitterWindowT@$0A@@@$0A@@WTL@@QAEXXZ 0041d1a0 f i ChildFrm.obj
 0001:0001c2f0       ?GetSystemSettings@?$CSplitterImpl@V?$CHydraSplitterWindowT@$0A@@@$0A@@WTL@@QAEX_N@Z 0041d2f0 f i ChildFrm.obj
 0001:0001c3a0       ?UpdateProportionalPos@?$CSplitterImpl@V?$CHydraSplitterWindowT@$0A@@@$0A@@WTL@@QAEXXZ 0041d3a0 f i ChildFrm.obj
 0001:0001c450       ?UpdateRightAlignPos@?$CSplitterImpl@V?$CHydraSplitterWindowT@$0A@@@$0A@@WTL@@QAEXXZ 0041d450 f i ChildFrm.obj
 0001:0001c4f0       ?DrawSplitter@?$CSplitterImpl@V?$CHydraSplitterWindowT@$00@@$00@WTL@@QAEXV?$CDCT@$0A@@2@@Z 0041d4f0 f i ChildFrm.obj
 0001:0001c600       ?IsOverSplitterBar@?$CSplitterImpl@V?$CHydraSplitterWindowT@$00@@$00@WTL@@QBE_NHH@Z 0041d600 f i ChildFrm.obj
 0001:0001c6c0       ?DrawGhostBar@?$CSplitterImpl@V?$CHydraSplitterWindowT@$00@@$00@WTL@@QAEXXZ 0041d6c0 f i ChildFrm.obj
 0001:0001c810       ?GetSystemSettings@?$CSplitterImpl@V?$CHydraSplitterWindowT@$00@@$00@WTL@@QAEX_N@Z 0041d810 f i ChildFrm.obj
 0001:0001c8c0       ?UpdateProportionalPos@?$CSplitterImpl@V?$CHydraSplitterWindowT@$00@@$00@WTL@@QAEXXZ 0041d8c0 f i ChildFrm.obj
 0001:0001c970       ?UpdateRightAlignPos@?$CSplitterImpl@V?$CHydraSplitterWindowT@$00@@$00@WTL@@QAEXXZ 0041d970 f i ChildFrm.obj
 0001:0001ca10       ?CreatePen@?$CPenT@$00@WTL@@QAEPAUHPEN__@@HHK@Z 0041da10 f i ChildFrm.obj
 0001:0001ca40       ?CreatePen@?$CPenT@$00@WTL@@QAEPAUHPEN__@@HHPBUtagLOGBRUSH@@HPBK@Z 0041da40 f i ChildFrm.obj
 0001:0001ca80       ?DrawSplitterBar@?$CHydraSplitterWindowT@$0A@@@QAEXV?$CDCT@$0A@@WTL@@@Z 0041da80 f i ChildFrm.obj
 0001:0001cb20       ?DrawSplitterPane@?$CSplitterImpl@V?$CHydraSplitterWindowT@$0A@@@$0A@@WTL@@QAEXV?$CDCT@$0A@@2@H@Z 0041db20 f i ChildFrm.obj
 0001:0001cbe0       ?IsOverSplitterRect@?$CSplitterImpl@V?$CHydraSplitterWindowT@$00@@$00@WTL@@QBE_NHH@Z 0041dbe0 f i ChildFrm.obj
 0001:0001cbe0       ?IsOverSplitterRect@?$CSplitterImpl@V?$CHydraSplitterWindowT@$0A@@@$0A@@WTL@@QBE_NHH@Z 0041dbe0 f i ChildFrm.obj
 0001:0001cc40       ?DrawSplitterBar@?$CHydraSplitterWindowT@$00@@QAEXV?$CDCT@$0A@@WTL@@@Z 0041dc40 f i ChildFrm.obj
 0001:0001cce0       ?DrawSplitterPane@?$CSplitterImpl@V?$CHydraSplitterWindowT@$00@@$00@WTL@@QAEXV?$CDCT@$0A@@2@H@Z 0041dce0 f i ChildFrm.obj
 0001:0001cda0       ?CreateInstance@?$CTabDockingBox@U?$CDockingBoxTraits@UCVC7LikeCaption@dockwins@@$0IGMPAAAA@$0IA@@dockwins@@@dockwins@@SAPAUHWND__@@PAU3@@Z 0041dda0 f i ChildFrm.obj
 0001:0001ce60       ??0?$CHotBtnTracker@VCVC7LikeExCaption@dockwins@@@CCaptionBase@dockwins@@QAE@AAUCButton@12@AAVCVC7LikeExCaption@2@PAUHWND__@@H@Z 0041de60 f i ChildFrm.obj
 0001:0001cf20       ??0?$CTabDockingBox@U?$CDockingBoxTraits@UCVC7LikeCaption@dockwins@@$0IGMPAAAA@$0IA@@dockwins@@@dockwins@@QAE@XZ 0041df20 f i ChildFrm.obj
 0001:0001cfb0       ?ProcessWindowMessage@?$CTabDockingBox@U?$CDockingBoxTraits@UCVC7LikeCaption@dockwins@@$0IGMPAAAA@$0IA@@dockwins@@@dockwins@@UAEHPAUHWND__@@IIJAAJK@Z 0041dfb0 f i ChildFrm.obj
 0001:0001d220       ?ProcessWindowMessage@?$CBoxedDockingWindowBaseImpl@V?$CTabDockingBox@U?$CDockingBoxTraits@UCVC7LikeCaption@dockwins@@$0IGMPAAAA@$0IA@@dockwins@@@dockwins@@VCWindow@ATL@@U?$CDockingBoxTraits@UCVC7LikeCaption@dockwins@@$0IGMPAAAA@$0IA@@2@@dockwins@@UAEHPAUHWND__@@IIJAAJK@Z 0041e220 f i ChildFrm.obj
 0001:0001d2f0       ?ProcessWindowMessage@?$CTitleDockingWindowImpl@V?$CTabDockingBox@U?$CDockingBoxTraits@UCVC7LikeCaption@dockwins@@$0IGMPAAAA@$0IA@@dockwins@@@dockwins@@VCWindow@ATL@@U?$CDockingBoxTraits@UCVC7LikeCaption@dockwins@@$0IGMPAAAA@$0IA@@2@@dockwins@@UAEHPAUHWND__@@IIJAAJK@Z 0041e2f0 f i ChildFrm.obj
 0001:0001d3c0       ?ProcessWindowMessage@?$CTitleDockingWindowBaseImpl@V?$CTabDockingBox@U?$CDockingBoxTraits@UCVC7LikeCaption@dockwins@@$0IGMPAAAA@$0IA@@dockwins@@@dockwins@@VCWindow@ATL@@U?$CDockingBoxTraits@UCVC7LikeCaption@dockwins@@$0IGMPAAAA@$0IA@@2@@dockwins@@UAEHPAUHWND__@@IIJAAJK@Z 0041e3c0 f i ChildFrm.obj
 0001:0001d730       ?ProcessWindowMessage@?$CDockingWindowBaseImpl@V?$CTabDockingBox@U?$CDockingBoxTraits@UCVC7LikeCaption@dockwins@@$0IGMPAAAA@$0IA@@dockwins@@@dockwins@@VCWindow@ATL@@U?$CDockingBoxTraits@UCVC7LikeCaption@dockwins@@$0IGMPAAAA@$0IA@@2@@dockwins@@UAEHPAUHWND__@@IIJAAJK@Z 0041e730 f i ChildFrm.obj
 0001:0001d8c0       ?DeleteItem@CFlyingTabCtrl@dockwins@@QAEHH_N@Z 0041e8c0 f i ChildFrm.obj
 0001:0001d8e0       ?DeleteItem@CFlyingTabCtrl@dockwins@@QAEHI_N0@Z 0041e8e0 f i ChildFrm.obj
 0001:0001d910       ?DeleteItem@?$CCustomTabCtrl@VCFlyingTabCtrl@dockwins@@VCTabViewTabItem@@VCWindow@ATL@@V?$CWinTraits@$0FGAAEAAA@$0A@@5@@@QAEHI_N0@Z 0041e910 f i ChildFrm.obj
 0001:0001db10       ?GetDlgCtrlID@CWindow@ATL@@QBEHXZ 0041eb10 f i ChildFrm.obj
 0001:0001db30       ?DeleteItem@CFlyingTabCtrl@dockwins@@QAEXPAVCTabViewTabItem@@@Z 0041eb30 f i ChildFrm.obj
 0001:0001db50       ?DeleteItem@?$CCustomTabCtrl@V?$CDotNetTabCtrl@VCTabViewTabItem@@@@VCTabViewTabItem@@VCWindow@ATL@@V?$CWinTraits@$0FGAAEAAA@$0A@@4@@@QAEXPAVCTabViewTabItem@@@Z 0041eb50 f i HydraIRC.obj
 0001:0001db50       ?DeleteItem@?$CCustomTabCtrl@VCFlyingTabCtrl@dockwins@@VCTabViewTabItem@@VCWindow@ATL@@V?$CWinTraits@$0FGAAEAAA@$0A@@5@@@QAEXPAVCTabViewTabItem@@@Z 0041eb50 f i ChildFrm.obj
 0001:0001db90       ?GetItemHWND@?$CTabDockingBox@U?$CDockingBoxTraits@VCVC7LikeExCaption@dockwins@@$0IGMPAAAA@$0IA@@dockwins@@@dockwins@@QBEPAUHWND__@@H@Z 0041eb90 f i EventLogFrm.obj
 0001:0001db90       ?GetItemHWND@?$CTabDockingBox@U?$CDockingBoxTraits@UCVC7LikeCaption@dockwins@@$0IGMPAAAA@$0IA@@dockwins@@@dockwins@@QBEPAUHWND__@@H@Z 0041eb90 f i ChildFrm.obj
 0001:0001dbb0       ?GetItemData@CFlyingTabCtrl@dockwins@@QBEKH@Z 0041ebb0 f i ChildFrm.obj
 0001:0001dbd0       ?OnCreate@?$CTabDockingBox@U?$CDockingBoxTraits@VCVC7LikeExCaption@dockwins@@$0IGMPAAAA@$0IA@@dockwins@@@dockwins@@QAEJIIJAAH@Z 0041ebd0 f i EventLogFrm.obj
 0001:0001dbd0       ?OnCreate@?$CTabDockingBox@U?$CDockingBoxTraits@UCVC7LikeCaption@dockwins@@$0IGMPAAAA@$0IA@@dockwins@@@dockwins@@QAEJIIJAAH@Z 0041ebd0 f i ChildFrm.obj
 0001:0001dc60       ?Create@CImageList@WTL@@QAEHHHIHH@Z 0041ec60 f i ChildFrm.obj
 0001:0001dca0       ?OnSize@?$CTabDockingBox@U?$CDockingBoxTraits@UCVC7LikeCaption@dockwins@@$0IGMPAAAA@$0IA@@dockwins@@@dockwins@@QAEJIIJAAH@Z 0041eca0 f i ChildFrm.obj
 0001:0001dca0       ?OnSize@?$CTabDockingBox@U?$CDockingBoxTraits@VCVC7LikeExCaption@dockwins@@$0IGMPAAAA@$0IA@@dockwins@@@dockwins@@QAEJIIJAAH@Z 0041eca0 f i EventLogFrm.obj
 0001:0001dcf0       ?SetWindowPos@CFlyingTabCtrl@dockwins@@QAEHPAUHWND__@@PBUtagRECT@@I@Z 0041ecf0 f i ChildFrm.obj
 0001:0001dd40       ?AdjustTabRect@CFlyingTabCtrl@dockwins@@IBEXPAUtagRECT@@@Z 0041ed40 f i ChildFrm.obj
 0001:0001ddd0       ?Destroy@CImageList@WTL@@QAEHXZ 0041edd0 f i ChildFrm.obj
 0001:0001de10       ?OnTabSelChange@?$CTabDockingBox@U?$CDockingBoxTraits@VCVC7LikeExCaption@dockwins@@$0IGMPAAAA@$0IA@@dockwins@@@dockwins@@QAEJHPAUtagNMHDR@@AAH@Z 0041ee10 f i EventLogFrm.obj
 0001:0001de10       ?OnTabSelChange@?$CTabDockingBox@U?$CDockingBoxTraits@UCVC7LikeCaption@dockwins@@$0IGMPAAAA@$0IA@@dockwins@@@dockwins@@QAEJHPAUtagNMHDR@@AAH@Z 0041ee10 f i ChildFrm.obj
 0001:0001dee0       ?OnTabDblClk@?$CTabDockingBox@U?$CDockingBoxTraits@VCVC7LikeExCaption@dockwins@@$0IGMPAAAA@$0IA@@dockwins@@@dockwins@@QAEJHPAUtagNMHDR@@AAH@Z 0041eee0 f i EventLogFrm.obj
 0001:0001dee0       ?OnTabDblClk@?$CTabDockingBox@U?$CDockingBoxTraits@UCVC7LikeCaption@dockwins@@$0IGMPAAAA@$0IA@@dockwins@@@dockwins@@QAEJHPAUtagNMHDR@@AAH@Z 0041eee0 f i ChildFrm.obj
 0001:0001df40       ?Create@?$CDockingBoxBaseImpl@V?$CTabDockingBox@U?$CDockingBoxTraits@UCVC7LikeCaption@dockwins@@$0IGMPAAAA@$0IA@@dockwins@@@dockwins@@VCWindow@ATL@@U?$CDockingBoxTraits@UCVC7LikeCaption@dockwins@@$0IGMPAAAA@$0IA@@2@@dockwins@@QAEPAUHWND__@@PAU3@@Z 0041ef40 f i ChildFrm.obj
 0001:0001df80       ??0CRect@WTL@@QAE@HHHH@Z   0041ef80 f i ChildFrm.obj
 0001:0001dfc0       ?OnDockingBoxMessage@?$CBoxedDockingWindowBaseImpl@V?$CTabDockingBox@U?$CDockingBoxTraits@UCVC7LikeCaption@dockwins@@$0IGMPAAAA@$0IA@@dockwins@@@dockwins@@VCWindow@ATL@@U?$CDockingBoxTraits@UCVC7LikeCaption@dockwins@@$0IGMPAAAA@$0IA@@2@@dockwins@@IAEJIIJAAH@Z 0041efc0 f i ChildFrm.obj
 0001:0001dfc0       ?OnDockingBoxMessage@?$CBoxedDockingWindowBaseImpl@V?$CTabDockingBox@U?$CDockingBoxTraits@VCVC7LikeExCaption@dockwins@@$0IGMPAAAA@$0IA@@dockwins@@@dockwins@@VCWindow@ATL@@U?$CDockingBoxTraits@VCVC7LikeExCaption@dockwins@@$0IGMPAAAA@$0IA@@2@@dockwins@@IAEJIIJAAH@Z 0041efc0 f i EventLogFrm.obj
 0001:0001e0d0       ??0?$CPaneContainerImpl@VCHydraPaneContainer@@VCWindow@ATL@@V?$CWinTraits@$0FGAAAAAA@$0A@@3@@WTL@@QAE@XZ 0041f0d0 f i ChildFrm.obj
 0001:0001e160       ??0?$CStaticT@VCWindow@ATL@@@WTL@@QAE@PAUHWND__@@@Z 0041f160 f i AboutDlg.obj
 0001:0001e160       ??0CDocker@dockwins@@QAE@PAUHWND__@@@Z 0041f160 f i ChildFrm.obj
 0001:0001e160       ??0?$CProgressBarCtrlT@VCWindow@ATL@@@WTL@@QAE@PAUHWND__@@@Z 0041f160 f i Server.obj
 0001:0001e160       ??0?$CListViewCtrlT@VCWindow@ATL@@@WTL@@QAE@PAUHWND__@@@Z 0041f160 f i EventLogFrm.obj
 0001:0001e160       ??0?$CReBarCtrlT@VCWindow@ATL@@@WTL@@QAE@PAUHWND__@@@Z 0041f160 f i MainFrm.obj
 0001:0001e160       ??0?$CButtonT@VCWindow@ATL@@@WTL@@QAE@PAUHWND__@@@Z 0041f160 f i ChannelPropertiesDlg.obj
 0001:0001e160       ??0?$CEditT@VCWindow@ATL@@@WTL@@QAE@PAUHWND__@@@Z 0041f160 f i ChannelPropertiesDlg.obj
 0001:0001e160       ??0?$CListBoxT@VCWindow@ATL@@@WTL@@QAE@PAUHWND__@@@Z 0041f160 f i ConnectDlg.obj
 0001:0001e160       ??0?$CRichEditCtrlT@VCWindow@ATL@@@WTL@@QAE@PAUHWND__@@@Z 0041f160 f i ChildFrm.obj
 0001:0001e160       ??0?$CToolBarCtrlT@VCWindow@ATL@@@WTL@@QAE@PAUHWND__@@@Z 0041f160 f i ChildFrm.obj
 0001:0001e160       ??0?$CStatusBarCtrlT@VCWindow@ATL@@@WTL@@QAE@PAUHWND__@@@Z 0041f160 f i HydraIRC.obj
 0001:0001e160       ??0?$CTreeViewCtrlT@VCWindow@ATL@@@WTL@@QAE@PAUHWND__@@@Z 0041f160 f i ChildFrm.obj
 0001:0001e160       ??0?$CComboBoxT@VCWindow@ATL@@@WTL@@QAE@PAUHWND__@@@Z 0041f160 f i ConnectDlg.obj
 0001:0001e160       ??0?$CToolTipCtrlT@VCWindow@ATL@@@WTL@@QAE@PAUHWND__@@@Z 0041f160 f i ChildFrm.obj
 0001:0001e180       ?ProcessWindowMessage@?$CPaneContainerImpl@VCHydraPaneContainer@@VCWindow@ATL@@V?$CWinTraits@$0FGAAAAAA@$0A@@3@@WTL@@UAEHPAUHWND__@@IIJAAJK@Z 0041f180 f i ChildFrm.obj
 0001:0001e3b0       ?OnSysColorChange@?$CTitleDockingWindowBaseImpl@V?$CTabDockingBox@U?$CDockingBoxTraits@VCVC7LikeExCaption@dockwins@@$0IGMPAAAA@$0IA@@dockwins@@@dockwins@@VCWindow@ATL@@U?$CDockingBoxTraits@VCVC7LikeExCaption@dockwins@@$0IGMPAAAA@$0IA@@2@@dockwins@@QAEJIIJAAH@Z 0041f3b0 f i EventLogFrm.obj
 0001:0001e3b0       ?OnSettingChange@?$CTitleDockingWindowBaseImpl@V?$CTabDockingBox@U?$CDockingBoxTraits@UCVC7LikeCaption@dockwins@@$0IGMPAAAA@$0IA@@dockwins@@@dockwins@@VCWindow@ATL@@U?$CDockingBoxTraits@UCVC7LikeCaption@dockwins@@$0IGMPAAAA@$0IA@@2@@dockwins@@QAEJIIJAAH@Z 0041f3b0 f i ChildFrm.obj
 0001:0001e3b0       ?OnSettingChange@?$CTitleDockingWindowBaseImpl@V?$CTabDockingBox@U?$CDockingBoxTraits@VCVC7LikeExCaption@dockwins@@$0IGMPAAAA@$0IA@@dockwins@@@dockwins@@VCWindow@ATL@@U?$CDockingBoxTraits@VCVC7LikeExCaption@dockwins@@$0IGMPAAAA@$0IA@@2@@dockwins@@QAEJIIJAAH@Z 0041f3b0 f i EventLogFrm.obj
 0001:0001e3b0       ?OnSysColorChange@?$CTitleDockingWindowBaseImpl@V?$CTabDockingBox@U?$CDockingBoxTraits@UCVC7LikeCaption@dockwins@@$0IGMPAAAA@$0IA@@dockwins@@@dockwins@@VCWindow@ATL@@U?$CDockingBoxTraits@UCVC7LikeCaption@dockwins@@$0IGMPAAAA@$0IA@@2@@dockwins@@QAEJIIJAAH@Z 0041f3b0 f i ChildFrm.obj
 0001:0001e430       ?OnNcCalcSize@?$CTitleDockingWindowBaseImpl@V?$CTabDockingBox@U?$CDockingBoxTraits@UCVC7LikeCaption@dockwins@@$0IGMPAAAA@$0IA@@dockwins@@@dockwins@@VCWindow@ATL@@U?$CDockingBoxTraits@UCVC7LikeCaption@dockwins@@$0IGMPAAAA@$0IA@@2@@dockwins@@QAEJIIJAAH@Z 0041f430 f i ChildFrm.obj
 0001:0001e430       ?OnNcCalcSize@?$CTitleDockingWindowBaseImpl@V?$CTabDockingBox@U?$CDockingBoxTraits@VCVC7LikeExCaption@dockwins@@$0IGMPAAAA@$0IA@@dockwins@@@dockwins@@VCWindow@ATL@@U?$CDockingBoxTraits@VCVC7LikeExCaption@dockwins@@$0IGMPAAAA@$0IA@@2@@dockwins@@QAEJIIJAAH@Z 0041f430 f i EventLogFrm.obj
 0001:0001e4b0       ?OnNcHitTest@?$CTitleDockingWindowBaseImpl@V?$CTabDockingBox@U?$CDockingBoxTraits@VCVC7LikeExCaption@dockwins@@$0IGMPAAAA@$0IA@@dockwins@@@dockwins@@VCWindow@ATL@@U?$CDockingBoxTraits@VCVC7LikeExCaption@dockwins@@$0IGMPAAAA@$0IA@@2@@dockwins@@QAEJIIJAAH@Z 0041f4b0 f i EventLogFrm.obj
 0001:0001e4b0       ?OnNcHitTest@?$CTitleDockingWindowBaseImpl@V?$CTabDockingBox@U?$CDockingBoxTraits@UCVC7LikeCaption@dockwins@@$0IGMPAAAA@$0IA@@dockwins@@@dockwins@@VCWindow@ATL@@U?$CDockingBoxTraits@UCVC7LikeCaption@dockwins@@$0IGMPAAAA@$0IA@@2@@dockwins@@QAEJIIJAAH@Z 0041f4b0 f i ChildFrm.obj
 0001:0001e530       ?OnCaptionChange@?$CAutoHidePaneImpl@V?$CAutoHideManager@U?$CDockingWindowTraits@UCVC7LikeCaption@dockwins@@$0EGMAAAAA@$0IA@@dockwins@@@dockwins@@VCWindow@ATL@@U?$CDockingWindowTraits@UCVC7LikeCaption@dockwins@@$0EGMAAAAA@$0IA@@2@@dockwins@@QAEJIIJAAH@Z 0041f530 f i HydraIRC.obj
 0001:0001e530       ?OnCaptionChange@?$CTitleDockingWindowBaseImpl@V?$CTabDockingBox@U?$CDockingBoxTraits@VCVC7LikeExCaption@dockwins@@$0IGMPAAAA@$0IA@@dockwins@@@dockwins@@VCWindow@ATL@@U?$CDockingBoxTraits@VCVC7LikeExCaption@dockwins@@$0IGMPAAAA@$0IA@@2@@dockwins@@QAEJIIJAAH@Z 0041f530 f i EventLogFrm.obj
 0001:0001e530       ?OnCaptionChange@?$CTitleDockingWindowBaseImpl@V?$CTabDockingBox@U?$CDockingBoxTraits@UCVC7LikeCaption@dockwins@@$0IGMPAAAA@$0IA@@dockwins@@@dockwins@@VCWindow@ATL@@U?$CDockingBoxTraits@UCVC7LikeCaption@dockwins@@$0IGMPAAAA@$0IA@@2@@dockwins@@QAEJIIJAAH@Z 0041f530 f i ChildFrm.obj
 0001:0001e5c0       ?OnClose@?$CDockingWindowBaseImpl@V?$CTabDockingBox@U?$CDockingBoxTraits@VCVC7LikeExCaption@dockwins@@$0IGMPAAAA@$0IA@@dockwins@@@dockwins@@VCWindow@ATL@@U?$CDockingBoxTraits@VCVC7LikeExCaption@dockwins@@$0IGMPAAAA@$0IA@@2@@dockwins@@QAEJIIJAAH@Z 0041f5c0 f i EventLogFrm.obj
 0001:0001e5c0       ?OnClose@?$CDockingWindowBaseImpl@V?$CTabDockingBox@U?$CDockingBoxTraits@UCVC7LikeCaption@dockwins@@$0IGMPAAAA@$0IA@@dockwins@@@dockwins@@VCWindow@ATL@@U?$CDockingBoxTraits@UCVC7LikeCaption@dockwins@@$0IGMPAAAA@$0IA@@2@@dockwins@@QAEJIIJAAH@Z 0041f5c0 f i ChildFrm.obj
 0001:0001e600       ?OnNcLButtonDown@?$CDockingWindowBaseImpl@V?$CTabDockingBox@U?$CDockingBoxTraits@UCVC7LikeCaption@dockwins@@$0IGMPAAAA@$0IA@@dockwins@@@dockwins@@VCWindow@ATL@@U?$CDockingBoxTraits@UCVC7LikeCaption@dockwins@@$0IGMPAAAA@$0IA@@2@@dockwins@@QAEJIIJAAH@Z 0041f600 f i ChildFrm.obj
 0001:0001e600       ?OnNcLButtonDown@?$CDockingWindowBaseImpl@V?$CTabDockingBox@U?$CDockingBoxTraits@VCVC7LikeExCaption@dockwins@@$0IGMPAAAA@$0IA@@dockwins@@@dockwins@@VCWindow@ATL@@U?$CDockingBoxTraits@VCVC7LikeExCaption@dockwins@@$0IGMPAAAA@$0IA@@2@@dockwins@@QAEJIIJAAH@Z 0041f600 f i EventLogFrm.obj
 0001:0001e6a0       ?OnDockStateChanged@?$CDockingWindowBaseImpl@V?$CTabDockingBox@U?$CDockingBoxTraits@UCVC7LikeCaption@dockwins@@$0IGMPAAAA@$0IA@@dockwins@@@dockwins@@VCWindow@ATL@@U?$CDockingBoxTraits@UCVC7LikeCaption@dockwins@@$0IGMPAAAA@$0IA@@2@@dockwins@@QAEJIIJAAH@Z 0041f6a0 f i ChildFrm.obj
 0001:0001e700       ?OnAcceptDock@?$CTabDockingBox@U?$CDockingBoxTraits@VCVC7LikeExCaption@dockwins@@$0IGMPAAAA@$0IA@@dockwins@@@dockwins@@QAEJPAUtagDFDOCKRECT@2@@Z 0041f700 f i EventLogFrm.obj
 0001:0001e700       ?OnAcceptDock@?$CTabDockingBox@U?$CDockingBoxTraits@UCVC7LikeCaption@dockwins@@$0IGMPAAAA@$0IA@@dockwins@@@dockwins@@QAEJPAUtagDFDOCKRECT@2@@Z 0041f700 f i ChildFrm.obj
 0001:0001eaf0       ?SwapItemPositions@?$CCustomTabCtrl@VCFlyingTabCtrl@dockwins@@VCTabViewTabItem@@VCWindow@ATL@@V?$CWinTraits@$0FGAAEAAA@$0A@@5@@@QAEHII_N0@Z 0041faf0 f i ChildFrm.obj
 0001:0001ec40       ?HitTest@?$CCustomTabCtrl@VCFlyingTabCtrl@dockwins@@VCTabViewTabItem@@VCWindow@ATL@@V?$CWinTraits@$0FGAAEAAA@$0A@@5@@@QBEHPAUtagCTCHITTESTINFO@@@Z 0041fc40 f i ChildFrm.obj
 0001:0001ec40       ?HitTest@?$CCustomTabCtrl@V?$CDotNetTabCtrl@VCTabViewTabItem@@@@VCTabViewTabItem@@VCWindow@ATL@@V?$CWinTraits@$0FGAAEAAA@$0A@@4@@@QBEHPAUtagCTCHITTESTINFO@@@Z 0041fc40 f i HydraIRC.obj
 0001:0001ed70       ?OnDock@?$CTabDockingBox@U?$CDockingBoxTraits@VCVC7LikeExCaption@dockwins@@$0IGMPAAAA@$0IA@@dockwins@@@dockwins@@QAEJPAUtagDFDOCKRECT@2@@Z 0041fd70 f i EventLogFrm.obj
 0001:0001ed70       ?OnDock@?$CTabDockingBox@U?$CDockingBoxTraits@UCVC7LikeCaption@dockwins@@$0IGMPAAAA@$0IA@@dockwins@@@dockwins@@QAEJPAUtagDFDOCKRECT@2@@Z 0041fd70 f i ChildFrm.obj
 0001:0001ede0       ?OnActivate@?$CTabDockingBox@U?$CDockingBoxTraits@VCVC7LikeExCaption@dockwins@@$0IGMPAAAA@$0IA@@dockwins@@@dockwins@@QAEJPAUtagDFMHDR@2@@Z 0041fde0 f i EventLogFrm.obj
 0001:0001ede0       ?OnActivate@?$CTabDockingBox@U?$CDockingBoxTraits@UCVC7LikeCaption@dockwins@@$0IGMPAAAA@$0IA@@dockwins@@@dockwins@@QAEJPAUtagDFMHDR@2@@Z 0041fde0 f i ChildFrm.obj
 0001:0001ee50       ?PrepareForUndock@?$CTabDockingBox@U?$CDockingBoxTraits@UCVC7LikeCaption@dockwins@@$0IGMPAAAA@$0IA@@dockwins@@@dockwins@@QAEXVCWindow@ATL@@@Z 0041fe50 f i ChildFrm.obj
 0001:0001ee50       ?PrepareForUndock@?$CTabDockingBox@U?$CDockingBoxTraits@VCVC7LikeExCaption@dockwins@@$0IGMPAAAA@$0IA@@dockwins@@@dockwins@@QAEXVCWindow@ATL@@@Z 0041fe50 f i EventLogFrm.obj
 0001:0001eec0       ?SetParent@CWindow@ATL@@QAE?AV12@PAUHWND__@@@Z 0041fec0 f i ChildFrm.obj
 0001:0001eef0       ?AdjustCurentItem@?$CTabDockingBox@U?$CDockingBoxTraits@VCVC7LikeExCaption@dockwins@@$0IGMPAAAA@$0IA@@dockwins@@@dockwins@@QAEXXZ 0041fef0 f i EventLogFrm.obj
 0001:0001eef0       ?AdjustCurentItem@?$CTabDockingBox@U?$CDockingBoxTraits@UCVC7LikeCaption@dockwins@@$0IGMPAAAA@$0IA@@dockwins@@@dockwins@@QAEXXZ 0041fef0 f i ChildFrm.obj
 0001:0001ef50       ?AdjustRect@CFlyingTabCtrl@dockwins@@QBEHHPAUtagRECT@@@Z 0041ff50 f i ChildFrm.obj
 0001:0001f000       ?OnGetDockingPosition@?$CTabDockingBox@U?$CDockingBoxTraits@VCVC7LikeExCaption@dockwins@@$0IGMPAAAA@$0IA@@dockwins@@@dockwins@@QBE_NPAUtagDFDOCKPOS@2@@Z 00420000 f i EventLogFrm.obj
 0001:0001f000       ?OnGetDockingPosition@?$CTabDockingBox@U?$CDockingBoxTraits@UCVC7LikeCaption@dockwins@@$0IGMPAAAA@$0IA@@dockwins@@@dockwins@@QBE_NPAUtagDFDOCKPOS@2@@Z 00420000 f i ChildFrm.obj
 0001:0001f0a0       ?OnValidateFailed@?$CFolderDialogImpl@VCFolderDialog@WTL@@@WTL@@QAEHPBD@Z 004200a0 f i Prefs_MiscPage.obj
 0001:0001f0a0       ?OnIsBox@?$CBoxedDockingWindowBaseImpl@V?$CTabDockingBox@U?$CDockingBoxTraits@VCVC7LikeExCaption@dockwins@@$0IGMPAAAA@$0IA@@dockwins@@@dockwins@@VCWindow@ATL@@U?$CDockingBoxTraits@VCVC7LikeExCaption@dockwins@@$0IGMPAAAA@$0IA@@2@@dockwins@@QAEJPAUtagDFMHDR@2@@Z 004200a0 f i EventLogFrm.obj
 0001:0001f0a0       ?OnIsBox@?$CBoxedDockingWindowBaseImpl@VCServerMonitorView@@VCWindow@ATL@@U?$CBoxedDockingWindowTraits@VCVC7LikeExCaption@dockwins@@V?$CTabDockingBox@U?$CDockingBoxTraits@VCVC7LikeExCaption@dockwins@@$0IGMPAAAA@$0IA@@dockwins@@@2@$0JGMPAAAA@$0IA@@dockwins@@@dockwins@@QAEJPAUtagDFMHDR@2@@Z 004200a0 f i HydraIRC.obj
 0001:0001f0a0       ?OnIsBox@?$CBoxedDockingWindowBaseImpl@VCTextQueueView@@VCWindow@ATL@@U?$CBoxedDockingWindowTraits@VCVC7LikeExCaption@dockwins@@V?$CTabDockingBox@U?$CDockingBoxTraits@VCVC7LikeExCaption@dockwins@@$0IGMPAAAA@$0IA@@dockwins@@@2@$0JGMPAAAA@$0IA@@dockwins@@@dockwins@@QAEJPAUtagDFMHDR@2@@Z 004200a0 f i TextQueueFrm.obj
 0001:0001f0a0       ?OnIsBox@?$CBoxedDockingWindowBaseImpl@VCEventLogView@@VCWindow@ATL@@U?$CBoxedDockingWindowTraits@VCVC7LikeExCaption@dockwins@@V?$CTabDockingBox@U?$CDockingBoxTraits@VCVC7LikeExCaption@dockwins@@$0IGMPAAAA@$0IA@@dockwins@@@2@$0JGMPAAAA@$0IA@@dockwins@@@dockwins@@QAEJPAUtagDFMHDR@2@@Z 004200a0 f i EventLogFrm.obj
 0001:0001f0a0       ?OnIsBox@?$CBoxedDockingWindowBaseImpl@VCChannelMonitorView@@VCWindow@ATL@@U?$CBoxedDockingWindowTraits@VCVC7LikeExCaption@dockwins@@V?$CTabDockingBox@U?$CDockingBoxTraits@VCVC7LikeExCaption@dockwins@@$0IGMPAAAA@$0IA@@dockwins@@@2@$0JGMPAAAA@$0IA@@dockwins@@@dockwins@@QAEJPAUtagDFMHDR@2@@Z 004200a0 f i HydraIRC.obj
 0001:0001f0a0       ?OnIsBox@?$CBoxedDockingWindowBaseImpl@VCOutputView@@VCWindow@ATL@@U?$CBoxedDockingWindowTraits@VCVC7LikeExCaption@dockwins@@V?$CTabDockingBox@U?$CDockingBoxTraits@VCVC7LikeExCaption@dockwins@@$0IGMPAAAA@$0IA@@dockwins@@@2@$0JGMPAAAA@$0IA@@dockwins@@@dockwins@@QAEJPAUtagDFMHDR@2@@Z 004200a0 f i Output.obj
 0001:0001f0a0       ?OnIsBox@?$CBoxedDockingWindowBaseImpl@V?$CTabDockingBox@U?$CDockingBoxTraits@UCVC7LikeCaption@dockwins@@$0IGMPAAAA@$0IA@@dockwins@@@dockwins@@VCWindow@ATL@@U?$CDockingBoxTraits@UCVC7LikeCaption@dockwins@@$0IGMPAAAA@$0IA@@2@@dockwins@@QAEJPAUtagDFMHDR@2@@Z 004200a0 f i ChildFrm.obj
 0001:0001f0a0       ?OnIsBox@?$CBoxedDockingWindowBaseImpl@VCTransfersView@@VCWindow@ATL@@U?$CBoxedDockingWindowTraits@VCVC7LikeExCaption@dockwins@@V?$CTabDockingBox@U?$CDockingBoxTraits@VCVC7LikeExCaption@dockwins@@$0IGMPAAAA@$0IA@@dockwins@@@2@$0JGMPAAAA@$0IA@@dockwins@@@dockwins@@QAEJPAUtagDFMHDR@2@@Z 004200a0 f i Transfers.obj
 0001:0001f0a0       ?OnIsBox@?$CBoxedDockingWindowBaseImpl@VCUserListView@@VCWindow@ATL@@U?$CBoxedDockingWindowTraits@UCVC7LikeCaption@dockwins@@V?$CTabDockingBox@U?$CDockingBoxTraits@UCVC7LikeCaption@dockwins@@$0IGMPAAAA@$0IA@@dockwins@@@2@$0JGMPAAAA@$0IA@@dockwins@@@dockwins@@QAEJPAUtagDFMHDR@2@@Z 004200a0 f i ChildFrm.obj
 0001:0001f0a0       ?OnIsBox@?$CBoxedDockingWindowBaseImpl@VCServerListView@@VCWindow@ATL@@U?$CBoxedDockingWindowTraits@UCVC7LikeCaption@dockwins@@V?$CTabDockingBox@U?$CDockingBoxTraits@UCVC7LikeCaption@dockwins@@$0IGMPAAAA@$0IA@@dockwins@@@2@$0JGMPAAAA@$0IA@@dockwins@@@dockwins@@QAEJPAUtagDFMHDR@2@@Z 004200a0 f i HydraIRC.obj
 0001:0001f0c0       ?OnPinBtnPress@?$CBoxedDockingWindowBaseImpl@V?$CTabDockingBox@U?$CDockingBoxTraits@UCVC7LikeCaption@dockwins@@$0IGMPAAAA@$0IA@@dockwins@@@dockwins@@VCWindow@ATL@@U?$CDockingBoxTraits@UCVC7LikeCaption@dockwins@@$0IGMPAAAA@$0IA@@2@@dockwins@@QAEJPAUtagDFPINBTNPRESS@2@@Z 004200c0 f i ChildFrm.obj
 0001:0001f0c0       ?OnPinBtnPress@?$CBoxedDockingWindowBaseImpl@V?$CTabDockingBox@U?$CDockingBoxTraits@VCVC7LikeExCaption@dockwins@@$0IGMPAAAA@$0IA@@dockwins@@@dockwins@@VCWindow@ATL@@U?$CDockingBoxTraits@VCVC7LikeExCaption@dockwins@@$0IGMPAAAA@$0IA@@2@@dockwins@@QAEJPAUtagDFPINBTNPRESS@2@@Z 004200c0 f i EventLogFrm.obj
 0001:0001f0f0       ?OnUndocked@?$CTitleDockingWindowBaseImpl@VCServerListView@@VCWindow@ATL@@U?$CBoxedDockingWindowTraits@UCVC7LikeCaption@dockwins@@V?$CTabDockingBox@U?$CDockingBoxTraits@UCVC7LikeCaption@dockwins@@$0IGMPAAAA@$0IA@@dockwins@@@2@$0JGMPAAAA@$0IA@@dockwins@@@dockwins@@QAEXPAUHWND__@@@Z 004200f0 f i ServerList.obj
 0001:0001f0f0       ?OnUndocked@?$CTitleDockingWindowBaseImpl@V?$CTabDockingBox@U?$CDockingBoxTraits@UCVC7LikeCaption@dockwins@@$0IGMPAAAA@$0IA@@dockwins@@@dockwins@@VCWindow@ATL@@U?$CDockingBoxTraits@UCVC7LikeCaption@dockwins@@$0IGMPAAAA@$0IA@@2@@dockwins@@QAEXPAUHWND__@@@Z 004200f0 f i ChildFrm.obj
 0001:0001f0f0       ?OnUndocked@?$CTitleDockingWindowBaseImpl@VCUserListView@@VCWindow@ATL@@U?$CBoxedDockingWindowTraits@UCVC7LikeCaption@dockwins@@V?$CTabDockingBox@U?$CDockingBoxTraits@UCVC7LikeCaption@dockwins@@$0IGMPAAAA@$0IA@@dockwins@@@2@$0JGMPAAAA@$0IA@@dockwins@@@dockwins@@QAEXPAUHWND__@@@Z 004200f0 f i ChildFrm.obj
 0001:0001f120       ?PinBtnPress@?$CTitleDockingWindowBaseImpl@V?$CTabDockingBox@U?$CDockingBoxTraits@UCVC7LikeCaption@dockwins@@$0IGMPAAAA@$0IA@@dockwins@@@dockwins@@VCWindow@ATL@@U?$CDockingBoxTraits@UCVC7LikeCaption@dockwins@@$0IGMPAAAA@$0IA@@2@@dockwins@@QAE_N_N@Z 00420120 f i ChildFrm.obj
 0001:0001f120       ?PinBtnPress@?$CTitleDockingWindowBaseImpl@V?$CTabDockingBox@U?$CDockingBoxTraits@VCVC7LikeExCaption@dockwins@@$0IGMPAAAA@$0IA@@dockwins@@@dockwins@@VCWindow@ATL@@U?$CDockingBoxTraits@VCVC7LikeExCaption@dockwins@@$0IGMPAAAA@$0IA@@2@@dockwins@@QAE_N_N@Z 00420120 f i EventLogFrm.obj
 0001:0001f1c0       ?Create@?$CDockingWindowBaseImpl@V?$CTabDockingBox@U?$CDockingBoxTraits@UCVC7LikeCaption@dockwins@@$0IGMPAAAA@$0IA@@dockwins@@@dockwins@@VCWindow@ATL@@U?$CDockingBoxTraits@UCVC7LikeCaption@dockwins@@$0IGMPAAAA@$0IA@@2@@dockwins@@QAEPAUHWND__@@PAU3@AAUtagRECT@@PBDKKIPAX@Z 004201c0 f i ChildFrm.obj
 0001:0001f220       ?GetWndStyle@?$CWindowImplBaseT@V?$CRichEditCtrlT@VCWindow@ATL@@@WTL@@V?$CWinTraits@$0FGAAAAAA@$0A@@ATL@@@ATL@@SAKK@Z 00420220 f i ChannelMonitor.obj
 0001:0001f220       ?GetWndStyle@?$CWindowImplBaseT@V?$CEditT@VCWindow@ATL@@@WTL@@V?$CWinTraits@$0FGAAAAAA@$0A@@ATL@@@ATL@@SAKK@Z 00420220 f i Prefs_MiscPage.obj
 0001:0001f220       ?GetWndStyle@?$CWindowImplBaseT@VCCommandBarCtrlBase@WTL@@V?$CWinTraits@$0FGAAAAAA@$0A@@ATL@@@ATL@@SAKK@Z 00420220 f i MainFrm.obj
 0001:0001f220       ?GetWndStyle@?$CWindowImplBaseT@VCWindow@ATL@@V?$CWinTraits@$0FGAAAAAA@$0A@@2@@ATL@@SAKK@Z 00420220 f i ChildFrm.obj
 0001:0001f240       ?GetWndExStyle@?$CWindowImplBaseT@V?$CRichEditCtrlT@VCWindow@ATL@@@WTL@@V?$CWinTraits@$0FGAAAAAA@$0A@@ATL@@@ATL@@SAKK@Z 00420240 f i ChannelMonitor.obj
 0001:0001f240       ?GetWndExStyle@?$CWindowImplBaseT@VCWindow@ATL@@V?$CWinTraits@$0FGAAEAAA@$0A@@2@@ATL@@SAKK@Z 00420240 f i ChildFrm.obj
 0001:0001f240       ?GetWndExStyle@?$CWindowImplBaseT@V?$CEditT@VCWindow@ATL@@@WTL@@V?$CWinTraits@$0FGAAAAAA@$0A@@ATL@@@ATL@@SAKK@Z 00420240 f i Prefs_MiscPage.obj
 0001:0001f240       ?GetWndExStyle@?$CWindowImplBaseT@VCCommandBarCtrlBase@WTL@@V?$CWinTraits@$0FGAAAAAA@$0A@@ATL@@@ATL@@SAKK@Z 00420240 f i MainFrm.obj
 0001:0001f240       ?GetWndExStyle@?$CWindowImplBaseT@VCWindow@ATL@@V?$CWinTraits@$0FGAAAAAA@$0A@@2@@ATL@@SAKK@Z 00420240 f i ChildFrm.obj
 0001:0001f260       ?Attach@?$CBitmapT@$0A@@WTL@@QAEXPAUHBITMAP__@@@Z 00420260 f i ChildFrm.obj
 0001:0001f260       ?Attach@?$CFontT@$0A@@WTL@@QAEXPAUHFONT__@@@Z 00420260 f i ChildFrm.obj
 0001:0001f290       ?DeleteObject@?$CPenT@$0A@@WTL@@QAEHXZ 00420290 f i ChildFrm.obj
 0001:0001f290       ?DeleteObject@?$CPenT@$00@WTL@@QAEHXZ 00420290 f i ChildFrm.obj
 0001:0001f290       ?DeleteObject@?$CFontT@$0A@@WTL@@QAEHXZ 00420290 f i ChildFrm.obj
 0001:0001f290       ?DeleteObject@?$CBrushT@$00@WTL@@QAEHXZ 00420290 f i ChildFrm.obj
 0001:0001f290       ?DeleteObject@?$CBitmapT@$0A@@WTL@@QAEHXZ 00420290 f i ChildFrm.obj
 0001:0001f290       ?DeleteObject@?$CBrushT@$0A@@WTL@@QAEHXZ 00420290 f i ChildFrm.obj
 0001:0001f290       ?DeleteObject@?$CFontT@$00@WTL@@QAEHXZ 00420290 f i ChildFrm.obj
 0001:0001f290       ?DeleteObject@?$CBitmapT@$00@WTL@@QAEHXZ 00420290 f i ChildFrm.obj
 0001:0001f2c0       ?DelTool@?$CToolTipCtrlT@VCWindow@ATL@@@WTL@@QAEXPAUHWND__@@I@Z 004202c0 f i ChildFrm.obj
 0001:0001f310       ??0CToolInfo@WTL@@QAE@IPAUHWND__@@IPAUtagRECT@@PADJ@Z 00420310 f i ChildFrm.obj
 0001:0001f340       ?Init@CToolInfo@WTL@@QAEXIPAUHWND__@@IPAUtagRECT@@PADJ@Z 00420340 f i ChildFrm.obj
 0001:0001f400       ?SetIndex@?$CTabDockingBox@U?$CDockingBoxTraits@VCVC7LikeExCaption@dockwins@@$0IGMPAAAA@$0IA@@dockwins@@@dockwins@@KAXPAUtagDFDOCKRECT@2@H@Z 00420400 f i EventLogFrm.obj
 0001:0001f400       ?SetIndex@?$CTabDockingBox@U?$CDockingBoxTraits@UCVC7LikeCaption@dockwins@@$0IGMPAAAA@$0IA@@dockwins@@@dockwins@@KAXPAUtagDFDOCKRECT@2@H@Z 00420400 f i ChildFrm.obj
 0001:0001f430       ?CenterPoint@CRect@WTL@@QBE?AVCPoint@2@XZ 00420430 f i ChildFrm.obj
 0001:0001f470       ?GetTabsRect@CFlyingTabCtrl@dockwins@@QBE_NPAUtagRECT@@@Z 00420470 f i ChildFrm.obj
 0001:0001f4a0       ?AddIcon@CImageList@WTL@@QAEHPAUHICON__@@@Z 004204a0 f i ChildFrm.obj
 0001:0001f4c0       ?InsertItem@CFlyingTabCtrl@dockwins@@QAEHHPBDHK@Z 004204c0 f i ChildFrm.obj
 0001:0001f530       ?SetImageIndex@CCustomTabItem@@QAE_NH@Z 00420530 f i ChildFrm.obj
 0001:0001f550       ?SetText@CCustomTabItem@@QAE_NPBD@Z 00420550 f i ChildFrm.obj
 0001:0001f570       ?SetToolTip@CCustomTabItem@@QAE_NPBD@Z 00420570 f i ChildFrm.obj
 0001:0001f590       ?SetTabView@CTabViewTabItem@@QAE_NPAUHWND__@@@Z 00420590 f i ChildFrm.obj
 0001:0001f5b0       ??4?$CStringT@DV?$StrTraitATL@DV?$ChTraitsCRT@D@ATL@@@ATL@@@ATL@@QAEAAV01@PBD@Z 004205b0 f i ChildFrm.obj
 0001:0001f5d0       ??0CTabViewTabItem@@QAE@XZ 004205d0 f i ChildFrm.obj
 0001:0001f600       ??0CCustomTabItem@@QAE@XZ  00420600 f i ChildFrm.obj
 0001:0001f660       ??_ECCustomTabItem@@UAEPAXI@Z 00420660 f i ChildFrm.obj
 0001:0001f660       ??_GCCustomTabItem@@UAEPAXI@Z 00420660 f i ChildFrm.obj
 0001:0001f690       ??1CCustomTabItem@@UAE@XZ  00420690 f i ChildFrm.obj
 0001:0001f6c0       ??_GCTabViewTabItem@@UAEPAXI@Z 004206c0 f i ChildFrm.obj
 0001:0001f6c0       ??_ECTabViewTabItem@@UAEPAXI@Z 004206c0 f i ChildFrm.obj
 0001:0001f6f0       ??1CTabViewTabItem@@UAE@XZ 004206f0 f i ChildFrm.obj
 0001:0001f710       ??4?$CSimpleStringT@D$0A@@ATL@@QAEAAV01@PBD@Z 00420710 f i ChildFrm.obj
 0001:0001f730       ?AddTool@?$CToolTipCtrlT@VCWindow@ATL@@@WTL@@QAEHPAUHWND__@@V_U_STRINGorID@ATL@@PBUtagRECT@@I@Z 00420730 f i ChildFrm.obj
 0001:0001f780       ?IsStillAlive@?$CTabDockingBox@U?$CDockingBoxTraits@VCVC7LikeExCaption@dockwins@@$0IGMPAAAA@$0IA@@dockwins@@@dockwins@@QAEXXZ 00420780 f i EventLogFrm.obj
 0001:0001f780       ?IsStillAlive@?$CTabDockingBox@U?$CDockingBoxTraits@UCVC7LikeCaption@dockwins@@$0IGMPAAAA@$0IA@@dockwins@@@dockwins@@QAEXXZ 00420780 f i ChildFrm.obj
 0001:0001f7d0       ?PinUp@?$CTabDockingBox@U?$CDockingBoxTraits@VCVC7LikeExCaption@dockwins@@$0IGMPAAAA@$0IA@@dockwins@@@dockwins@@QAE_NABVCDockingSide@2@K_N@Z 004207d0 f i EventLogFrm.obj
 0001:0001f7d0       ?PinUp@?$CTabDockingBox@U?$CDockingBoxTraits@UCVC7LikeCaption@dockwins@@$0IGMPAAAA@$0IA@@dockwins@@@dockwins@@QAE_NABVCDockingSide@2@K_N@Z 004207d0 f i ChildFrm.obj
 0001:0001f950       ?Create@?$CWindowImpl@V?$CTabDockingBox@U?$CDockingBoxTraits@UCVC7LikeCaption@dockwins@@$0IGMPAAAA@$0IA@@dockwins@@@dockwins@@VCWindow@ATL@@U?$CDockingBoxTraits@UCVC7LikeCaption@dockwins@@$0IGMPAAAA@$0IA@@2@@ATL@@QAEPAUHWND__@@PAU3@V_U_RECT@2@PBDKKV_U_MENUorID@2@PAX@Z 00420950 f i ChildFrm.obj
 0001:0001f9f0       ?CreatePointFontIndirect@?$CFontT@$00@WTL@@QAEPAUHFONT__@@PBUtagLOGFONTA@@PAUHDC__@@@Z 004209f0 f i ChildFrm.obj
 0001:0001fad0       ?abs@@YAJJ@Z               00420ad0 f i ChildFrm.obj
 0001:0001faf0       ??1?$CMenuT@$0A@@WTL@@QAE@XZ 00420af0 f i ChildFrm.obj
 0001:0001fb10       ?GetWndClassInfo@?$CTabDockingBox@U?$CDockingBoxTraits@UCVC7LikeCaption@dockwins@@$0IGMPAAAA@$0IA@@dockwins@@@dockwins@@SAAAU_ATL_WNDCLASSINFOA@ATL@@XZ 00420b10 f i ChildFrm.obj
 0001:0001fb20       ?GetWndStyle@?$CWindowImplBaseT@VCWindow@ATL@@U?$CDockingBoxTraits@UCVC7LikeCaption@dockwins@@$0IGMPAAAA@$0IA@@dockwins@@@ATL@@SAKK@Z 00420b20 f i ChildFrm.obj
 0001:0001fb20       ?GetWndStyle@?$CWindowImplBaseT@VCWindow@ATL@@U?$CDockingBoxTraits@VCVC7LikeExCaption@dockwins@@$0IGMPAAAA@$0IA@@dockwins@@@ATL@@SAKK@Z 00420b20 f i EventLogFrm.obj
 0001:0001fb40       ?DefaultReflectionHandler@?$CWindowImplRoot@V?$CRichEditCtrlT@VCWindow@ATL@@@WTL@@@ATL@@SAHPAUHWND__@@IIJAAJ@Z 00420b40 f i ChildFrm.obj
 0001:0001fb40       ?DefaultReflectionHandler@?$CWindowImplRoot@V?$CListBoxT@VCWindow@ATL@@@WTL@@@ATL@@SAHPAUHWND__@@IIJAAJ@Z 00420b40 f i MainFrm.obj
 0001:0001fd10       ?GetWindowLongPtrA@@YAJPAUHWND__@@H@Z 00420d10 f i ChildFrm.obj
 0001:0001fd30       ?StartWindowProc@?$CWindowImplBaseT@VCWindow@ATL@@U?$CDockingBoxTraits@UCVC7LikeCaption@dockwins@@$0IGMPAAAA@$0IA@@dockwins@@@ATL@@SGJPAUHWND__@@IIJ@Z 00420d30 f i ChildFrm.obj
 0001:0001fd30       ?StartWindowProc@?$CWindowImplBaseT@VCWindow@ATL@@U?$CDockingWindowTraits@UCVC7LikeCaption@dockwins@@$0EGMAAAAA@$0IA@@dockwins@@@ATL@@SGJPAUHWND__@@IIJ@Z 00420d30 f i HydraIRC.obj
 0001:0001fd30       ?StartWindowProc@?$CWindowImplBaseT@VCWindow@ATL@@U?$CBoxedDockingWindowTraits@UCVC7LikeCaption@dockwins@@V?$CTabDockingBox@U?$CDockingBoxTraits@UCVC7LikeCaption@dockwins@@$0IGMPAAAA@$0IA@@dockwins@@@2@$0JGMPAAAA@$0IA@@dockwins@@@ATL@@SGJPAUHWND__@@IIJ@Z 00420d30 f i ChildFrm.obj
 0001:0001fd30       ?StartWindowProc@?$CWindowImplBaseT@V?$CEditT@VCWindow@ATL@@@WTL@@V?$CWinTraits@$0FGAAAAAA@$0A@@ATL@@@ATL@@SGJPAUHWND__@@IIJ@Z 00420d30 f i Prefs_MiscPage.obj
 0001:0001fd30       ?StartWindowProc@?$CWindowImplBaseT@VCWindow@ATL@@V?$CWinTraits@$0FGAAAAAA@$0A@@2@@ATL@@SGJPAUHWND__@@IIJ@Z 00420d30 f i ChildFrm.obj
 0001:0001fd30       ?StartWindowProc@?$CWindowImplBaseT@V?$CRichEditCtrlT@VCWindow@ATL@@@WTL@@V?$CWinTraits@$0FGAAAAAA@$0A@@ATL@@@ATL@@SGJPAUHWND__@@IIJ@Z 00420d30 f i ChannelMonitor.obj
 0001:0001fd30       ?StartWindowProc@?$CWindowImplBaseT@VCWindow@ATL@@U?$CBoxedDockingWindowTraits@VCVC7LikeExCaption@dockwins@@V?$CTabDockingBox@U?$CDockingBoxTraits@VCVC7LikeExCaption@dockwins@@$0IGMPAAAA@$0IA@@dockwins@@@2@$0JGMPAAAA@$0IA@@dockwins@@@ATL@@SGJPAUHWND__@@IIJ@Z 00420d30 f i MainFrm.obj
 0001:0001fd30       ?StartWindowProc@?$CWindowImplBaseT@VCWindow@ATL@@U?$CDockingBoxTraits@VCVC7LikeExCaption@dockwins@@$0IGMPAAAA@$0IA@@dockwins@@@ATL@@SGJPAUHWND__@@IIJ@Z 00420d30 f i EventLogFrm.obj
 0001:0001fd30       ?StartWindowProc@?$CWindowImplBaseT@VCWindow@ATL@@V?$CWinTraits@$0FGAAEAAA@$0A@@2@@ATL@@SGJPAUHWND__@@IIJ@Z 00420d30 f i ChildFrm.obj
 0001:0001fdb0       ?WindowProc@?$CWindowImplBaseT@VCMDIWindow@WTL@@V?$CWinTraits@$0FGMPAAAA@$0EA@@ATL@@@ATL@@SGJPAUHWND__@@IIJ@Z 00420db0 f i ChildFrm.obj
 0001:0001ff20       ?BeginDrag@CGhostMoveTracker@?$CDockingWindowBaseImpl@V?$CTabDockingBox@U?$CDockingBoxTraits@UCVC7LikeCaption@dockwins@@$0IGMPAAAA@$0IA@@dockwins@@@dockwins@@VCWindow@ATL@@U?$CDockingBoxTraits@UCVC7LikeCaption@dockwins@@$0IGMPAAAA@$0IA@@2@@dockwins@@QAEXXZ 00420f20 f i ChildFrm.obj
 0001:0001ff20       ?BeginDrag@CGhostMoveTracker@?$CDockingWindowBaseImpl@VCServerListView@@VCWindow@ATL@@U?$CBoxedDockingWindowTraits@UCVC7LikeCaption@dockwins@@V?$CTabDockingBox@U?$CDockingBoxTraits@UCVC7LikeCaption@dockwins@@$0IGMPAAAA@$0IA@@dockwins@@@2@$0JGMPAAAA@$0IA@@dockwins@@@dockwins@@QAEXXZ 00420f20 f i HydraIRC.obj
 0001:0001ff20       ?BeginDrag@CGhostMoveTracker@?$CDockingWindowBaseImpl@V?$CTabDockingBox@U?$CDockingBoxTraits@VCVC7LikeExCaption@dockwins@@$0IGMPAAAA@$0IA@@dockwins@@@dockwins@@VCWindow@ATL@@U?$CDockingBoxTraits@VCVC7LikeExCaption@dockwins@@$0IGMPAAAA@$0IA@@2@@dockwins@@QAEXXZ 00420f20 f i EventLogFrm.obj
 0001:0001ff20       ?BeginDrag@CGhostMoveTracker@?$CDockingWindowBaseImpl@VCOutputView@@VCWindow@ATL@@U?$CBoxedDockingWindowTraits@VCVC7LikeExCaption@dockwins@@V?$CTabDockingBox@U?$CDockingBoxTraits@VCVC7LikeExCaption@dockwins@@$0IGMPAAAA@$0IA@@dockwins@@@2@$0JGMPAAAA@$0IA@@dockwins@@@dockwins@@QAEXXZ 00420f20 f i Output.obj
 0001:0001ff20       ?BeginDrag@CGhostMoveTracker@?$CDockingWindowBaseImpl@VCTransfersView@@VCWindow@ATL@@U?$CBoxedDockingWindowTraits@VCVC7LikeExCaption@dockwins@@V?$CTabDockingBox@U?$CDockingBoxTraits@VCVC7LikeExCaption@dockwins@@$0IGMPAAAA@$0IA@@dockwins@@@2@$0JGMPAAAA@$0IA@@dockwins@@@dockwins@@QAEXXZ 00420f20 f i Transfers.obj
 0001:0001ff20       ?BeginDrag@CGhostMoveTracker@?$CDockingWindowBaseImpl@VCServerMonitorView@@VCWindow@ATL@@U?$CBoxedDockingWindowTraits@VCVC7LikeExCaption@dockwins@@V?$CTabDockingBox@U?$CDockingBoxTraits@VCVC7LikeExCaption@dockwins@@$0IGMPAAAA@$0IA@@dockwins@@@2@$0JGMPAAAA@$0IA@@dockwins@@@dockwins@@QAEXXZ 00420f20 f i HydraIRC.obj
 0001:0001ff20       ?BeginDrag@CGhostMoveTracker@?$CDockingWindowBaseImpl@VCEventLogView@@VCWindow@ATL@@U?$CBoxedDockingWindowTraits@VCVC7LikeExCaption@dockwins@@V?$CTabDockingBox@U?$CDockingBoxTraits@VCVC7LikeExCaption@dockwins@@$0IGMPAAAA@$0IA@@dockwins@@@2@$0JGMPAAAA@$0IA@@dockwins@@@dockwins@@QAEXXZ 00420f20 f i EventLogFrm.obj
 0001:0001ff20       ?BeginDrag@CGhostMoveTracker@?$CDockingWindowBaseImpl@VCTextQueueView@@VCWindow@ATL@@U?$CBoxedDockingWindowTraits@VCVC7LikeExCaption@dockwins@@V?$CTabDockingBox@U?$CDockingBoxTraits@VCVC7LikeExCaption@dockwins@@$0IGMPAAAA@$0IA@@dockwins@@@2@$0JGMPAAAA@$0IA@@dockwins@@@dockwins@@QAEXXZ 00420f20 f i TextQueueFrm.obj
 0001:0001ff20       ?BeginDrag@CGhostMoveTracker@?$CDockingWindowBaseImpl@VCChannelMonitorView@@VCWindow@ATL@@U?$CBoxedDockingWindowTraits@VCVC7LikeExCaption@dockwins@@V?$CTabDockingBox@U?$CDockingBoxTraits@VCVC7LikeExCaption@dockwins@@$0IGMPAAAA@$0IA@@dockwins@@@2@$0JGMPAAAA@$0IA@@dockwins@@@dockwins@@QAEXXZ 00420f20 f i HydraIRC.obj
 0001:0001ff20       ?BeginDrag@CGhostMoveTracker@?$CDockingWindowBaseImpl@VCUserListView@@VCWindow@ATL@@U?$CBoxedDockingWindowTraits@UCVC7LikeCaption@dockwins@@V?$CTabDockingBox@U?$CDockingBoxTraits@UCVC7LikeCaption@dockwins@@$0IGMPAAAA@$0IA@@dockwins@@@2@$0JGMPAAAA@$0IA@@dockwins@@@dockwins@@QAEXXZ 00420f20 f i ChildFrm.obj
 0001:0001ff50       ?AcceptDock@CBoxDocker@dockwins@@QBE_NPAUtagDFDOCKRECT@2@@Z 00420f50 f i ChildFrm.obj
 0001:0001fff0       ?AcceptDock@CDocker@dockwins@@QBE_NPAUtagDFDOCKRECT@2@@Z 00420ff0 f i ChildFrm.obj
 0001:00020030       ?AcceptDock@CDockingBox@dockwins@@QBE_NPAUtagDFDOCKRECT@2@@Z 00421030 f i ChildFrm.obj
 0001:00020060       ??_ECUserListView@@W7AEPAXI@Z 00421060 f i ChildFrm.obj
 0001:00020070       ??_ECUserListView@@UAEPAXI@Z 00421070 f i ChildFrm.obj
 0001:00020070       ??_GCUserListView@@UAEPAXI@Z 00421070 f i ChildFrm.obj
 0001:000200a0       ?CanClose@CCustomTabItem@@QBE_NXZ 004210a0 f i ChildFrm.obj
 0001:000200c0       ?GetRect@CCustomTabItem@@QBE?AUtagRECT@@XZ 004210c0 f i ChildFrm.obj
 0001:000200f0       ?OnCreate@?$CPaneContainerImpl@VCHydraPaneContainer@@VCWindow@ATL@@V?$CWinTraits@$0FGAAAAAA@$0A@@3@@WTL@@QAEJIIJAAH@Z 004210f0 f i ChildFrm.obj
 0001:00020130       ?OnSize@?$CPaneContainerImpl@VCHydraPaneContainer@@VCWindow@ATL@@V?$CWinTraits@$0FGAAAAAA@$0A@@3@@WTL@@QAEJIIJAAH@Z 00421130 f i ChildFrm.obj
 0001:00020170       ?OnSetFocus@?$CPaneContainerImpl@VCHydraPaneContainer@@VCWindow@ATL@@V?$CWinTraits@$0FGAAAAAA@$0A@@3@@WTL@@QAEJIIJAAH@Z 00421170 f i ChildFrm.obj
 0001:000201a0       ?OnPaint@?$CPaneContainerImpl@VCHydraPaneContainer@@VCWindow@ATL@@V?$CWinTraits@$0FGAAAAAA@$0A@@3@@WTL@@QAEJIIJAAH@Z 004211a0 f i ChildFrm.obj
 0001:000202a0       ?OnNotify@?$CPaneContainerImpl@VCHydraPaneContainer@@VCWindow@ATL@@V?$CWinTraits@$0FGAAAAAA@$0A@@3@@WTL@@QAEJIIJAAH@Z 004212a0 f i ChildFrm.obj
 0001:00020360       ?OnCommand@?$CPaneContainerImpl@VCHydraPaneContainer@@VCWindow@ATL@@V?$CWinTraits@$0FGAAAAAA@$0A@@3@@WTL@@QAEJIIJAAH@Z 00421360 f i ChildFrm.obj
 0001:000203c0       ?SetString@?$CSimpleStringT@D$0A@@ATL@@QAEXPBD@Z 004213c0 f i ChildFrm.obj
 0001:000203f0       ?SetString@?$CSimpleStringT@D$0A@@ATL@@QAEXPBDH@Z 004213f0 f i ChildFrm.obj
 0001:000204a0       ?Empty@?$CSimpleStringT@D$0A@@ATL@@QAEXXZ 004214a0 f i ChildFrm.obj
 0001:00020510       ?Allocate@CCRTAllocator@ATL@@SAPAXI@Z 00421510 f i ChildFrm.obj
 0001:00020530       ?CreateFontIndirectA@?$CFontT@$00@WTL@@QAEPAUHFONT__@@PBUtagLOGFONTA@@@Z 00421530 f i ChildFrm.obj
 0001:00020560       ?TrackPopupMenu@?$CMenuT@$0A@@WTL@@QAEHIHHPAUHWND__@@PBUtagRECT@@@Z 00421560 f i ChildFrm.obj
 0001:000205b0       ?GetMenuItemCount@?$CMenuT@$0A@@WTL@@QBEHXZ 004215b0 f i ChildFrm.obj
 0001:000205d0       ?GetMenuItemInfoA@?$CMenuT@$0A@@WTL@@QBEHIHPAUtagMENUITEMINFOA@@@Z 004215d0 f i ChildFrm.obj
 0001:00020600       ?FillRect@?$CDCT@$00@WTL@@QAEHPBUtagRECT@@H@Z 00421600 f i HydraIRC.obj
 0001:00020600       ?FillRect@?$CDCT@$0A@@WTL@@QAEHPBUtagRECT@@H@Z 00421600 f i ChildFrm.obj
 0001:00020630       ?CalcSize_NonClient@?$CDotNetTabCtrlImpl@VCFlyingTabCtrl@dockwins@@VCTabViewTabItem@@VCWindow@ATL@@V?$CWinTraits@$0FGAAEAAA@$0A@@5@@@QAEXPAUtagRECT@@@Z 00421630 f i ChildFrm.obj
 0001:00020630       ?CalcSize_NonClient@?$CDotNetTabCtrlImpl@V?$CDotNetTabCtrl@VCTabViewTabItem@@@@VCTabViewTabItem@@VCWindow@ATL@@V?$CWinTraits@$0FGAAEAAA@$0A@@4@@@QAEXPAUtagRECT@@@Z 00421630 f i HydraIRC.obj
 0001:00020680       ??0CClientDC@WTL@@QAE@PAUHWND__@@@Z 00421680 f i ChildFrm.obj
 0001:000206c0       ??1CClientDC@WTL@@QAE@XZ   004216c0 f i ChildFrm.obj
 0001:000206c0       ??1CWindowDC@WTL@@QAE@XZ   004216c0 f i ChildFrm.obj
 0001:00020730       ?GetImageInfo@CImageList@WTL@@QBEHHPAU_IMAGEINFO@@@Z 00421730 f i ChildFrm.obj
 0001:00020760       ?SetRect@CCustomTabItem@@QAE_NUtagRECT@@@Z 00421760 f i ChildFrm.obj
 0001:00020790       ?Width@CSinglePinnedLabel@dockwins@@UBEJXZ 00421790 f i HydraIRC.obj
 0001:00020790       ?GetThickness@COrientedRect@dockwins@@QBEJXZ 00421790 f i ChildFrm.obj
 0001:00020790       ?GetImageIndex@CCustomTabItem@@QBEHXZ 00421790 f i ChildFrm.obj
 0001:00020790       ?size@?$basic_string@DU?$char_traits@D@std@@V?$allocator@D@2@@std@@QBEIXZ 00421790 f i HydraIRC.obj
 0001:00020790       ?precision@ios_base@std@@QBEHXZ 00421790 f i HydraIRC.obj
 0001:000207b0       ?GetText@CCustomTabItem@@QBE?AV?$CStringT@DV?$StrTraitATL@DV?$ChTraitsCRT@D@ATL@@@ATL@@@ATL@@XZ 004217b0 f i ChildFrm.obj
 0001:000207f0       ?UsingImage@CCustomTabItem@@QBE_NXZ 004217f0 f i ChildFrm.obj
 0001:00020810       ?UsingText@CCustomTabItem@@QBE_NXZ 00421810 f i ChildFrm.obj
 0001:00020830       ?TrackPopupMenu@?$CCommandBarCtrlImpl@VCTabbedMDICommandBarCtrl@@VCCommandBarCtrlBase@WTL@@V?$CWinTraits@$0FGAAAAAA@$0A@@ATL@@@WTL@@QAEHPAUHMENU__@@IHHPAUtagTPMPARAMS@@@Z 00421830 f i ChildFrm.obj
 0001:000208d0       ?UpdateLayout@?$CPaneContainerImpl@VCHydraPaneContainer@@VCWindow@ATL@@V?$CWinTraits@$0FGAAAAAA@$0A@@3@@WTL@@QAEXHH@Z 004218d0 f i ChildFrm.obj
 0001:00020a00       ?CreateCloseButton@?$CPaneContainerImpl@VCHydraPaneContainer@@VCWindow@ATL@@V?$CWinTraits@$0FGAAAAAA@$0A@@3@@WTL@@QAEXXZ 00421a00 f i ChildFrm.obj
 0001:00020b10       ?SetButtonStructSize@?$CToolBarCtrlT@VCWindow@ATL@@@WTL@@QAEXH@Z 00421b10 f i ChildFrm.obj
 0001:00020b40       ?CalcSize@?$CPaneContainerImpl@VCHydraPaneContainer@@VCWindow@ATL@@V?$CWinTraits@$0FGAAAAAA@$0A@@3@@WTL@@QAEXXZ 00421b40 f i ChildFrm.obj
 0001:00020c30       ?DrawPane@?$CPaneContainerImpl@VCHydraPaneContainer@@VCWindow@ATL@@V?$CWinTraits@$0FGAAAAAA@$0A@@3@@WTL@@QAEXV?$CDCT@$0A@@2@@Z 00421c30 f i ChildFrm.obj
 0001:00020d00       ?OnCustomDraw@?$CCustomDraw@VCHydraPaneContainer@@@WTL@@QAEJHPAUtagNMHDR@@AAH@Z 00421d00 f i ChildFrm.obj
 0001:00020ed0       ?GetAllocLength@?$CSimpleStringT@D$0A@@ATL@@QBEHXZ 00421ed0 f i ChildFrm.obj
 0001:00020ef0       ?CopyCharsOverlapped@?$CSimpleStringT@D$0A@@ATL@@SAXPADIPBDH@Z 00421ef0 f i ChildFrm.obj
 0001:00020f10       ?IsMsgHandled@?$CWindowImplRoot@VCWindow@ATL@@@ATL@@QBEHXZ 00421f10 f i ChildFrm.obj
 0001:00020f10       ?IsMsgHandled@?$CWindowImplRoot@V?$CListBoxT@VCWindow@ATL@@@WTL@@@ATL@@QBEHXZ 00421f10 f i MainFrm.obj
 0001:00020f30       ?SetMsgHandled@?$CWindowImplRoot@VCWindow@ATL@@@ATL@@QAEXH@Z 00421f30 f i ChildFrm.obj
 0001:00020f30       ?SetMsgHandled@?$CWindowImplRoot@V?$CListBoxT@VCWindow@ATL@@@WTL@@@ATL@@QAEXH@Z 00421f30 f i MainFrm.obj
 0001:00020f60       ?SetToolRect@?$CToolTipCtrlT@VCWindow@ATL@@@WTL@@QAEXPAUHWND__@@IPBUtagRECT@@@Z 00421f60 f i ChildFrm.obj
 0001:00020fb0       ?Create@?$CToolBarCtrlT@VCWindow@ATL@@@WTL@@QAEPAUHWND__@@PAU3@V_U_RECT@ATL@@PBDKKV_U_MENUorID@5@PAX@Z 00421fb0 f i ChildFrm.obj
 0001:00021000       ?GetWndClassName@?$CToolBarCtrlT@VCWindow@ATL@@@WTL@@SAPBDXZ 00422000 f i ChildFrm.obj
 0001:00021010       ?SetButtonSize@?$CToolBarCtrlT@VCWindow@ATL@@@WTL@@QAEHHH@Z 00422010 f i ChildFrm.obj
 0001:00021050       ?SetBitmapSize@?$CToolBarCtrlT@VCWindow@ATL@@@WTL@@QAEHHH@Z 00422050 f i ChildFrm.obj
 0001:00021090       ?AddButtons@?$CToolBarCtrlT@VCWindow@ATL@@@WTL@@QAEHHPAU_TBBUTTON@@@Z 00422090 f i ChildFrm.obj
 0001:000210c0       ?_FixTrackMenuPopupX@?$CMenuT@$0A@@WTL@@SAHHH@Z 004220c0 f i ChildFrm.obj
 0001:00021170       ?DoTrackPopupMenu@?$CCommandBarCtrlImpl@VCTabbedMDICommandBarCtrl@@VCCommandBarCtrlBase@WTL@@V?$CWinTraits@$0FGAAAAAA@$0A@@ATL@@@WTL@@QAEHPAUHMENU__@@IHHPAUtagTPMPARAMS@@@Z 00422170 f i ChildFrm.obj
 0001:00021470       ?Pop@?$CSimpleStack@PAUHWND__@@@WTL@@QAEPAUHWND__@@XZ 00422470 f i ChildFrm.obj
 0001:00021470       ?Pop@?$CSimpleStack@PAUHMENU__@@@WTL@@QAEPAUHMENU__@@XZ 00422470 f i ChildFrm.obj
 0001:000214c0       ?SetMenuItemInfoA@?$CMenuT@$0A@@WTL@@QAEHIHPAUtagMENUITEMINFOA@@@Z 004224c0 f i ChildFrm.obj
 0001:000214f0       ?IsCmdBarMenuItem@_MenuItemData@?$CCommandBarCtrlImpl@VCTabbedMDICommandBarCtrl@@VCCommandBarCtrlBase@WTL@@V?$CWinTraits@$0FGAAAAAA@$0A@@ATL@@@WTL@@QAE_NXZ 004224f0 f i ChildFrm.obj
 0001:00021510       ?OnPrePaint@?$CPaneContainerImpl@VCHydraPaneContainer@@VCWindow@ATL@@V?$CWinTraits@$0FGAAAAAA@$0A@@3@@WTL@@QAEKHPAUtagNMCUSTOMDRAWINFO@@@Z 00422510 f i ChildFrm.obj
 0001:00021530       ?OnItemPrePaint@?$CPaneContainerImpl@VCHydraPaneContainer@@VCWindow@ATL@@V?$CWinTraits@$0FGAAAAAA@$0A@@3@@WTL@@QAEKHPAUtagNMCUSTOMDRAWINFO@@@Z 00422530 f i ChildFrm.obj
 0001:000215b0       ?OnItemPostPaint@?$CPaneContainerImpl@VCHydraPaneContainer@@VCWindow@ATL@@V?$CWinTraits@$0FGAAAAAA@$0A@@3@@WTL@@QAEKHPAUtagNMCUSTOMDRAWINFO@@@Z 004225b0 f i ChildFrm.obj
 0001:00021790       ?GetTitleFont@?$CPaneContainerImpl@VCHydraPaneContainer@@VCWindow@ATL@@V?$CWinTraits@$0FGAAAAAA@$0A@@3@@WTL@@QBEPAUHFONT__@@XZ 00422790 f i ChildFrm.obj
 0001:000217a0       ?AtlGetDefaultGuiFont@WTL@@YAPAUHFONT__@@XZ 004227a0 f i ChildFrm.obj
 0001:000217b0       ?IsVertical@?$CPaneContainerImpl@VCHydraPaneContainer@@VCWindow@ATL@@V?$CWinTraits@$0FGAAAAAA@$0A@@3@@WTL@@QBE_NXZ 004227b0 f i ChildFrm.obj
 0001:000217d0       ?GetCurrentMessage@?$CWindowImplRoot@V?$CListBoxT@VCWindow@ATL@@@WTL@@@ATL@@QBEPBU_ATL_MSG@2@XZ 004227d0 f i MainFrm.obj
 0001:000217d0       ?size@?$list@PAUHWND__@@V?$allocator@PAUHWND__@@@std@@@std@@QBEIXZ 004227d0 f i MainFrm.obj
 0001:000217d0       ?GetCurrentMessage@?$CWindowImplRoot@VCWindow@ATL@@@ATL@@QBEPBU_ATL_MSG@2@XZ 004227d0 f i ChildFrm.obj
 0001:000217d0       ?width@ios_base@std@@QBEHXZ 004227d0 f i HydraIRC.obj
 0001:000217f0       ??4?$CMenuT@$0A@@WTL@@QAEAAV01@PAUHMENU__@@@Z 004227f0 f i ChildFrm.obj
 0001:00021810       ?TrackPopupMenuEx@?$CMenuT@$0A@@WTL@@QAEHIHHPAUHWND__@@PAUtagTPMPARAMS@@@Z 00422810 f i ChildFrm.obj
 0001:00021850       ?ModifyMenuA@?$CMenuT@$0A@@WTL@@QAEHIIIPBD@Z 00422850 f i ChildFrm.obj
 0001:00021880       ?GetHalftoneBrush@?$CDCT@$0A@@WTL@@SG?AV?$CBrushT@$0A@@2@XZ 00422880 f i ChildFrm.obj
 0001:00021930       ?CreateHookProc@?$CCommandBarCtrlImpl@VCTabbedMDICommandBarCtrl@@VCCommandBarCtrlBase@WTL@@V?$CWinTraits@$0FGAAAAAA@$0A@@ATL@@@WTL@@SGJHIJ@Z 00422930 f i ChildFrm.obj
 0001:00021a00       ??0CFlyingTabCtrl@dockwins@@QAE@XZ 00422a00 f i ChildFrm.obj
 0001:00021a20       ?ProcessWindowMessage@CFlyingTabCtrl@dockwins@@UAEHPAUHWND__@@IIJAAJK@Z 00422a20 f i ChildFrm.obj
 0001:00021b60       ?UpdateTabAreaHeight@CFlyingTabCtrl@dockwins@@IAEXXZ 00422b60 f i ChildFrm.obj
 0001:00021ca0       ?GetFont@CWindow@ATL@@QBEPAUHFONT__@@XZ 00422ca0 f i ChildFrm.obj
 0001:00021cc0       ?GetDC@CWindow@ATL@@QAEPAUHDC__@@XZ 00422cc0 f i ChildFrm.obj
 0001:00021ce0       ?OnSetFont@CFlyingTabCtrl@dockwins@@QAEJIIJAAH@Z 00422ce0 f i ChildFrm.obj
 0001:00021ce0       ?OnCreate@CFlyingTabCtrl@dockwins@@QAEJIIJAAH@Z 00422ce0 f i ChildFrm.obj
 0001:00021d00       ?OnLButtonDown@CFlyingTabCtrl@dockwins@@QAEJIIJAAH@Z 00422d00 f i ChildFrm.obj
 0001:00021e80       ??0CTabMoveTracker@CFlyingTabCtrl@dockwins@@QAE@AAV12@H@Z 00422e80 f i ChildFrm.obj
 0001:00021ee0       ?OnLButtonDblClk@CFlyingTabCtrl@dockwins@@QAEJIIJAAH@Z 00422ee0 f i ChildFrm.obj
 0001:00021f80       ?GetTextMetricsA@?$CDCT@$00@WTL@@QBEHPAUtagTEXTMETRICA@@@Z 00422f80 f i ChildFrm.obj
 0001:00021fa0       ?ProcessWindowMessage@?$CDotNetTabCtrlImpl@VCFlyingTabCtrl@dockwins@@VCTabViewTabItem@@VCWindow@ATL@@V?$CWinTraits@$0FGAAEAAA@$0A@@5@@@UAEHPAUHWND__@@IIJAAJK@Z 00422fa0 f i ChildFrm.obj
 0001:00022060       ?ProcessWindowMessage@?$CCustomTabCtrl@VCFlyingTabCtrl@dockwins@@VCTabViewTabItem@@VCWindow@ATL@@V?$CWinTraits@$0FGAAEAAA@$0A@@5@@@UAEHPAUHWND__@@IIJAAJK@Z 00423060 f i ChildFrm.obj
 0001:000226e0       ?SetTimer@CWindow@ATL@@QAEIIIP6GXPAUHWND__@@IIK@Z@Z 004236e0 f i ChildFrm.obj
 0001:00022710       ?CreateSolidBrush@?$CBrushT@$00@WTL@@QAEPAUHBRUSH__@@K@Z 00423710 f i ChildFrm.obj
 0001:00022740       ?OnCreate@?$CCustomTabCtrl@V?$CDotNetTabCtrl@VCTabViewTabItem@@@@VCTabViewTabItem@@VCWindow@ATL@@V?$CWinTraits@$0FGAAEAAA@$0A@@4@@@QAEJIIJAAH@Z 00423740 f i HydraIRC.obj
 0001:00022740       ?OnCreate@?$CCustomTabCtrl@VCFlyingTabCtrl@dockwins@@VCTabViewTabItem@@VCWindow@ATL@@V?$CWinTraits@$0FGAAEAAA@$0A@@5@@@QAEJIIJAAH@Z 00423740 f i ChildFrm.obj
 0001:00022780       ?OnDestroy@?$CCustomTabCtrl@VCFlyingTabCtrl@dockwins@@VCTabViewTabItem@@VCWindow@ATL@@V?$CWinTraits@$0FGAAEAAA@$0A@@5@@@QAEJIIJAAH@Z 00423780 f i ChildFrm.obj
 0001:000227b0       ?OnSize@?$CCustomTabCtrl@VCFlyingTabCtrl@dockwins@@VCTabViewTabItem@@VCWindow@ATL@@V?$CWinTraits@$0FGAAEAAA@$0A@@5@@@QAEJIIJAAH@Z 004237b0 f i ChildFrm.obj
 0001:000227b0       ?OnSize@?$CCustomTabCtrl@V?$CDotNetTabCtrl@VCTabViewTabItem@@@@VCTabViewTabItem@@VCWindow@ATL@@V?$CWinTraits@$0FGAAEAAA@$0A@@4@@@QAEJIIJAAH@Z 004237b0 f i HydraIRC.obj
 0001:000227f0       ?OnSettingChange@?$CCustomTabCtrl@VCFlyingTabCtrl@dockwins@@VCTabViewTabItem@@VCWindow@ATL@@V?$CWinTraits@$0FGAAEAAA@$0A@@5@@@QAEJIIJAAH@Z 004237f0 f i ChildFrm.obj
 0001:000227f0       ?OnSettingChange@?$CCustomTabCtrl@V?$CDotNetTabCtrl@VCTabViewTabItem@@@@VCTabViewTabItem@@VCWindow@ATL@@V?$CWinTraits@$0FGAAEAAA@$0A@@4@@@QAEJIIJAAH@Z 004237f0 f i HydraIRC.obj
 0001:00022820       ?OnGetDlgCode@?$CCustomTabCtrl@VCFlyingTabCtrl@dockwins@@VCTabViewTabItem@@VCWindow@ATL@@V?$CWinTraits@$0FGAAEAAA@$0A@@5@@@QAEJIIJAAH@Z 00423820 f i ChildFrm.obj
 0001:00022820       ?OnGetDlgCode@?$CCustomTabCtrl@V?$CDotNetTabCtrl@VCTabViewTabItem@@@@VCTabViewTabItem@@VCWindow@ATL@@V?$CWinTraits@$0FGAAEAAA@$0A@@4@@@QAEJIIJAAH@Z 00423820 f i HydraIRC.obj
 0001:00022850       ?OnMouseMessage@?$CCustomTabCtrl@V?$CDotNetTabCtrl@VCTabViewTabItem@@@@VCTabViewTabItem@@VCWindow@ATL@@V?$CWinTraits@$0FGAAEAAA@$0A@@4@@@QAEJIIJAAH@Z 00423850 f i HydraIRC.obj
 0001:00022850       ?OnMouseMessage@?$CCustomTabCtrl@VCFlyingTabCtrl@dockwins@@VCTabViewTabItem@@VCWindow@ATL@@V?$CWinTraits@$0FGAAEAAA@$0A@@5@@@QAEJIIJAAH@Z 00423850 f i ChildFrm.obj
 0001:000228c0       ?OnMouseMove@?$CCustomTabCtrl@VCFlyingTabCtrl@dockwins@@VCTabViewTabItem@@VCWindow@ATL@@V?$CWinTraits@$0FGAAEAAA@$0A@@5@@@QAEJIIJAAH@Z 004238c0 f i ChildFrm.obj
 0001:000228c0       ?OnMouseMove@?$CCustomTabCtrl@V?$CDotNetTabCtrl@VCTabViewTabItem@@@@VCTabViewTabItem@@VCWindow@ATL@@V?$CWinTraits@$0FGAAEAAA@$0A@@4@@@QAEJIIJAAH@Z 004238c0 f i HydraIRC.obj
 0001:00022ed0       ?OnMouseLeave@?$CCustomTabCtrl@VCFlyingTabCtrl@dockwins@@VCTabViewTabItem@@VCWindow@ATL@@V?$CWinTraits@$0FGAAEAAA@$0A@@5@@@QAEJIIJAAH@Z 00423ed0 f i ChildFrm.obj
 0001:00022ed0       ?OnMouseLeave@?$CCustomTabCtrl@V?$CDotNetTabCtrl@VCTabViewTabItem@@@@VCTabViewTabItem@@VCWindow@ATL@@V?$CWinTraits@$0FGAAEAAA@$0A@@4@@@QAEJIIJAAH@Z 00423ed0 f i HydraIRC.obj
 0001:00022f30       ?OnLButtonDoubleClick@?$CCustomTabCtrl@VCFlyingTabCtrl@dockwins@@VCTabViewTabItem@@VCWindow@ATL@@V?$CWinTraits@$0FGAAEAAA@$0A@@5@@@QAEJIIJAAH@Z 00423f30 f i ChildFrm.obj
 0001:00022f30       ?OnLButtonDoubleClick@?$CCustomTabCtrl@V?$CDotNetTabCtrl@VCTabViewTabItem@@@@VCTabViewTabItem@@VCWindow@ATL@@V?$CWinTraits@$0FGAAEAAA@$0A@@4@@@QAEJIIJAAH@Z 00423f30 f i HydraIRC.obj
 0001:00022ff0       ?OnMButtonDown@?$CCustomTabCtrl@VCFlyingTabCtrl@dockwins@@VCTabViewTabItem@@VCWindow@ATL@@V?$CWinTraits@$0FGAAEAAA@$0A@@5@@@QAEJIIJAAH@Z 00423ff0 f i ChildFrm.obj
 0001:00022ff0       ?OnMButtonDown@?$CCustomTabCtrl@V?$CDotNetTabCtrl@VCTabViewTabItem@@@@VCTabViewTabItem@@VCWindow@ATL@@V?$CWinTraits@$0FGAAEAAA@$0A@@4@@@QAEJIIJAAH@Z 00423ff0 f i HydraIRC.obj
 0001:000230b0       ?OnMButtonDoubleClick@?$CCustomTabCtrl@VCFlyingTabCtrl@dockwins@@VCTabViewTabItem@@VCWindow@ATL@@V?$CWinTraits@$0FGAAEAAA@$0A@@5@@@QAEJIIJAAH@Z 004240b0 f i ChildFrm.obj
 0001:000230b0       ?OnMButtonDoubleClick@?$CCustomTabCtrl@V?$CDotNetTabCtrl@VCTabViewTabItem@@@@VCTabViewTabItem@@VCWindow@ATL@@V?$CWinTraits@$0FGAAEAAA@$0A@@4@@@QAEJIIJAAH@Z 004240b0 f i HydraIRC.obj
 0001:00023170       ?OnKeyDown@?$CCustomTabCtrl@V?$CDotNetTabCtrl@VCTabViewTabItem@@@@VCTabViewTabItem@@VCWindow@ATL@@V?$CWinTraits@$0FGAAEAAA@$0A@@4@@@QAEJIIJAAH@Z 00424170 f i HydraIRC.obj
 0001:00023170       ?OnKeyDown@?$CCustomTabCtrl@VCFlyingTabCtrl@dockwins@@VCTabViewTabItem@@VCWindow@ATL@@V?$CWinTraits@$0FGAAEAAA@$0A@@5@@@QAEJIIJAAH@Z 00424170 f i ChildFrm.obj
 0001:00023220       ?OnGetFont@?$CCustomTabCtrl@V?$CDotNetTabCtrl@VCTabViewTabItem@@@@VCTabViewTabItem@@VCWindow@ATL@@V?$CWinTraits@$0FGAAEAAA@$0A@@4@@@QAEJIIJAAH@Z 00424220 f i HydraIRC.obj
 0001:00023220       ?OnGetFont@?$CCustomTabCtrl@VCFlyingTabCtrl@dockwins@@VCTabViewTabItem@@VCWindow@ATL@@V?$CWinTraits@$0FGAAEAAA@$0A@@5@@@QAEJIIJAAH@Z 00424220 f i ChildFrm.obj
 0001:00023240       ?OnSetFont@?$CCustomTabCtrl@VCFlyingTabCtrl@dockwins@@VCTabViewTabItem@@VCWindow@ATL@@V?$CWinTraits@$0FGAAEAAA@$0A@@5@@@QAEJIIJAAH@Z 00424240 f i ChildFrm.obj
 0001:00023240       ?OnSetFont@?$CCustomTabCtrl@V?$CDotNetTabCtrl@VCTabViewTabItem@@@@VCTabViewTabItem@@VCWindow@ATL@@V?$CWinTraits@$0FGAAEAAA@$0A@@4@@@QAEJIIJAAH@Z 00424240 f i HydraIRC.obj
 0001:000232e0       ?OnStyleChanged@?$CCustomTabCtrl@VCFlyingTabCtrl@dockwins@@VCTabViewTabItem@@VCWindow@ATL@@V?$CWinTraits@$0FGAAEAAA@$0A@@5@@@QAEJIIJAAH@Z 004242e0 f i ChildFrm.obj
 0001:000232e0       ?OnStyleChanged@?$CCustomTabCtrl@V?$CDotNetTabCtrl@VCTabViewTabItem@@@@VCTabViewTabItem@@VCWindow@ATL@@V?$CWinTraits@$0FGAAEAAA@$0A@@4@@@QAEJIIJAAH@Z 004242e0 f i HydraIRC.obj
 0001:000234d0       ?OnTimer@?$CCustomTabCtrl@VCFlyingTabCtrl@dockwins@@VCTabViewTabItem@@VCWindow@ATL@@V?$CWinTraits@$0FGAAEAAA@$0A@@5@@@QAEJIIJAAH@Z 004244d0 f i ChildFrm.obj
 0001:000234d0       ?OnTimer@?$CCustomTabCtrl@V?$CDotNetTabCtrl@VCTabViewTabItem@@@@VCTabViewTabItem@@VCWindow@ATL@@V?$CWinTraits@$0FGAAEAAA@$0A@@4@@@QAEJIIJAAH@Z 004244d0 f i HydraIRC.obj
 0001:000236a0       ?KillTimer@CWindow@ATL@@QAEHI@Z 004246a0 f i ChildFrm.obj
 0001:000236c0       ?OnGetToolTipInfo@?$CCustomTabCtrl@VCFlyingTabCtrl@dockwins@@VCTabViewTabItem@@VCWindow@ATL@@V?$CWinTraits@$0FGAAEAAA@$0A@@5@@@QAEJHPAUtagNMHDR@@AAH@Z 004246c0 f i ChildFrm.obj
 0001:000236c0       ?OnGetToolTipInfo@?$CCustomTabCtrl@V?$CDotNetTabCtrl@VCTabViewTabItem@@@@VCTabViewTabItem@@VCWindow@ATL@@V?$CWinTraits@$0FGAAEAAA@$0A@@4@@@QAEJHPAUtagNMHDR@@AAH@Z 004246c0 f i HydraIRC.obj
 0001:00023760       ?GetTextRef@CCustomTabItem@@QBEPBDXZ 00424760 f i ChildFrm.obj
 0001:00023760       ?VSmCaptionFont@CSettings@CDWSettings@dockwins@@QBEPAUHFONT__@@XZ 00424760 f i ChildFrm.obj
 0001:00023780       ?GetToolTipRef@CCustomTabItem@@QBEPBDXZ 00424780 f i ChildFrm.obj
 0001:000237a0       ?UsingToolTip@CCustomTabItem@@QBE_NXZ 004247a0 f i ChildFrm.obj
 0001:000237c0       ?ScrollLeft@?$CCustomTabCtrl@V?$CDotNetTabCtrl@VCTabViewTabItem@@@@VCTabViewTabItem@@VCWindow@ATL@@V?$CWinTraits@$0FGAAEAAA@$0A@@4@@@QAEX_N@Z 004247c0 f i HydraIRC.obj
 0001:000237c0       ?ScrollLeft@?$CCustomTabCtrl@VCFlyingTabCtrl@dockwins@@VCTabViewTabItem@@VCWindow@ATL@@V?$CWinTraits@$0FGAAEAAA@$0A@@5@@@QAEX_N@Z 004247c0 f i ChildFrm.obj
 0001:00023830       ?GetDeviceCaps@?$CDCT@$00@WTL@@QBEHH@Z 00424830 f i ChildFrm.obj
 0001:00023850       ?GetLogFont@?$CFontT@$0A@@WTL@@QBEHPAUtagLOGFONTA@@@Z 00424850 f i ChildFrm.obj
 0001:00023850       ?GetLogFont@?$CFontT@$00@WTL@@QBEHPAUtagLOGFONTA@@@Z 00424850 f i ChildFrm.obj
 0001:00023870       ?CreateSysColorBrush@?$CBrushT@$00@WTL@@QAEPAUHBRUSH__@@H@Z 00424870 f i ChildFrm.obj
 0001:000238a0       ?ActivateTooltips@?$CCustomTabCtrl@V?$CDotNetTabCtrl@VCTabViewTabItem@@@@VCTabViewTabItem@@VCWindow@ATL@@V?$CWinTraits@$0FGAAEAAA@$0A@@4@@@IAEXH@Z 004248a0 f i HydraIRC.obj
 0001:000238a0       ?ActivateTooltips@?$CCustomTabCtrl@VCFlyingTabCtrl@dockwins@@VCTabViewTabItem@@VCWindow@ATL@@V?$CWinTraits@$0FGAAEAAA@$0A@@5@@@IAEXH@Z 004248a0 f i ChildFrm.obj
 0001:000238d0       ?ClearCurrentMouseDownTracking@?$CCustomTabCtrl@V?$CDotNetTabCtrl@VCTabViewTabItem@@@@VCTabViewTabItem@@VCWindow@ATL@@V?$CWinTraits@$0FGAAEAAA@$0A@@4@@@IAEX_N@Z 004248d0 f i HydraIRC.obj
 0001:000238d0       ?ClearCurrentMouseDownTracking@?$CCustomTabCtrl@VCFlyingTabCtrl@dockwins@@VCTabViewTabItem@@VCWindow@ATL@@V?$CWinTraits@$0FGAAEAAA@$0A@@5@@@IAEX_N@Z 004248d0 f i ChildFrm.obj
 0001:00023a70       ?ClearCurrentMouseOverTracking@?$CCustomTabCtrl@V?$CDotNetTabCtrl@VCTabViewTabItem@@@@VCTabViewTabItem@@VCWindow@ATL@@V?$CWinTraits@$0FGAAEAAA@$0A@@4@@@IAEX_N@Z 00424a70 f i HydraIRC.obj
 0001:00023a70       ?ClearCurrentMouseOverTracking@?$CCustomTabCtrl@VCFlyingTabCtrl@dockwins@@VCTabViewTabItem@@VCWindow@ATL@@V?$CWinTraits@$0FGAAEAAA@$0A@@5@@@IAEX_N@Z 00424a70 f i ChildFrm.obj
 0001:00023be0       ?ContinueItemDrag@?$CCustomTabCtrl@V?$CDotNetTabCtrl@VCTabViewTabItem@@@@VCTabViewTabItem@@VCWindow@ATL@@V?$CWinTraits@$0FGAAEAAA@$0A@@4@@@QAEXUtagPOINT@@@Z 00424be0 f i HydraIRC.obj
 0001:00023be0       ?ContinueItemDrag@?$CCustomTabCtrl@VCFlyingTabCtrl@dockwins@@VCTabViewTabItem@@VCWindow@ATL@@V?$CWinTraits@$0FGAAEAAA@$0A@@5@@@QAEXUtagPOINT@@@Z 00424be0 f i ChildFrm.obj
 0001:00023e20       ?Initialize@?$CCustomTabCtrl@VCFlyingTabCtrl@dockwins@@VCTabViewTabItem@@VCWindow@ATL@@V?$CWinTraits@$0FGAAEAAA@$0A@@5@@@QAEXXZ 00424e20 f i ChildFrm.obj
 0001:00023e20       ?Initialize@?$CCustomTabCtrl@V?$CDotNetTabCtrl@VCTabViewTabItem@@@@VCTabViewTabItem@@VCWindow@ATL@@V?$CWinTraits@$0FGAAEAAA@$0A@@4@@@QAEXXZ 00424e20 f i HydraIRC.obj
 0001:00023f10       ?Uninitialize@?$CCustomTabCtrl@VCFlyingTabCtrl@dockwins@@VCTabViewTabItem@@VCWindow@ATL@@V?$CWinTraits@$0FGAAEAAA@$0A@@5@@@QAEXXZ 00424f10 f i ChildFrm.obj
 0001:00023fc0       ??0CMemDC@WTL@@QAE@PAUHDC__@@PAUtagRECT@@@Z 00424fc0 f i ChildFrm.obj
 0001:00024140       ??1CMemDC@WTL@@QAE@XZ      00425140 f i ChildFrm.obj
 0001:00024220       ?CreateCompatibleDC@?$CDCT@$00@WTL@@QAEPAUHDC__@@PAU3@@Z 00425220 f i ChildFrm.obj
 0001:00024250       ?SetWindowOrg@?$CDCT@$00@WTL@@QAEHHHPAUtagPOINT@@@Z 00425250 f i ChildFrm.obj
 0001:00024280       ??1?$CBrushT@$00@WTL@@QAE@XZ 00425280 f i ChildFrm.obj
 0001:00024280       ??1?$CPenT@$00@WTL@@QAE@XZ 00425280 f i ChildFrm.obj
 0001:00024280       ??1?$CBitmapT@$00@WTL@@QAE@XZ 00425280 f i ChildFrm.obj
 0001:00024280       ??1?$CFontT@$00@WTL@@QAE@XZ 00425280 f i ChildFrm.obj
 0001:000242b0       ?CreateCompatibleBitmap@?$CBitmapT@$0A@@WTL@@QAEPAUHBITMAP__@@PAUHDC__@@HH@Z 004252b0 f i HydraIRC.obj
 0001:000242b0       ?CreateCompatibleBitmap@?$CBitmapT@$00@WTL@@QAEPAUHBITMAP__@@PAUHDC__@@HH@Z 004252b0 f i ChildFrm.obj
 0001:000242e0       ??4?$CDCT@$0A@@WTL@@QAEAAV01@PAUHDC__@@@Z 004252e0 f i ChildFrm.obj
 0001:00024300       ?GetClipBox@?$CDCT@$0A@@WTL@@QBEHPAUtagRECT@@@Z 00425300 f i ChildFrm.obj
 0001:00024320       ?Attach@?$CDCT@$0A@@WTL@@QAEXPAUHDC__@@@Z 00425320 f i ChildFrm.obj
 0001:00024350       ?Activate@?$CToolTipCtrlT@VCWindow@ATL@@@WTL@@QAEXH@Z 00425350 f i ChildFrm.obj
 0001:00024380       ?InitializeTooltips@?$CCustomTabCtrl@V?$CDotNetTabCtrl@VCTabViewTabItem@@@@VCTabViewTabItem@@VCWindow@ATL@@V?$CWinTraits@$0FGAAEAAA@$0A@@4@@@IAEXXZ 00425380 f i HydraIRC.obj
 0001:00024380       ?InitializeTooltips@?$CCustomTabCtrl@VCFlyingTabCtrl@dockwins@@VCTabViewTabItem@@VCWindow@ATL@@V?$CWinTraits@$0FGAAEAAA@$0A@@5@@@IAEXXZ 00425380 f i ChildFrm.obj
 0001:00024450       ?Create@?$CToolTipCtrlT@VCWindow@ATL@@@WTL@@QAEPAUHWND__@@PAU3@V_U_RECT@ATL@@PBDKKV_U_MENUorID@5@PAX@Z 00425450 f i ChildFrm.obj
 0001:000244a0       ?IsHighlighted@CCustomTabItem@@QBE_NXZ 004254a0 f i ChildFrm.obj
 0001:000244c0       ?DeleteAllItems@?$CCustomTabCtrl@VCFlyingTabCtrl@dockwins@@VCTabViewTabItem@@VCWindow@ATL@@V?$CWinTraits@$0FGAAEAAA@$0A@@5@@@QAEH_N@Z 004254c0 f i ChildFrm.obj
 0001:00024530       ?GetWndClassName@?$CToolTipCtrlT@VCWindow@ATL@@@WTL@@SAPBDXZ 00425530 f i ChildFrm.obj
 0001:00024540       ?SaveDC@?$CDCT@$0A@@WTL@@QAEHXZ 00425540 f i ChildFrm.obj
 0001:00024560       ?RestoreDC@?$CDCT@$0A@@WTL@@QAEHH@Z 00425560 f i ChildFrm.obj
 0001:00024580       ?SetViewportOrg@?$CDCT@$00@WTL@@QAEHHHPAUtagPOINT@@@Z 00425580 f i HydraIRC.obj
 0001:00024580       ?SetViewportOrg@?$CDCT@$0A@@WTL@@QAEHHHPAUtagPOINT@@@Z 00425580 f i ChildFrm.obj
 0001:000245b0       ?SetViewportOrg@?$CDCT@$0A@@WTL@@QAEHUtagPOINT@@PAU3@@Z 004255b0 f i ChildFrm.obj
 0001:000245b0       ?SetViewportOrg@?$CDCT@$00@WTL@@QAEHUtagPOINT@@PAU3@@Z 004255b0 f i HydraIRC.obj
 0001:000245e0       ?SelectClipRgn@?$CDCT@$0A@@WTL@@QAEHPAUHRGN__@@@Z 004255e0 f i ChildFrm.obj
 0001:00024600       ?IntersectClipRect@?$CDCT@$0A@@WTL@@QAEHPBUtagRECT@@@Z 00425600 f i ChildFrm.obj
 0001:00024640       ?InitializeDrawStruct@?$CDotNetTabCtrlImpl@VCFlyingTabCtrl@dockwins@@VCTabViewTabItem@@VCWindow@ATL@@V?$CWinTraits@$0FGAAEAAA@$0A@@5@@@QAEXPAUtagNMCTCCUSTOMDRAW@@@Z 00425640 f i ChildFrm.obj
 0001:00024640       ?InitializeDrawStruct@?$CDotNetTabCtrlImpl@V?$CDotNetTabCtrl@VCTabViewTabItem@@@@VCTabViewTabItem@@VCWindow@ATL@@V?$CWinTraits@$0FGAAEAAA@$0A@@4@@@QAEXPAUtagNMCTCCUSTOMDRAW@@@Z 00425640 f i HydraIRC.obj
 0001:00024720       ?Attach@?$CMenuT@$0A@@WTL@@QAEXPAUHMENU__@@@Z 00425720 f i ChildFrm.obj
 0001:00024750       ?AppendMenuA@?$CMenuT@$0A@@WTL@@QAEHIIPBD@Z 00425750 f i ChildFrm.obj
 0001:00024780       ?SetMenuDefaultItem@?$CMenuT@$0A@@WTL@@QAEHIH@Z 00425780 f i ChildFrm.obj
 0001:000247b0       ??0?$CDotNetTabCtrlImpl@VCFlyingTabCtrl@dockwins@@VCTabViewTabItem@@VCWindow@ATL@@V?$CWinTraits@$0FGAAEAAA@$0A@@5@@@QAE@XZ 004257b0 f i ChildFrm.obj
 0001:00024850       ?SetTextColor@?$CDCT@$0A@@WTL@@QAEKK@Z 00425850 f i ChildFrm.obj
 0001:00024850       ?SetTextColor@?$CDCT@$00@WTL@@QAEKK@Z 00425850 f i ChildFrm.obj
 0001:00024870       ?LineTo@?$CDCT@$00@WTL@@QAEHHH@Z 00425870 f i ChildFrm.obj
 0001:00024870       ?LineTo@?$CDCT@$0A@@WTL@@QAEHHH@Z 00425870 f i ChildFrm.obj
 0001:000248a0       ?Polygon@?$CDCT@$0A@@WTL@@QAEHPAUtagPOINT@@H@Z 004258a0 f i ChildFrm.obj
 0001:000248d0       ?Polyline@?$CDCT@$0A@@WTL@@QAEHPAUtagPOINT@@H@Z 004258d0 f i ChildFrm.obj
 0001:00024900       ?PatBlt@?$CDCT@$0A@@WTL@@QAEHHHHHK@Z 00425900 f i ChildFrm.obj
 0001:00024900       ?PatBlt@?$CDCT@$00@WTL@@QAEHHHHHK@Z 00425900 f i ChildFrm.obj
 0001:00024930       ?FillSolidRect@?$CDCT@$0A@@WTL@@QAEXPBUtagRECT@@K@Z 00425930 f i ChildFrm.obj
 0001:00024990       ?DrawItem_TabSelected@?$CDotNetTabCtrlImpl@V?$CDotNetTabCtrl@VCTabViewTabItem@@@@VCTabViewTabItem@@VCWindow@ATL@@V?$CWinTraits@$0FGAAEAAA@$0A@@4@@@QAEXKPAUtagNMCTCCUSTOMDRAW@@AAUtagRECT@@@Z 00425990 f i HydraIRC.obj
 0001:00024990       ?DrawItem_TabSelected@?$CDotNetTabCtrlImpl@VCFlyingTabCtrl@dockwins@@VCTabViewTabItem@@VCWindow@ATL@@V?$CWinTraits@$0FGAAEAAA@$0A@@5@@@QAEXKPAUtagNMCTCCUSTOMDRAW@@AAUtagRECT@@@Z 00425990 f i ChildFrm.obj
 0001:00024c00       ?DrawItem_TabInactive@?$CDotNetTabCtrlImpl@VCFlyingTabCtrl@dockwins@@VCTabViewTabItem@@VCWindow@ATL@@V?$CWinTraits@$0FGAAEAAA@$0A@@5@@@QAEXKPAUtagNMCTCCUSTOMDRAW@@AAUtagRECT@@@Z 00425c00 f i ChildFrm.obj
 0001:00024c00       ?DrawItem_TabInactive@?$CDotNetTabCtrlImpl@V?$CDotNetTabCtrl@VCTabViewTabItem@@@@VCTabViewTabItem@@VCWindow@ATL@@V?$CWinTraits@$0FGAAEAAA@$0A@@4@@@QAEXKPAUtagNMCTCCUSTOMDRAW@@AAUtagRECT@@@Z 00425c00 f i HydraIRC.obj
 0001:00024e50       ?Draw@CImageList@WTL@@QAEHPAUHDC__@@HHHI@Z 00425e50 f i ChildFrm.obj
 0001:00024e80       ?SetImageList@?$CCustomTabCtrl@VCFlyingTabCtrl@dockwins@@VCTabViewTabItem@@VCWindow@ATL@@V?$CWinTraits@$0FGAAEAAA@$0A@@5@@@QAE?AVCImageList@WTL@@PAU_IMAGELIST@@@Z 00425e80 f i ChildFrm.obj
 0001:00024e80       ?SetImageList@?$CCustomTabCtrl@V?$CDotNetTabCtrl@VCTabViewTabItem@@@@VCTabViewTabItem@@VCWindow@ATL@@V?$CWinTraits@$0FGAAEAAA@$0A@@4@@@QAE?AVCImageList@WTL@@PAU_IMAGELIST@@@Z 00425e80 f i HydraIRC.obj
 0001:00024ec0       ?Create@?$CWindowImpl@VCFlyingTabCtrl@dockwins@@VCWindow@ATL@@V?$CWinTraits@$0FGAAEAAA@$0A@@4@@ATL@@QAEPAUHWND__@@PAU3@V_U_RECT@2@PBDKKV_U_MENUorID@2@PAX@Z 00425ec0 f i ChildFrm.obj
 0001:00024f60       ?GetWndClassInfo@CFlyingTabCtrl@dockwins@@SAAAU_ATL_WNDCLASSINFOA@ATL@@XZ 00425f60 f i ChildFrm.obj
 0001:00024f70       ?GetWndStyle@?$CWindowImplBaseT@VCWindow@ATL@@V?$CWinTraits@$0FGAAEAAA@$0A@@2@@ATL@@SAKK@Z 00425f70 f i ChildFrm.obj
 0001:00024f90       ?GetWndStyle@?$CWinTraits@$0FGAAEAAA@$0A@@ATL@@SAKK@Z 00425f90 f i ChildFrm.obj
 0001:00024fb0       ?GetWndStyle@?$CWinTraits@$0IGMPAAAA@$0IA@@ATL@@SAKK@Z 00425fb0 f i ChildFrm.obj
 0001:00024fd0       ?GetWndExStyle@?$CWinTraits@$0JGMPAAAA@$0IA@@ATL@@SAKK@Z 00425fd0 f i ChildFrm.obj
 0001:00024fd0       ?GetWndExStyle@?$CWinTraits@$0IGMPAAAA@$0IA@@ATL@@SAKK@Z 00425fd0 f i ChildFrm.obj
 0001:00024fd0       ?GetWndExStyle@?$CWinTraits@$0EGMAAAAA@$0IA@@ATL@@SAKK@Z 00425fd0 f i HydraIRC.obj
 0001:00024ff0       ?ForwardNotifications@?$CWindowImplRoot@VCWindow@ATL@@@ATL@@QAEJIIJAAH@Z 00425ff0 f i ChildFrm.obj
 0001:000251d0       ?ReflectNotifications@?$CWindowImplRoot@VCWindow@ATL@@@ATL@@QAEJIIJAAH@Z 004261d0 f i ChildFrm.obj
 0001:00025390       ?WindowProc@?$CWindowImplBaseT@VCWindow@ATL@@V?$CWinTraits@$0FGAAAAAA@$0A@@2@@ATL@@SGJPAUHWND__@@IIJ@Z 00426390 f i ChildFrm.obj
 0001:00025390       ?WindowProc@?$CWindowImplBaseT@V?$CListBoxT@VCWindow@ATL@@@WTL@@V?$CWinTraitsOR@$0CB@$0A@V?$CWinTraits@$0FGAAAAAA@$0A@@ATL@@@ATL@@@ATL@@SGJPAUHWND__@@IIJ@Z 00426390 f i MainFrm.obj
 0001:00025390       ?WindowProc@?$CWindowImplBaseT@VCWindow@ATL@@U?$CBoxedDockingWindowTraits@UCVC7LikeCaption@dockwins@@V?$CTabDockingBox@U?$CDockingBoxTraits@UCVC7LikeCaption@dockwins@@$0IGMPAAAA@$0IA@@dockwins@@@2@$0JGMPAAAA@$0IA@@dockwins@@@ATL@@SGJPAUHWND__@@IIJ@Z 00426390 f i ChildFrm.obj
 0001:00025390       ?WindowProc@?$CWindowImplBaseT@VCWindow@ATL@@V?$CWinTraits@$0FGAAEAAA@$0A@@2@@ATL@@SGJPAUHWND__@@IIJ@Z 00426390 f i ChildFrm.obj
 0001:00025390       ?WindowProc@?$CWindowImplBaseT@VCWindow@ATL@@U?$CDockingBoxTraits@VCVC7LikeExCaption@dockwins@@$0IGMPAAAA@$0IA@@dockwins@@@ATL@@SGJPAUHWND__@@IIJ@Z 00426390 f i EventLogFrm.obj
 0001:00025390       ?WindowProc@?$CWindowImplBaseT@V?$CRichEditCtrlT@VCWindow@ATL@@@WTL@@V?$CWinTraits@$0FGAAAAAA@$0A@@ATL@@@ATL@@SGJPAUHWND__@@IIJ@Z 00426390 f i ChildFrm.obj
 0001:00025390       ?WindowProc@?$CWindowImplBaseT@VCWindow@ATL@@U?$CDockingBoxTraits@UCVC7LikeCaption@dockwins@@$0IGMPAAAA@$0IA@@dockwins@@@ATL@@SGJPAUHWND__@@IIJ@Z 00426390 f i ChildFrm.obj
 0001:00025390       ?WindowProc@?$CWindowImplBaseT@VCWindow@ATL@@U?$CBoxedDockingWindowTraits@VCVC7LikeExCaption@dockwins@@V?$CTabDockingBox@U?$CDockingBoxTraits@VCVC7LikeExCaption@dockwins@@$0IGMPAAAA@$0IA@@dockwins@@@2@$0JGMPAAAA@$0IA@@dockwins@@@ATL@@SGJPAUHWND__@@IIJ@Z 00426390 f i EventLogFrm.obj
 0001:00025390       ?WindowProc@?$CWindowImplBaseT@VCWindow@ATL@@U?$CDockingWindowTraits@UCVC7LikeCaption@dockwins@@$0EGMAAAAA@$0IA@@dockwins@@@ATL@@SGJPAUHWND__@@IIJ@Z 00426390 f i HydraIRC.obj
 0001:00025390       ?WindowProc@?$CWindowImplBaseT@V?$CEditT@VCWindow@ATL@@@WTL@@V?$CWinTraits@$0FGAAAAAA@$0A@@ATL@@@ATL@@SGJPAUHWND__@@IIJ@Z 00426390 f i FavoritesDlg.obj
 0001:00025390       ?WindowProc@?$CWindowImplBaseT@V?$CStatusBarCtrlT@VCWindow@ATL@@@WTL@@V?$CWinTraits@$0FGAAAAAA@$0A@@ATL@@@ATL@@SGJPAUHWND__@@IIJ@Z 00426390 f i HydraIRC.obj
 0001:00025500       ?Create@?$CWindowImplBaseT@V?$CRichEditCtrlT@VCWindow@ATL@@@WTL@@V?$CWinTraits@$0FGAAAAAA@$0A@@ATL@@@ATL@@QAEPAUHWND__@@PAU3@V_U_RECT@2@PBDKKV_U_MENUorID@2@GPAX@Z 00426500 f i ChannelMonitor.obj
 0001:00025500       ?Create@?$CWindowImplBaseT@VCWindow@ATL@@U?$CDockingBoxTraits@UCVC7LikeCaption@dockwins@@$0IGMPAAAA@$0IA@@dockwins@@@ATL@@QAEPAUHWND__@@PAU3@V_U_RECT@2@PBDKKV_U_MENUorID@2@GPAX@Z 00426500 f i ChildFrm.obj
 0001:00025500       ?Create@?$CWindowImplBaseT@V?$CEditT@VCWindow@ATL@@@WTL@@V?$CWinTraits@$0FGAAAAAA@$0A@@ATL@@@ATL@@QAEPAUHWND__@@PAU3@V_U_RECT@2@PBDKKV_U_MENUorID@2@GPAX@Z 00426500 f i Prefs_MiscPage.obj
 0001:00025500       ?Create@?$CWindowImplBaseT@VCWindow@ATL@@U?$CDockingBoxTraits@VCVC7LikeExCaption@dockwins@@$0IGMPAAAA@$0IA@@dockwins@@@ATL@@QAEPAUHWND__@@PAU3@V_U_RECT@2@PBDKKV_U_MENUorID@2@GPAX@Z 00426500 f i EventLogFrm.obj
 0001:00025500       ?Create@?$CWindowImplBaseT@VCWindow@ATL@@U?$CBoxedDockingWindowTraits@UCVC7LikeCaption@dockwins@@V?$CTabDockingBox@U?$CDockingBoxTraits@UCVC7LikeCaption@dockwins@@$0IGMPAAAA@$0IA@@dockwins@@@2@$0JGMPAAAA@$0IA@@dockwins@@@ATL@@QAEPAUHWND__@@PAU3@V_U_RECT@2@PBDKKV_U_MENUorID@2@GPAX@Z 00426500 f i ChildFrm.obj
 0001:00025500       ?Create@?$CWindowImplBaseT@VCWindow@ATL@@U?$CDockingWindowTraits@UCVC7LikeCaption@dockwins@@$0EGMAAAAA@$0IA@@dockwins@@@ATL@@QAEPAUHWND__@@PAU3@V_U_RECT@2@PBDKKV_U_MENUorID@2@GPAX@Z 00426500 f i HydraIRC.obj
 0001:00025500       ?Create@?$CWindowImplBaseT@VCWindow@ATL@@V?$CWinTraits@$0FGAAAAAA@$0A@@2@@ATL@@QAEPAUHWND__@@PAU3@V_U_RECT@2@PBDKKV_U_MENUorID@2@GPAX@Z 00426500 f i ChildFrm.obj
 0001:00025500       ?Create@?$CWindowImplBaseT@VCWindow@ATL@@V?$CWinTraits@$0FGAAEAAA@$0A@@2@@ATL@@QAEPAUHWND__@@PAU3@V_U_RECT@2@PBDKKV_U_MENUorID@2@GPAX@Z 00426500 f i ChildFrm.obj
 0001:00025500       ?Create@?$CWindowImplBaseT@VCWindow@ATL@@U?$CBoxedDockingWindowTraits@VCVC7LikeExCaption@dockwins@@V?$CTabDockingBox@U?$CDockingBoxTraits@VCVC7LikeExCaption@dockwins@@$0IGMPAAAA@$0IA@@dockwins@@@2@$0JGMPAAAA@$0IA@@dockwins@@@ATL@@QAEPAUHWND__@@PAU3@V_U_RECT@2@PBDKKV_U_MENUorID@2@GPAX@Z 00426500 f i MainFrm.obj
 0001:000255f0       ??A?$CAtlArray@PAVCTabViewTabItem@@V?$CElementTraits@PAVCTabViewTabItem@@@ATL@@@ATL@@QBEABQAVCTabViewTabItem@@I@Z 004265f0 f i ChildFrm.obj
 0001:000255f0       ??A?$CAtlArray@PAXV?$CElementTraits@PAX@ATL@@@ATL@@QAEAAPAXI@Z 004265f0 f i Utility.obj
 0001:000255f0       ??A?$CAtlArray@PAVCTabViewTabItem@@V?$CElementTraits@PAVCTabViewTabItem@@@ATL@@@ATL@@QAEAAPAVCTabViewTabItem@@I@Z 004265f0 f i ChildFrm.obj
 0001:00025620       ?InsertAt@?$CAtlArray@PAVCTabViewTabItem@@V?$CElementTraits@PAVCTabViewTabItem@@@ATL@@@ATL@@QAEXIABQAVCTabViewTabItem@@I@Z 00426620 f i ChildFrm.obj
 0001:000257c0       ?RemoveAt@?$CAtlArray@PAVCTabViewTabItem@@V?$CElementTraits@PAVCTabViewTabItem@@@ATL@@@ATL@@QAEXII@Z 004267c0 f i ChildFrm.obj
 0001:00025860       ??$TrackDragAndDrop@VCTabMoveTracker@CFlyingTabCtrl@dockwins@@@@YA_NAAVCTabMoveTracker@CFlyingTabCtrl@dockwins@@PAUHWND__@@@Z 00426860 f i ChildFrm.obj
 0001:00025a40       ?OnMove@CTabMoveTracker@CFlyingTabCtrl@dockwins@@QAEXJJ@Z 00426a40 f i ChildFrm.obj
 0001:00025b30       ?IsHorizontal@COrientedRect@dockwins@@QBE_NXZ 00426b30 f i ChannelMonitor.obj
 0001:00025b30       ?IsHorizontal@?$CSimpleSplitterBar@$04@dockwins@@QBE_NXZ 00426b30 f i HydraIRC.obj
 0001:00025b30       ?IsHorisontal@CTabMoveTracker@CFlyingTabCtrl@dockwins@@QBE_NXZ 00426b30 f i ChildFrm.obj
 0001:00025b30       ?IsHorizontal@?$CSimpleSplitterBar@$02@dockwins@@QBE_NXZ 00426b30 f i HydraIRC.obj
 0001:00025b50       ??$TrackDragAndDrop@V?$CHotBtnTracker@VCVC7LikeExCaption@dockwins@@@CCaptionBase@dockwins@@@@YA_NAAV?$CHotBtnTracker@VCVC7LikeExCaption@dockwins@@@CCaptionBase@dockwins@@PAUHWND__@@@Z 00426b50 f i ChildFrm.obj
 0001:00025d30       ??$AtlMultiplyThrow@I@ATL@@YAIII@Z 00426d30 f i ChildFrm.obj
 0001:00025d70       ?RelocateElements@?$CElementTraitsBase@PAVCTabViewTabItem@@@ATL@@SAXPAPAVCTabViewTabItem@@0I@Z 00426d70 f i ChildFrm.obj
 0001:00025d70       ?RelocateElements@?$CElementTraitsBase@PAX@ATL@@SAXPAPAX0I@Z 00426d70 f i Utility.obj
 0001:00025da0       ?BeginDrag@?$CHotBtnTracker@VCVC7LikeExCaption@dockwins@@@CCaptionBase@dockwins@@QAEXXZ 00426da0 f i ChildFrm.obj
 0001:00025dd0       ?EndDrag@?$CHotBtnTracker@VCVC7LikeExCaption@dockwins@@@CCaptionBase@dockwins@@QAEX_N@Z 00426dd0 f i ChildFrm.obj
 0001:00025e00       ?OnDropLeftButton@?$CHotBtnTracker@VCVC7LikeExCaption@dockwins@@@CCaptionBase@dockwins@@QAEXJJ@Z 00426e00 f i ChildFrm.obj
 0001:00025e50       ?OnMove@?$CHotBtnTracker@VCVC7LikeExCaption@dockwins@@@CCaptionBase@dockwins@@QAEXJJ@Z 00426e50 f i ChildFrm.obj
 0001:00025ea0       ?ProcessWindowMessage@?$CHotBtnTracker@VCVC7LikeExCaption@dockwins@@@CCaptionBase@dockwins@@QAE_NPAUtagMSG@@@Z 00426ea0 f i ChildFrm.obj
 0001:00025ef0       ?CallConstructors@?$CAtlArray@PAVCTabViewTabItem@@V?$CElementTraits@PAVCTabViewTabItem@@@ATL@@@ATL@@CAXPAPAVCTabViewTabItem@@I@Z 00426ef0 f i ChildFrm.obj
 0001:00025ef0       ?CallConstructors@?$CAtlArray@PAXV?$CElementTraits@PAX@ATL@@@ATL@@CAXPAPAXI@Z 00426ef0 f i Utility.obj
 0001:00025fb0       ?GrowBuffer@?$CAtlArray@PAVCTabViewTabItem@@V?$CElementTraits@PAVCTabViewTabItem@@@ATL@@@ATL@@AAE_NI@Z 00426fb0 f i ChildFrm.obj
 0001:00025fb0       ?GrowBuffer@?$CAtlArray@PAXV?$CElementTraits@PAX@ATL@@@ATL@@AAE_NI@Z 00426fb0 f i Utility.obj
 0001:000260f0       ??0CLogger@@QAE@XZ         004270f0 f   CLogger.obj
 0001:000261d0       ??1CLogger@@QAE@XZ         004271d0 f   CLogger.obj
 0001:00026260       ?Stop@CLogger@@QAEXXZ      00427260 f   CLogger.obj
 0001:000262b0       ?Start@CLogger@@QAEXXZ     004272b0 f   CLogger.obj
 0001:00026430       ?UpdateSettings@CLogger@@QAEXK@Z 00427430 f   CLogger.obj
 0001:00026490       ?Flush@CLogger@@QAEXXZ     00427490 f   CLogger.obj
 0001:000264c0       ?NeedsFlushing@CLogger@@QAEHXZ 004274c0 f   CLogger.obj
 0001:00026500       ?Log@CLogger@@QAEHPAD@Z    00427500 f   CLogger.obj
 0001:000265d0       ?SetPaths@CLogger@@QAEXPAD0@Z 004275d0 f   CLogger.obj
 0001:00026640       ?GetFileName@CLogger@@QAEPADXZ 00427640 f   CLogger.obj
 0001:000266c0       ?OnEvent@CLogger@@UAEXHPAX@Z 004276c0 f   CLogger.obj
 0001:00026710       ??0CBufferedFile@@QAE@XZ   00427710 f i CLogger.obj
 0001:00026730       ?Reset@CBufferedFile@@AAEXXZ 00427730 f i CLogger.obj
 0001:00026790       ??1CBufferedFile@@QAE@XZ   00427790 f i CLogger.obj
 0001:000267d0       ?IsOpen@CBufferedFile@@QAEHXZ 004277d0 f i CLogger.obj
 0001:000267f0       ?GetFileName@CBufferedFile@@QAEPADXZ 004277f0 f i CLogger.obj
 0001:00026810       ?SetBufferSize@CBufferedFile@@QAEXK@Z 00427810 f i CLogger.obj
 0001:00026880       ?Flush@CBufferedFile@@QAEHXZ 00427880 f i CLogger.obj
 0001:00026950       ?WriteFile@CBufferedFile@@QAEHPBXKPAK@Z 00427950 f i CLogger.obj
 0001:00026b50       ?CloseFile@CBufferedFile@@QAEXXZ 00427b50 f i CLogger.obj
 0001:00026bc0       ?CreateFileA@CBufferedFile@@QAEHPBDKKPAU_SECURITY_ATTRIBUTES@@KKPAX@Z 00427bc0 f i CLogger.obj
 0001:00026ca0       ?SetFilePointer@CBufferedFile@@QAEKJPAJK@Z 00427ca0 f i CLogger.obj
 0001:00026ce0       ?ProcessOutputBuffer@IRCCommon@@QAEXXZ 00427ce0 f   Common.obj
 0001:00026e60       ?AddToOutputBuffer@IRCCommon@@QAEXHPAD@Z 00427e60 f   Common.obj
 0001:00027020       ?Printf@IRCCommon@@QAAXHPBDZZ 00428020 f   Common.obj
 0001:000270a0       ?ClearOutputBuffer@IRCCommon@@QAEXXZ 004280a0 f   Common.obj
 0001:00027110       ?BufferTick@IRCCommon@@QAEXXZ 00428110 f   Common.obj
 0001:00027130       ?SetTheme@IRCCommon@@QAEHPAD@Z 00428130 f   Common.obj
 0001:000271a0       ?ClearUserList@IRCCommon@@QAEXXZ 004281a0 f   Common.obj
 0001:00027230       ??_GBufferItem@@QAEPAXI@Z  00428230 f i Common.obj
 0001:00027260       ?InternalSetAtIndex@?$CSimpleArray@PAVCMessageFilter@WTL@@V?$CSimpleArrayEqualHelper@PAVCMessageFilter@WTL@@@ATL@@@ATL@@QAEXHABQAVCMessageFilter@WTL@@@Z 00428260 f i MainFrm.obj
 0001:00027260       ?InternalSetAtIndex@?$CSimpleArray@PAVThemeHandle@@V?$CSimpleArrayEqualHelper@PAVThemeHandle@@@ATL@@@ATL@@QAEXHABQAVThemeHandle@@@Z 00428260 f i Prefs.obj
 0001:00027260       ?InternalSetAtIndex@?$CSimpleArray@PAUNotificationEvent_s@@V?$CSimpleArrayEqualHelper@PAUNotificationEvent_s@@@ATL@@@ATL@@QAEXHABQAUNotificationEvent_s@@@Z 00428260 f i Notification.obj
 0001:00027260       ?InternalSetAtIndex@?$CSimpleArray@PAVIRCChannel@@V?$CSimpleArrayEqualHelper@PAVIRCChannel@@@ATL@@@ATL@@QAEXHABQAVIRCChannel@@@Z 00428260 f i ChannelMonitor.obj
 0001:00027260       ?InternalSetAtIndex@?$CSimpleArray@PAVIRCServer@@V?$CSimpleArrayEqualHelper@PAVIRCServer@@@ATL@@@ATL@@QAEXHABQAVIRCServer@@@Z 00428260 f i Server.obj
 0001:00027260       ?InternalSetAtIndex@?$CSimpleArray@PAVTreeItemInfo@@V?$CSimpleArrayEqualHelper@PAVTreeItemInfo@@@ATL@@@ATL@@QAEXHABQAVTreeItemInfo@@@Z 00428260 f i ConnectDlg.obj
 0001:00027260       ?InternalSetAtIndex@?$CSimpleArray@PAVUserIdentity@@V?$CSimpleArrayEqualHelper@PAVUserIdentity@@@ATL@@@ATL@@QAEXHABQAVUserIdentity@@@Z 00428260 f i ConnectDlg.obj
 0001:00027260       ?InternalSetAtIndex@?$CSimpleArray@HV?$CSimpleArrayEqualHelper@H@ATL@@@ATL@@QAEXHABH@Z 00428260 f i Channel.obj
 0001:00027260       ?InternalSetAtIndex@?$CSimpleArray@PAVIRCUserGroup@@V?$CSimpleArrayEqualHelper@PAVIRCUserGroup@@@ATL@@@ATL@@QAEXHABQAVIRCUserGroup@@@Z 00428260 f i Prefs.obj
 0001:00027260       ?InternalSetAtIndex@?$CSimpleArray@PAVIRCNetworkDetails@@V?$CSimpleArrayEqualHelper@PAVIRCNetworkDetails@@@ATL@@@ATL@@QAEXHABQAVIRCNetworkDetails@@@Z 00428260 f i ConnectDlg.obj
 0001:00027260       ?InternalSetAtIndex@?$CSimpleArray@PAUNotificationPrefInfo_s@@V?$CSimpleArrayEqualHelper@PAUNotificationPrefInfo_s@@@ATL@@@ATL@@QAEXHABQAUNotificationPrefInfo_s@@@Z 00428260 f i Prefs.obj
 0001:00027260       ?InternalSetAtIndex@?$CSimpleArray@PAVCTimerCommand@@V?$CSimpleArrayEqualHelper@PAVCTimerCommand@@@ATL@@@ATL@@QAEXHABQAVCTimerCommand@@@Z 00428260 f i ChildFrm.obj
 0001:00027260       ?InternalSetAtIndex@?$CSimpleArray@PAVCPrefsPage@@V?$CSimpleArrayEqualHelper@PAVCPrefsPage@@@ATL@@@ATL@@QAEXHABQAVCPrefsPage@@@Z 00428260 f i PrefsDlg.obj
 0001:00027260       ?InternalSetAtIndex@?$CSimpleArray@PAVCCommandProfile@@V?$CSimpleArrayEqualHelper@PAVCCommandProfile@@@ATL@@@ATL@@QAEXHABQAVCCommandProfile@@@Z 00428260 f i Prefs.obj
 0001:00027260       ?InternalSetAtIndex@?$CSimpleArray@PAVWindowPrefs@@V?$CSimpleArrayEqualHelper@PAVWindowPrefs@@@ATL@@@ATL@@QAEXHABQAVWindowPrefs@@@Z 00428260 f i ChildFrm.obj
 0001:00027260       ?InternalSetAtIndex@?$CSimpleArray@PAVCChildCommon@@V?$CSimpleArrayEqualHelper@PAVCChildCommon@@@ATL@@@ATL@@QAEXHABQAVCChildCommon@@@Z 00428260 f i Channel.obj
 0001:00027260       ?InternalSetAtIndex@?$CSimpleArray@PAUHWND__@@V?$CSimpleArrayEqualHelper@PAUHWND__@@@ATL@@@ATL@@QAEXHABQAUHWND__@@@Z 00428260 f i ChildFrm.obj
 0001:00027260       ?InternalSetAtIndex@?$CSimpleArray@PAVIRCServerDetails@@V?$CSimpleArrayEqualHelper@PAVIRCServerDetails@@@ATL@@@ATL@@QAEXHABQAVIRCServerDetails@@@Z 00428260 f i ConnectDlg.obj
 0001:00027260       ?InternalSetAtIndex@?$CSimpleArray@PAUHMENU__@@V?$CSimpleArrayEqualHelper@PAUHMENU__@@@ATL@@@ATL@@QAEXHABQAUHMENU__@@@Z 00428260 f i HydraIRC.obj
 0001:00027260       ?InternalSetAtIndex@?$CSimpleArray@PAVTextQueueItem@@V?$CSimpleArrayEqualHelper@PAVTextQueueItem@@@ATL@@@ATL@@QAEXHABQAVTextQueueItem@@@Z 00428260 f i TextQueue.obj
 0001:00027260       ?InternalSetAtIndex@?$CSimpleArray@PAVCIdleHandler@WTL@@V?$CSimpleArrayEqualHelper@PAVCIdleHandler@WTL@@@ATL@@@ATL@@QAEXHABQAVCIdleHandler@WTL@@@Z 00428260 f i MainFrm.obj
 0001:00027260       ?InternalSetAtIndex@?$CSimpleArray@PAVEventLogFilterGroup@@V?$CSimpleArrayEqualHelper@PAVEventLogFilterGroup@@@ATL@@@ATL@@QAEXHABQAVEventLogFilterGroup@@@Z 00428260 f i EventLogFrm.obj
 0001:00027260       ?InternalSetAtIndex@?$CSimpleArray@PAVEventLogItem@@V?$CSimpleArrayEqualHelper@PAVEventLogItem@@@ATL@@@ATL@@QAEXHABQAVEventLogItem@@@Z 00428260 f i EventLog.obj
 0001:00027260       ?InternalSetAtIndex@?$CSimpleArray@PAVIgnoreInfo@@V?$CSimpleArrayEqualHelper@PAVIgnoreInfo@@@ATL@@@ATL@@QAEXHABQAVIgnoreInfo@@@Z 00428260 f i ChildFrm.obj
 0001:00027260       ?InternalSetAtIndex@?$CSimpleArray@PAVIRCQuery@@V?$CSimpleArrayEqualHelper@PAVIRCQuery@@@ATL@@@ATL@@QAEXHABQAVIRCQuery@@@Z 00428260 f i Server.obj
 0001:00027260       ?InternalSetAtIndex@?$CSimpleArray@PAVBufferItem@@V?$CSimpleArrayEqualHelper@PAVBufferItem@@@ATL@@@ATL@@QAEXHABQAVBufferItem@@@Z 00428260 f i Common.obj
 0001:00027260       ?InternalSetAtIndex@?$CSimpleArray@PAVCDCCTransfer@@V?$CSimpleArrayEqualHelper@PAVCDCCTransfer@@@ATL@@@ATL@@QAEXHABQAVCDCCTransfer@@@Z 00428260 f i Transfers.obj
 0001:00027260       ?InternalSetAtIndex@?$CSimpleArray@PADV?$CSimpleArrayEqualHelper@PAD@ATL@@@ATL@@QAEXHABQAD@Z 00428260 f i ChildFrm.obj
 0001:00027260       ?InternalSetAtIndex@?$CSimpleArray@PAVCListener@@V?$CSimpleArrayEqualHelper@PAVCListener@@@ATL@@@ATL@@QAEXHABQAVCListener@@@Z 00428260 f i EventManager.obj
 0001:00027260       ?InternalSetAtIndex@?$CSimpleArray@PAVIRCUser@@V?$CSimpleArrayEqualHelper@PAVIRCUser@@@ATL@@@ATL@@QAEXHABQAVIRCUser@@@Z 00428260 f i Channel.obj
 0001:00027260       ?InternalSetAtIndex@?$CSimpleArray@PAVIProperty@@V?$CSimpleArrayEqualHelper@PAVIProperty@@@ATL@@@ATL@@QAEXHABQAVIProperty@@@Z 00428260 f i MainFrm.obj
 0001:00027260       ?InternalSetAtIndex@?$CSimpleArray@PAVCChannelProperties@@V?$CSimpleArrayEqualHelper@PAVCChannelProperties@@@ATL@@@ATL@@QAEXHABQAVCChannelProperties@@@Z 00428260 f i ChannelListDlg.obj
 0001:000272f0       ?UpdateControls@CConnectDlg@@AAEXXZ 004282f0 f   ConnectDlg.obj
 0001:000273e0       ?OnTreeSelectChange@CConnectDlg@@QAEJHPAUtagNMHDR@@AAH@Z 004283e0 f   ConnectDlg.obj
 0001:00027400       ?CleanupServerTree@CConnectDlg@@AAEXXZ 00428400 f   ConnectDlg.obj
 0001:00027450       ?RefreshServerTree@CConnectDlg@@AAEXPAVIRCServerDetails@@H@Z 00428450 f   ConnectDlg.obj
 0001:00027720       ?OnInitDialog@CConnectDlg@@QAEJIIJAAH@Z 00428720 f   ConnectDlg.obj
 0001:000278c0       ?OnCloseCmd@CConnectDlg@@QAEJGGPAUHWND__@@AAH@Z 004288c0 f   ConnectDlg.obj
 0001:000278e0       ?OnOK@CConnectDlg@@AAEXXZ  004288e0 f   ConnectDlg.obj
 0001:000279c0       ?OnOKCmd@CConnectDlg@@QAEJGGPAUHWND__@@AAH@Z 004289c0 f   ConnectDlg.obj
 0001:000279e0       ??0CConnectDlg@@QAE@PAVIRCServerDetails@@PAVUserIdentity@@@Z 004289e0 f   ConnectDlg.obj
 0001:00027ad0       ??1CConnectDlg@@UAE@XZ     00428ad0 f   ConnectDlg.obj
 0001:00027b60       ?OnEnUpdateServeruri@CConnectDlg@@QAEJGGPAUHWND__@@AAH@Z 00428b60 f   ConnectDlg.obj
 0001:00027c70       ?OnEnSetfocusServeruri@CConnectDlg@@QAEJGGPAUHWND__@@AAH@Z 00428c70 f   ConnectDlg.obj
 0001:00027c90       ?OnNMDblclkServertree@CConnectDlg@@QAEJHPAUtagNMHDR@@AAH@Z 00428c90 f   ConnectDlg.obj
 0001:00027cd0       ?OnBnClickedConnectEditidentity@CConnectDlg@@QAEJGGPAUHWND__@@AAH@Z 00428cd0 f   ConnectDlg.obj
 0001:00027f40       ?ShowContextMenu@CConnectDlg@@AAEXPAU_TREEITEM@@@Z 00428f40 f   ConnectDlg.obj
 0001:00028170       ?OnNMRclickServertree@CConnectDlg@@QAEJHPAUtagNMHDR@@AAH@Z 00429170 f   ConnectDlg.obj
 0001:00028210       ?OnContextMenuServerConnect@CConnectDlg@@QAEJGGPAUHWND__@@AAH@Z 00429210 f   ConnectDlg.obj
 0001:00028230       ?OnContextMenuServerAdd@CConnectDlg@@QAEJGGPAUHWND__@@AAH@Z 00429230 f   ConnectDlg.obj
 0001:00028250       ?OnContextMenuServerEdit@CConnectDlg@@QAEJGGPAUHWND__@@AAH@Z 00429250 f   ConnectDlg.obj
 0001:00028270       ?OnContextMenuServerDelete@CConnectDlg@@QAEJGGPAUHWND__@@AAH@Z 00429270 f   ConnectDlg.obj
 0001:00028290       ?OnContextMenuNetworkAdd@CConnectDlg@@QAEJGGPAUHWND__@@AAH@Z 00429290 f   ConnectDlg.obj
 0001:000282b0       ?OnContextMenuNetworkEdit@CConnectDlg@@QAEJGGPAUHWND__@@AAH@Z 004292b0 f   ConnectDlg.obj
 0001:000282d0       ?OnContextMenuNetworkDelete@CConnectDlg@@QAEJGGPAUHWND__@@AAH@Z 004292d0 f   ConnectDlg.obj
 0001:000282f0       ?OnBnClickedConnectAddnetwork@CConnectDlg@@QAEJGGPAUHWND__@@AAH@Z 004292f0 f   ConnectDlg.obj
 0001:00028310       ?OnBnClickedConnectAddserver@CConnectDlg@@QAEJGGPAUHWND__@@AAH@Z 00429310 f   ConnectDlg.obj
 0001:00028330       ?EditNetwork@CConnectDlg@@QAEXXZ 00429330 f   ConnectDlg.obj
 0001:00028600       ?EditServer@CConnectDlg@@QAEXXZ 00429600 f   ConnectDlg.obj
 0001:00028900       ?AddNetwork@CConnectDlg@@QAEPAVIRCNetworkDetails@@XZ 00429900 f   ConnectDlg.obj
 0001:00028a90       ?AddServer@CConnectDlg@@QAEPAVIRCServerDetails@@XZ 00429a90 f   ConnectDlg.obj
 0001:00028d70       ?DeleteServer@CConnectDlg@@QAEXXZ 00429d70 f   ConnectDlg.obj
 0001:00028e70       ?DeleteNetwork@CConnectDlg@@QAEXXZ 00429e70 f   ConnectDlg.obj
 0001:00029020       ?BuildURI@IRCServerDetails@@QAEPADXZ 0042a020 f i ConnectDlg.obj
 0001:00029120       ??0TreeItemInfo@@QAE@FPAX@Z 0042a120 f i ConnectDlg.obj
 0001:00029150       ?Clear@UserIdentity@@QAEXXZ 0042a150 f i ConnectDlg.obj
 0001:00029220       ?Init@UserIdentity@@QAEXXZ 0042a220 f i ConnectDlg.obj
 0001:00029270       ?Copy@UserIdentity@@QAEXPAV1@@Z 0042a270 f i ConnectDlg.obj
 0001:00029350       ?ProcessWindowMessage@CConnectDlg@@UAEHPAUHWND__@@IIJAAJK@Z 0042a350 f i ConnectDlg.obj
 0001:00029aa0       ??_ECConnectDlg@@UAEPAXI@Z 0042aaa0 f i ConnectDlg.obj
 0001:00029aa0       ??_GCConnectDlg@@UAEPAXI@Z 0042aaa0 f i ConnectDlg.obj
 0001:00029ad0       ??0UserIdentity@@QAE@PAV0@@Z 0042aad0 f i ConnectDlg.obj
 0001:00029b40       ??0CUserIdentityDlg@@QAE@PAVUserIdentity@@@Z 0042ab40 f i ConnectDlg.obj
 0001:00029c20       ?ProcessWindowMessage@CUserIdentityDlg@@UAEHPAUHWND__@@IIJAAJK@Z 0042ac20 f i ConnectDlg.obj
 0001:0002a040       ??_GCFileDialog@WTL@@UAEPAXI@Z 0042b040 f i ChildFrm.obj
 0001:0002a040       ??_GCPropertyEditWindow@@UAEPAXI@Z 0042b040 f i Prefs_MiscPage.obj
 0001:0002a040       ??_G?$CTVEditT@VCWindow@ATL@@@@UAEPAXI@Z 0042b040 f i FavoritesDlg.obj
 0001:0002a040       ??_ECUserIdentityDlg@@UAEPAXI@Z 0042b040 f i ConnectDlg.obj
 0001:0002a040       ??_GCInfoView@@UAEPAXI@Z   0042b040 f i ChildFrm.obj
 0001:0002a040       ??_E?$CTVEditT@VCWindow@ATL@@@@UAEPAXI@Z 0042b040 f i FavoritesDlg.obj
 0001:0002a040       ??_ECFileDialog@WTL@@UAEPAXI@Z 0042b040 f i ChildFrm.obj
 0001:0002a040       ??_ECInfoView@@UAEPAXI@Z   0042b040 f i ChildFrm.obj
 0001:0002a040       ??_ECAboutDlg@@UAEPAXI@Z   0042b040 f i MainFrm.obj
 0001:0002a040       ??_ECPropertyEditWindow@@UAEPAXI@Z 0042b040 f i Prefs_MiscPage.obj
 0001:0002a040       ??_GCUserIdentityDlg@@UAEPAXI@Z 0042b040 f i ConnectDlg.obj
 0001:0002a040       ??_GCAboutDlg@@UAEPAXI@Z   0042b040 f i MainFrm.obj
 0001:0002a070       ??_GUserIdentity@@QAEPAXI@Z 0042b070 f i ConnectDlg.obj
 0001:0002a0a0       ??1UserIdentity@@QAE@XZ    0042b0a0 f i ConnectDlg.obj
 0001:0002a100       ??0IRCNetworkDetails@@QAE@PAV0@@Z 0042b100 f i ConnectDlg.obj
 0001:0002a130       ?Init@IRCNetworkDetails@@QAEXXZ 0042b130 f i ConnectDlg.obj
 0001:0002a170       ?Copy@IRCNetworkDetails@@QAEXPAV1@@Z 0042b170 f i ConnectDlg.obj
 0001:0002a1c0       ??0CAddNetworkDlg@@QAE@PAVIRCNetworkDetails@@@Z 0042b1c0 f i ConnectDlg.obj
 0001:0002a270       ?ProcessWindowMessage@CAddNetworkDlg@@UAEHPAUHWND__@@IIJAAJK@Z 0042b270 f i ConnectDlg.obj
 0001:0002a490       ??_GIRCNetworkDetails@@QAEPAXI@Z 0042b490 f i ConnectDlg.obj
 0001:0002a4c0       ??1IRCNetworkDetails@@QAE@XZ 0042b4c0 f i ConnectDlg.obj
 0001:0002a4e0       ?Clear@IRCNetworkDetails@@QAEXXZ 0042b4e0 f i ConnectDlg.obj
 0001:0002a530       ??0CEditServerDetailsDlg@@QAE@PAVIRCServerDetails@@@Z 0042b530 f i ConnectDlg.obj
 0001:0002a620       ??1CEditServerDetailsDlg@@UAE@XZ 0042b620 f i ConnectDlg.obj
 0001:0002a680       ?ProcessWindowMessage@CEditServerDetailsDlg@@UAEHPAUHWND__@@IIJAAJK@Z 0042b680 f i ConnectDlg.obj
 0001:0002ab60       ??_GCEditServerDetailsDlg@@UAEPAXI@Z 0042bb60 f i ConnectDlg.obj
 0001:0002ab60       ??_ECEditServerDetailsDlg@@UAEPAXI@Z 0042bb60 f i ConnectDlg.obj
 0001:0002ab90       ??0IRCNetworkDetails@@QAE@XZ 0042bb90 f i ConnectDlg.obj
 0001:0002abb0       ?RemoveCustomStatus@IRCNetworkDetails@@QAEXXZ 0042bbb0 f i ConnectDlg.obj
 0001:0002ac00       ?SetItemDataPtr@?$CComboBoxT@VCWindow@ATL@@@WTL@@QAEHHPAX@Z 0042bc00 f i ConnectDlg.obj
 0001:0002ac20       ?ResetContent@?$CComboBoxT@VCWindow@ATL@@@WTL@@QAEXXZ 0042bc20 f i ConnectDlg.obj
 0001:0002ac40       ?SelectString@?$CComboBoxT@VCWindow@ATL@@@WTL@@QAEHHPBD@Z 0042bc40 f i ConnectDlg.obj
 0001:0002ac70       ?GetItem@?$CTreeViewCtrlT@VCWindow@ATL@@@WTL@@QBEHPAUtagTVITEMA@@@Z 0042bc70 f i ConnectDlg.obj
 0001:0002aca0       ?SetItemText@?$CTreeViewCtrlT@VCWindow@ATL@@@WTL@@QAEHPAU_TREEITEM@@PBD@Z 0042bca0 f i ConnectDlg.obj
 0001:0002acd0       ?InsertItem@?$CTreeViewCtrlT@VCWindow@ATL@@@WTL@@QAEPAU_TREEITEM@@IPBDHHIIJPAU3@1@Z 0042bcd0 f i ConnectDlg.obj
 0001:0002ad50       ?DeleteItem@?$CTreeViewCtrlT@VCWindow@ATL@@@WTL@@QAEHPAU_TREEITEM@@@Z 0042bd50 f i ConnectDlg.obj
 0001:0002ad80       ?DeleteAllItems@?$CTreeViewCtrlT@VCWindow@ATL@@@WTL@@QAEHXZ 0042bd80 f i ConnectDlg.obj
 0001:0002adb0       ?Expand@?$CTreeViewCtrlT@VCWindow@ATL@@@WTL@@QAEHPAU_TREEITEM@@I@Z 0042bdb0 f i ConnectDlg.obj
 0001:0002ade0       ?GetChildItem@?$CTreeViewCtrlT@VCWindow@ATL@@@WTL@@QBEPAU_TREEITEM@@PAU3@@Z 0042bde0 f i ConnectDlg.obj
 0001:0002ae10       ?GetParentItem@?$CTreeViewCtrlT@VCWindow@ATL@@@WTL@@QBEPAU_TREEITEM@@PAU3@@Z 0042be10 f i ConnectDlg.obj
 0001:0002ae40       ?GetSelectedItem@?$CTreeViewCtrlT@VCWindow@ATL@@@WTL@@QBEPAU_TREEITEM@@XZ 0042be40 f i ConnectDlg.obj
 0001:0002ae60       ?SelectItem@?$CTreeViewCtrlT@VCWindow@ATL@@@WTL@@QAEHPAU_TREEITEM@@@Z 0042be60 f i ConnectDlg.obj
 0001:0002ae90       ?SortChildren@?$CTreeViewCtrlT@VCWindow@ATL@@@WTL@@QAEHPAU_TREEITEM@@H@Z 0042be90 f i ConnectDlg.obj
 0001:0002aec0       ?EnsureVisible@?$CTreeViewCtrlT@VCWindow@ATL@@@WTL@@QAEHPAU_TREEITEM@@@Z 0042bec0 f i ConnectDlg.obj
 0001:0002aef0       ?DoModal@?$CDialogImpl@VCAddNetworkDlg@@VCWindow@ATL@@@ATL@@QAEHPAUHWND__@@J@Z 0042bef0 f i ConnectDlg.obj
 0001:0002af70       ?DlgResize_Init@?$CDialogResize@VCConnectDlg@@@WTL@@QAEX_N0K@Z 0042bf70 f i ConnectDlg.obj
 0001:0002b420       ?GetDlgResizeMap@CConnectDlg@@SAPBU_AtlDlgResizeMap@?$CDialogResize@VCConnectDlg@@@WTL@@XZ 0042c420 f i ConnectDlg.obj
 0001:0002b430       ?DoModal@?$CDialogImpl@VCEditServerDetailsDlg@@VCWindow@ATL@@@ATL@@QAEHPAUHWND__@@J@Z 0042c430 f i ConnectDlg.obj
 0001:0002b4b0       ?DoModal@?$CDialogImpl@VCUserIdentityDlg@@VCWindow@ATL@@@ATL@@QAEHPAUHWND__@@J@Z 0042c4b0 f i ConnectDlg.obj
 0001:0002b530       ?SetItemData@?$CComboBoxT@VCWindow@ATL@@@WTL@@QAEHHK@Z 0042c530 f i ConnectDlg.obj
 0001:0002b560       ?SetItem@?$CTreeViewCtrlT@VCWindow@ATL@@@WTL@@QAEHPAU_TREEITEM@@IPBDHHIIJ@Z 0042c560 f i ConnectDlg.obj
 0001:0002b5e0       ?EnableMenuItem@?$CMenuT@$0A@@WTL@@QAEIII@Z 0042c5e0 f i ConnectDlg.obj
 0001:0002b610       ?ExtractFileName@@YAXPBDPAD@Z 0042c610 f   DCCTransfer.obj
 0001:0002b690       ??0CDCCTransfer@@QAE@PAVIRCServer@@PAD1KHKH@Z 0042c690 f   DCCTransfer.obj
 0001:0002bc80       ??1CDCCTransfer@@QAE@XZ    0042cc80 f   DCCTransfer.obj
 0001:0002bda0       ?Go@CDCCTransfer@@AAEXH@Z  0042cda0 f   DCCTransfer.obj
 0001:0002bef0       ?Retry@CDCCTransfer@@QAEXXZ 0042cef0 f   DCCTransfer.obj
 0001:0002bf30       ?UpdateStatus@CDCCTransfer@@QAEXXZ 0042cf30 f   DCCTransfer.obj
 0001:0002bf60       ?Accept@CDCCTransfer@@QAEXXZ 0042cf60 f   DCCTransfer.obj
 0001:0002bfb0       ?Connect@CDCCTransfer@@QAEXXZ 0042cfb0 f   DCCTransfer.obj
 0001:0002c720       ?Resume@CDCCTransfer@@QAEXJ@Z 0042d720 f   DCCTransfer.obj
 0001:0002c7a0       ?Disconnect@CDCCTransfer@@QAEXPAD@Z 0042d7a0 f   DCCTransfer.obj
 0001:0002cd00       ?Check@CDCCTransfer@@QAEXXZ 0042dd00 f   DCCTransfer.obj
 0001:0002cdf0       ?OnConnect@CDCCTransfer@@QAEXXZ 0042ddf0 f   DCCTransfer.obj
 0001:0002d0f0       ?OnDCCServerSocketEvent@CDCCTransfer@@QAEXHH@Z 0042e0f0 f   DCCTransfer.obj
 0001:0002d250       ?OnDCCTransferSocketEvent@CDCCTransfer@@QAEXHH@Z 0042e250 f   DCCTransfer.obj
 0001:0002d430       ?ReadTransferSocket@CDCCTransfer@@QAEXXZ 0042e430 f   DCCTransfer.obj
 0001:0002d840       ?ProcessFastDCCSend@CDCCTransfer@@QAEHXZ 0042e840 f   DCCTransfer.obj
 0001:0002d880       ?WriteTransferSocket@CDCCTransfer@@QAEXXZ 0042e880 f   DCCTransfer.obj
 0001:0002dc20       ?IsActive@CDCCTransfer@@QAEHXZ 0042ec20 f   DCCTransfer.obj
 0001:0002dc80       ??_GSocket@@QAEPAXI@Z      0042ec80 f i DCCTransfer.obj
 0001:0002dcb0       ??1Socket@@QAE@XZ          0042ecb0 f i DCCTransfer.obj
 0001:0002dcd0       ?CloseSocket@Socket@@QAEXXZ 0042ecd0 f i DCCTransfer.obj
 0001:0002dd10       ??0Socket@@QAE@PAUHWND__@@H@Z 0042ed10 f i DCCTransfer.obj
 0001:0002dd50       ??0CDNSResolver@@QAE@XZ    0042ed50 f   DNSResolver.obj
 0001:0002ddd0       ??1CDNSResolver@@QAE@XZ    0042edd0 f   DNSResolver.obj
 0001:0002de40       ?OnDNSEvent@CDNSResolver@@QAEJIIJAAH@Z 0042ee40 f   DNSResolver.obj
 0001:0002def0       ?StartResolve@CDNSResolver@@QAEXPADPAUHWND__@@@Z 0042eef0 f   DNSResolver.obj
 0001:0002df90       ?ProcessWindowMessage@CDNSResolver@@UAEHPAUHWND__@@IIJAAJK@Z 0042ef90 f i DNSResolver.obj
 0001:0002e000       ??0DNSResolveItem@@QAE@PADPAUHWND__@@@Z 0042f000 f i DNSResolver.obj
 0001:0002e040       ??0CAsyncMessagePump@@QAE@XZ 0042f040 f i DNSResolver.obj
 0001:0002e090       ??0CComAutoCriticalSection@ATL@@QAE@XZ 0042f090 f i DNSResolver.obj
 0001:0002e100       ??0CComCriticalSection@ATL@@QAE@XZ 0042f100 f i DNSResolver.obj
 0001:0002e120       ?Init@CComCriticalSection@ATL@@QAEJXZ 0042f120 f i DNSResolver.obj
 0001:0002e1c0       ??1CAsyncMessagePump@@QAE@XZ 0042f1c0 f i DNSResolver.obj
 0001:0002e220       ??1CComAutoCriticalSection@ATL@@QAE@XZ 0042f220 f i DNSResolver.obj
 0001:0002e240       ?Term@CComCriticalSection@ATL@@QAEJXZ 0042f240 f i DNSResolver.obj
 0001:0002e260       ?Start@CAsyncMessagePump@@QAEKPAVCMessageMap@ATL@@JJ@Z 0042f260 f i DNSResolver.obj
 0001:0002e370       ??0ObjLock@CAsyncMessagePump@@QAE@PAV1@@Z 0042f370 f i DNSResolver.obj
 0001:0002e3a0       ??1ObjLock@CAsyncMessagePump@@QAE@XZ 0042f3a0 f i DNSResolver.obj
 0001:0002e3c0       ?_ThreadProc@CAsyncMessagePump@@CGKPAX@Z 0042f3c0 f i DNSResolver.obj
 0001:0002e4f0       ?OnThreadStarting@CAsyncMessagePump@@AAEXPAX@Z 0042f4f0 f i DNSResolver.obj
 0001:0002e530       ?OnThreadTerminating@CAsyncMessagePump@@AAEXXZ 0042f530 f i DNSResolver.obj
 0001:0002e590       ?Stop@CAsyncMessagePump@@QAEX_N@Z 0042f590 f i DNSResolver.obj
 0001:0002e600       ?PostMessageA@CAsyncMessagePump@@QAEHKIJ@Z 0042f600 f i DNSResolver.obj
 0001:0002e6c0       ?Validate@CEditBuddyGroupDlg@@QAEHXZ 0042f6c0 f   EditBuddyGroupDlg.obj
 0001:0002e790       ?OnInitDialog@CEditBuddyGroupDlg@@QAEJIIJAAH@Z 0042f790 f   EditBuddyGroupDlg.obj
 0001:0002e960       ?OnCloseCmd@CEditBuddyGroupDlg@@QAEJGGPAUHWND__@@AAH@Z 0042f960 f   EditBuddyGroupDlg.obj
 0001:0002e980       ?OnOKCmd@CEditBuddyGroupDlg@@QAEJGGPAUHWND__@@AAH@Z 0042f980 f   EditBuddyGroupDlg.obj
 0001:0002e9b0       ?OnSomethingChanged@CEditBuddyGroupDlg@@QAEJGGPAUHWND__@@AAH@Z 0042f9b0 f   EditBuddyGroupDlg.obj
 0001:0002e9d0       ?GetCount@?$CComboBoxT@VCWindow@ATL@@@WTL@@QBEHXZ 0042f9d0 f i EditBuddyGroupDlg.obj
 0001:0002e9f0       ?DlgResize_Init@?$CDialogResize@VCEditBuddyGroupDlg@@@WTL@@QAEX_N0K@Z 0042f9f0 f i EditBuddyGroupDlg.obj
 0001:0002eea0       ?GetDlgResizeMap@CEditBuddyGroupDlg@@SAPBU_AtlDlgResizeMap@?$CDialogResize@VCEditBuddyGroupDlg@@@WTL@@XZ 0042fea0 f i EditBuddyGroupDlg.obj
 0001:0002eeb0       ?Validate@CEditNotificationDlg@@QAEHXZ 0042feb0 f   EditNotificationDlg.obj
 0001:0002f3f0       ?UpdateColors@CEditNotificationDlg@@QAEXXZ 004303f0 f   EditNotificationDlg.obj
 0001:0002f530       ?OnInitDialog@CEditNotificationDlg@@QAEJIIJAAH@Z 00430530 f   EditNotificationDlg.obj
 0001:0002fb50       ?OnCloseCmd@CEditNotificationDlg@@QAEJGGPAUHWND__@@AAH@Z 00430b50 f   EditNotificationDlg.obj
 0001:0002fb70       ?OnOKCmd@CEditNotificationDlg@@QAEJGGPAUHWND__@@AAH@Z 00430b70 f   EditNotificationDlg.obj
 0001:0002fba0       ?OnSomethingChanged@CEditNotificationDlg@@QAEJGGPAUHWND__@@AAH@Z 00430ba0 f   EditNotificationDlg.obj
 0001:0002fbc0       ?OnBnClickedEnBrowse@CEditNotificationDlg@@QAEJGGPAUHWND__@@AAH@Z 00430bc0 f   EditNotificationDlg.obj
 0001:0002fc30       ?PickColor@@YAHAAK@Z       00430c30 f   EditNotificationDlg.obj
 0001:0002fcf0       ?OnBnClickedEnPickbgcolor@CEditNotificationDlg@@QAEJGGPAUHWND__@@AAH@Z 00430cf0 f   EditNotificationDlg.obj
 0001:0002fd20       ?OnBnClickedEnPickfgcolor@CEditNotificationDlg@@QAEJGGPAUHWND__@@AAH@Z 00430d20 f   EditNotificationDlg.obj
 0001:0002fd50       ?DoModal@?$CColorDialogImpl@VCColorDialog@WTL@@@WTL@@QAEHPAUHWND__@@@Z 00430d50 f i EditNotificationDlg.obj
 0001:0002fdb0       ?DlgResize_Init@?$CDialogResize@VCEditNotificationDlg@@@WTL@@QAEX_N0K@Z 00430db0 f i EditNotificationDlg.obj
 0001:00030260       ?GetDlgResizeMap@CEditNotificationDlg@@SAPBU_AtlDlgResizeMap@?$CDialogResize@VCEditNotificationDlg@@@WTL@@XZ 00431260 f i EditNotificationDlg.obj
 0001:00030270       ??0CColorDialog@WTL@@QAE@KKPAUHWND__@@@Z 00431270 f i EditNotificationDlg.obj
 0001:000302a0       ?ProcessWindowMessage@CFileDialog@WTL@@UAEHPAUHWND__@@IIJAAJK@Z 004312a0 f i ChildFrm.obj
 0001:000302a0       ?ProcessWindowMessage@CColorDialog@WTL@@UAEHPAUHWND__@@IIJAAJK@Z 004312a0 f i EditNotificationDlg.obj
 0001:000302b0       ??_E?$CHydraSplitterWindowT@$0A@@@UAEPAXI@Z 004312b0 f i ChildFrm.obj
 0001:000302b0       ??_E?$CHydraSplitterWindowT@$00@@UAEPAXI@Z 004312b0 f i ChildFrm.obj
 0001:000302b0       ??_ECHydraPaneContainer@@UAEPAXI@Z 004312b0 f i ChildFrm.obj
 0001:000302b0       ??_GCColorDialog@WTL@@UAEPAXI@Z 004312b0 f i EditNotificationDlg.obj
 0001:000302b0       ??_G?$CHydraSplitterWindowT@$0A@@@UAEPAXI@Z 004312b0 f i ChildFrm.obj
 0001:000302b0       ??_GCHydraPaneContainer@@UAEPAXI@Z 004312b0 f i ChildFrm.obj
 0001:000302b0       ??_G?$CHydraSplitterWindowT@$00@@UAEPAXI@Z 004312b0 f i ChildFrm.obj
 0001:000302b0       ??_ECColorDialog@WTL@@UAEPAXI@Z 004312b0 f i EditNotificationDlg.obj
 0001:000302e0       ??0?$CColorDialogImpl@VCColorDialog@WTL@@@WTL@@QAE@KKPAUHWND__@@@Z 004312e0 f i EditNotificationDlg.obj
 0001:000303a0       ?HookProc@?$CColorDialogImpl@VCColorDialog@WTL@@@WTL@@SGIPAUHWND__@@IIJ@Z 004313a0 f i EditNotificationDlg.obj
 0001:00030450       ?ExtractCreateWndData@ModuleHelper@WTL@@YAPAXXZ 00431450 f i EditNotificationDlg.obj
 0001:00030460       ?GetCustomColors@?$CColorDialogImpl@VCColorDialog@WTL@@@WTL@@SAPAKXZ 00431460 f i EditNotificationDlg.obj
 0001:00030470       ?_GetColorOKMessage@?$CColorDialogImpl@VCColorDialog@WTL@@@WTL@@SAIXZ 00431470 f i EditNotificationDlg.obj
 0001:00030520       ?SubclassWindow@?$CWindowImplBaseT@V?$CEditT@VCWindow@ATL@@@WTL@@V?$CWinTraits@$0FGAAAAAA@$0A@@ATL@@@ATL@@QAEHPAUHWND__@@@Z 00431520 f i FavoritesDlg.obj
 0001:00030520       ?SubclassWindow@?$CWindowImplBaseT@VCWindow@ATL@@V?$CWinTraits@$0FGAAAAAA@$0A@@2@@ATL@@QAEHPAUHWND__@@@Z 00431520 f i EditNotificationDlg.obj
 0001:00030520       ?SubclassWindow@?$CWindowImplBaseT@V?$CStatusBarCtrlT@VCWindow@ATL@@@WTL@@V?$CWinTraits@$0FGAAAAAA@$0A@@ATL@@@ATL@@QAEHPAUHWND__@@@Z 00431520 f i MainFrm.obj
 0001:00030520       ?SubclassWindow@?$CWindowImplBaseT@V?$CListBoxT@VCWindow@ATL@@@WTL@@V?$CWinTraitsOR@$0CB@$0A@V?$CWinTraits@$0FGAAAAAA@$0A@@ATL@@@ATL@@@ATL@@QAEHPAUHWND__@@@Z 00431520 f i Prefs_MiscPage.obj
 0001:000305b0       ?Validate@CEditServerDetailsDlg@@QAEHXZ 004315b0 f   EditServerDetailsDlg.obj
 0001:00030830       ?OnInitDialog@CEditServerDetailsDlg@@QAEJIIJAAH@Z 00431830 f   EditServerDetailsDlg.obj
 0001:00030b40       ?OnCloseCmd@CEditServerDetailsDlg@@QAEJGGPAUHWND__@@AAH@Z 00431b40 f   EditServerDetailsDlg.obj
 0001:00030b60       ?OnOKCmd@CEditServerDetailsDlg@@QAEJGGPAUHWND__@@AAH@Z 00431b60 f   EditServerDetailsDlg.obj
 0001:00030b90       ?OnSomethingChanged@CEditServerDetailsDlg@@QAEJGGPAUHWND__@@AAH@Z 00431b90 f   EditServerDetailsDlg.obj
 0001:00030bb0       ?GetItemDataPtr@?$CComboBoxT@VCWindow@ATL@@@WTL@@QBEPAXH@Z 00431bb0 f i EditServerDetailsDlg.obj
 0001:00030bd0       ?DlgResize_Init@?$CDialogResize@VCEditServerDetailsDlg@@@WTL@@QAEX_N0K@Z 00431bd0 f i EditServerDetailsDlg.obj
 0001:00031080       ?GetDlgResizeMap@CEditServerDetailsDlg@@SAPBU_AtlDlgResizeMap@?$CDialogResize@VCEditServerDetailsDlg@@@WTL@@XZ 00432080 f i EditServerDetailsDlg.obj
 0001:00031090       ??$?2U_AtlUpdateUIElement@CUpdateUIBase@WTL@@@Wrapper@?$CSimpleArray@U_AtlUpdateUIElement@CUpdateUIBase@WTL@@V?$CSimpleArrayEqualHelper@U_AtlUpdateUIElement@CUpdateUIBase@WTL@@@ATL@@@ATL@@SAPAXIPAU_AtlUpdateUIElement@CUpdateUIBase@WTL@@@Z 00432090 f i MainFrm.obj
 0001:00031090       ??$?2U_AtlDlgResizeData@?$CDialogResize@VCSelectChildPage@@@WTL@@@Wrapper@?$CSimpleArray@U_AtlDlgResizeData@?$CDialogResize@VCSelectChildPage@@@WTL@@V?$CSimpleArrayEqualHelper@U_AtlDlgResizeData@?$CDialogResize@VCSelectChildPage@@@WTL@@@ATL@@@ATL@@SAPAXIPAU_AtlDlgResizeData@?$CDialogResize@VCSelectChildPage@@@WTL@@@Z 00432090 f i MainFrm.obj
 0001:00031090       ??$?2PAD@?$Wrapper@PAD@?$CSimpleMap@PADPA_WVCExpansionVectorEqualHelper@ATL@@@ATL@@SAPAXIPAPAD@Z 00432090 f i HydraIRC.obj
 0001:00031090       ??$?2PAVTreeItemInfo@@@Wrapper@?$CSimpleArray@PAVTreeItemInfo@@V?$CSimpleArrayEqualHelper@PAVTreeItemInfo@@@ATL@@@ATL@@SAPAXIPAPAVTreeItemInfo@@@Z 00432090 f i ConnectDlg.obj
 0001:00031090       ??$?2U_AtlDlgResizeData@?$CDialogResize@VCCommandProfilesPage@@@WTL@@@Wrapper@?$CSimpleArray@U_AtlDlgResizeData@?$CDialogResize@VCCommandProfilesPage@@@WTL@@V?$CSimpleArrayEqualHelper@U_AtlDlgResizeData@?$CDialogResize@VCCommandProfilesPage@@@WTL@@@ATL@@@ATL@@SAPAXIPAU_AtlDlgResizeData@?$CDialogResize@VCCommandProfilesPage@@@WTL@@@Z 00432090 f i Prefs_CommandProfilesPage.obj
 0001:00031090       ??$?2PAVCCommandProfile@@@Wrapper@?$CSimpleArray@PAVCCommandProfile@@V?$CSimpleArrayEqualHelper@PAVCCommandProfile@@@ATL@@@ATL@@SAPAXIPAPAVCCommandProfile@@@Z 00432090 f i Prefs.obj
 0001:00031090       ??$?2PAVWindowPrefs@@@Wrapper@?$CSimpleArray@PAVWindowPrefs@@V?$CSimpleArrayEqualHelper@PAVWindowPrefs@@@ATL@@@ATL@@SAPAXIPAPAVWindowPrefs@@@Z 00432090 f i ChildFrm.obj
 0001:00031090       ??$?2PAVCPrefsPage@@@Wrapper@?$CSimpleArray@PAVCPrefsPage@@V?$CSimpleArrayEqualHelper@PAVCPrefsPage@@@ATL@@@ATL@@SAPAXIPAPAVCPrefsPage@@@Z 00432090 f i PrefsDlg.obj
 0001:00031090       ??$?2PAVIRCNetworkDetails@@@Wrapper@?$CSimpleArray@PAVIRCNetworkDetails@@V?$CSimpleArrayEqualHelper@PAVIRCNetworkDetails@@@ATL@@@ATL@@SAPAXIPAPAVIRCNetworkDetails@@@Z 00432090 f i ConnectDlg.obj
 0001:00031090       ??$?2U_AtlDlgResizeData@?$CDialogResize@VCNotificationsPage@@@WTL@@@Wrapper@?$CSimpleArray@U_AtlDlgResizeData@?$CDialogResize@VCNotificationsPage@@@WTL@@V?$CSimpleArrayEqualHelper@U_AtlDlgResizeData@?$CDialogResize@VCNotificationsPage@@@WTL@@@ATL@@@ATL@@SAPAXIPAU_AtlDlgResizeData@?$CDialogResize@VCNotificationsPage@@@WTL@@@Z 00432090 f i Prefs_NotificationsPage.obj
 0001:00031090       ??$?2U_AtlDlgResizeData@?$CDialogResize@VCEditServerDetailsDlg@@@WTL@@@Wrapper@?$CSimpleArray@U_AtlDlgResizeData@?$CDialogResize@VCEditServerDetailsDlg@@@WTL@@V?$CSimpleArrayEqualHelper@U_AtlDlgResizeData@?$CDialogResize@VCEditServerDetailsDlg@@@WTL@@@ATL@@@ATL@@SAPAXIPAU_AtlDlgResizeData@?$CDialogResize@VCEditServerDetailsDlg@@@WTL@@@Z 00432090 f i EditServerDetailsDlg.obj
 0001:00031090       ??$?2PAVIRCChannel@@@Wrapper@?$CSimpleArray@PAVIRCChannel@@V?$CSimpleArrayEqualHelper@PAVIRCChannel@@@ATL@@@ATL@@SAPAXIPAPAVIRCChannel@@@Z 00432090 f i ChannelMonitor.obj
 0001:00031090       ??$?2K@?$Wrapper@K@?$CSimpleMap@KPAVCMessageLoop@WTL@@V?$CSimpleMapEqualHelper@KPAVCMessageLoop@WTL@@@ATL@@@ATL@@SAPAXIPAK@Z 00432090 f i HydraIRC.obj
 0001:00031090       ??$?2PAUNotificationEvent_s@@@Wrapper@?$CSimpleArray@PAUNotificationEvent_s@@V?$CSimpleArrayEqualHelper@PAUNotificationEvent_s@@@ATL@@@ATL@@SAPAXIPAPAUNotificationEvent_s@@@Z 00432090 f i Notification.obj
 0001:00031090       ??$?2PAVCChannelProperties@@@Wrapper@?$CSimpleArray@PAVCChannelProperties@@V?$CSimpleArrayEqualHelper@PAVCChannelProperties@@@ATL@@@ATL@@SAPAXIPAPAVCChannelProperties@@@Z 00432090 f i ChannelListDlg.obj
 0001:00031090       ??$?2PAVIRCServerDetails@@@Wrapper@?$CSimpleArray@PAVIRCServerDetails@@V?$CSimpleArrayEqualHelper@PAVIRCServerDetails@@@ATL@@@ATL@@SAPAXIPAPAVIRCServerDetails@@@Z 00432090 f i ConnectDlg.obj
 0001:00031090       ??$?2PAVCMessageLoop@WTL@@@?$Wrapper@PAVCMessageLoop@WTL@@@?$CSimpleMap@KPAVCMessageLoop@WTL@@V?$CSimpleMapEqualHelper@KPAVCMessageLoop@WTL@@@ATL@@@ATL@@SAPAXIPAPAVCMessageLoop@WTL@@@Z 00432090 f i HydraIRC.obj
 0001:00031090       ??$?2PA_W@?$Wrapper@PA_W@?$CSimpleMap@PADPA_WVCExpansionVectorEqualHelper@ATL@@@ATL@@SAPAXIPAPA_W@Z 00432090 f i HydraIRC.obj
 0001:00031090       ??$?2U_AtlDlgResizeData@?$CDialogResize@VCNotImplementedPage@@@WTL@@@Wrapper@?$CSimpleArray@U_AtlDlgResizeData@?$CDialogResize@VCNotImplementedPage@@@WTL@@V?$CSimpleArrayEqualHelper@U_AtlDlgResizeData@?$CDialogResize@VCNotImplementedPage@@@WTL@@@ATL@@@ATL@@SAPAXIPAU_AtlDlgResizeData@?$CDialogResize@VCNotImplementedPage@@@WTL@@@Z 00432090 f i MainFrm.obj
 0001:00031090       ??$?2PAVIProperty@@@Wrapper@?$CSimpleArray@PAVIProperty@@V?$CSimpleArrayEqualHelper@PAVIProperty@@@ATL@@@ATL@@SAPAXIPAPAVIProperty@@@Z 00432090 f i MainFrm.obj
 0001:00031090       ??$?2PAVCListener@@@Wrapper@?$CSimpleArray@PAVCListener@@V?$CSimpleArrayEqualHelper@PAVCListener@@@ATL@@@ATL@@SAPAXIPAPAVCListener@@@Z 00432090 f i EventManager.obj
 0001:00031090       ??$?2PAVEventLogFilterGroup@@@Wrapper@?$CSimpleArray@PAVEventLogFilterGroup@@V?$CSimpleArrayEqualHelper@PAVEventLogFilterGroup@@@ATL@@@ATL@@SAPAXIPAPAVEventLogFilterGroup@@@Z 00432090 f i EventLogFrm.obj
 0001:00031090       ??$?2PAVCChildCommon@@@Wrapper@?$CSimpleArray@PAVCChildCommon@@V?$CSimpleArrayEqualHelper@PAVCChildCommon@@@ATL@@@ATL@@SAPAXIPAPAVCChildCommon@@@Z 00432090 f i Channel.obj
 0001:00031090       ??$?2PAVUserIdentity@@@Wrapper@?$CSimpleArray@PAVUserIdentity@@V?$CSimpleArrayEqualHelper@PAVUserIdentity@@@ATL@@@ATL@@SAPAXIPAPAVUserIdentity@@@Z 00432090 f i ConnectDlg.obj
 0001:00031090       ??$?2U_AtlDlgResizeData@?$CDialogResize@VCFavoritesDlg@@@WTL@@@Wrapper@?$CSimpleArray@U_AtlDlgResizeData@?$CDialogResize@VCFavoritesDlg@@@WTL@@V?$CSimpleArrayEqualHelper@U_AtlDlgResizeData@?$CDialogResize@VCFavoritesDlg@@@WTL@@@ATL@@@ATL@@SAPAXIPAU_AtlDlgResizeData@?$CDialogResize@VCFavoritesDlg@@@WTL@@@Z 00432090 f i FavoritesDlg.obj
 0001:00031090       ??$?2PAUHMENU__@@@Wrapper@?$CSimpleArray@PAUHMENU__@@V?$CSimpleArrayEqualHelper@PAUHMENU__@@@ATL@@@ATL@@SAPAXIPAPAUHMENU__@@@Z 00432090 f i HydraIRC.obj
 0001:00031090       ??$?2VCComBSTR@ATL@@@Wrapper@?$CSimpleArray@VCComBSTR@ATL@@V?$CSimpleArrayEqualHelper@VCComBSTR@ATL@@@2@@ATL@@SAPAXIPAVCComBSTR@2@@Z 00432090 f i Prefs_MiscPage.obj
 0001:00031090       ??$?2U_AtlDlgResizeData@?$CDialogResize@VCConnectDlg@@@WTL@@@Wrapper@?$CSimpleArray@U_AtlDlgResizeData@?$CDialogResize@VCConnectDlg@@@WTL@@V?$CSimpleArrayEqualHelper@U_AtlDlgResizeData@?$CDialogResize@VCConnectDlg@@@WTL@@@ATL@@@ATL@@SAPAXIPAU_AtlDlgResizeData@?$CDialogResize@VCConnectDlg@@@WTL@@@Z 00432090 f i ConnectDlg.obj
 0001:00031090       ??$?2PAVIRCQuery@@@Wrapper@?$CSimpleArray@PAVIRCQuery@@V?$CSimpleArrayEqualHelper@PAVIRCQuery@@@ATL@@@ATL@@SAPAXIPAPAVIRCQuery@@@Z 00432090 f i Server.obj
 0001:00031090       ??$?2PAUNotificationPrefInfo_s@@@Wrapper@?$CSimpleArray@PAUNotificationPrefInfo_s@@V?$CSimpleArrayEqualHelper@PAUNotificationPrefInfo_s@@@ATL@@@ATL@@SAPAXIPAPAUNotificationPrefInfo_s@@@Z 00432090 f i Prefs.obj
 0001:00031090       ??$?2K@?$Wrapper@K@?$CSimpleMap@KPAU_MsgHookData@CCommandBarCtrlBase@WTL@@V?$CSimpleMapEqualHelper@KPAU_MsgHookData@CCommandBarCtrlBase@WTL@@@ATL@@@ATL@@SAPAXIPAK@Z 00432090 f i HydraIRC.obj
 0001:00031090       ??$?2PAVCTimerCommand@@@Wrapper@?$CSimpleArray@PAVCTimerCommand@@V?$CSimpleArrayEqualHelper@PAVCTimerCommand@@@ATL@@@ATL@@SAPAXIPAPAVCTimerCommand@@@Z 00432090 f i ChildFrm.obj
 0001:00031090       ??$?2PAVIgnoreInfo@@@Wrapper@?$CSimpleArray@PAVIgnoreInfo@@V?$CSimpleArrayEqualHelper@PAVIgnoreInfo@@@ATL@@@ATL@@SAPAXIPAPAVIgnoreInfo@@@Z 00432090 f i ChildFrm.obj
 0001:00031090       ??$?2U_AtlDlgResizeData@?$CDialogResize@VCFavoritesAddDlg@@@WTL@@@Wrapper@?$CSimpleArray@U_AtlDlgResizeData@?$CDialogResize@VCFavoritesAddDlg@@@WTL@@V?$CSimpleArrayEqualHelper@U_AtlDlgResizeData@?$CDialogResize@VCFavoritesAddDlg@@@WTL@@@ATL@@@ATL@@SAPAXIPAU_AtlDlgResizeData@?$CDialogResize@VCFavoritesAddDlg@@@WTL@@@Z 00432090 f i FavoritesDlg.obj
 0001:00031090       ??$?2U_AtlDlgResizeData@?$CDialogResize@VCChannelListDlg@@@WTL@@@Wrapper@?$CSimpleArray@U_AtlDlgResizeData@?$CDialogResize@VCChannelListDlg@@@WTL@@V?$CSimpleArrayEqualHelper@U_AtlDlgResizeData@?$CDialogResize@VCChannelListDlg@@@WTL@@@ATL@@@ATL@@SAPAXIPAU_AtlDlgResizeData@?$CDialogResize@VCChannelListDlg@@@WTL@@@Z 00432090 f i ChannelListDlg.obj
 0001:00031090       ??$?2PAVIRCServer@@@Wrapper@?$CSimpleArray@PAVIRCServer@@V?$CSimpleArrayEqualHelper@PAVIRCServer@@@ATL@@@ATL@@SAPAXIPAPAVIRCServer@@@Z 00432090 f i Server.obj
 0001:00031090       ??$?2PAVCDCCTransfer@@@Wrapper@?$CSimpleArray@PAVCDCCTransfer@@V?$CSimpleArrayEqualHelper@PAVCDCCTransfer@@@ATL@@@ATL@@SAPAXIPAPAVCDCCTransfer@@@Z 00432090 f i Transfers.obj
 0001:00031090       ??$?2PAVTextQueueItem@@@Wrapper@?$CSimpleArray@PAVTextQueueItem@@V?$CSimpleArrayEqualHelper@PAVTextQueueItem@@@ATL@@@ATL@@SAPAXIPAPAVTextQueueItem@@@Z 00432090 f i TextQueue.obj
 0001:00031090       ??$?2U_AtlDlgResizeData@?$CDialogResize@VCEditNotificationDlg@@@WTL@@@Wrapper@?$CSimpleArray@U_AtlDlgResizeData@?$CDialogResize@VCEditNotificationDlg@@@WTL@@V?$CSimpleArrayEqualHelper@U_AtlDlgResizeData@?$CDialogResize@VCEditNotificationDlg@@@WTL@@@ATL@@@ATL@@SAPAXIPAU_AtlDlgResizeData@?$CDialogResize@VCEditNotificationDlg@@@WTL@@@Z 00432090 f i EditNotificationDlg.obj
 0001:00031090       ??$?2PAVCMessageFilter@WTL@@@Wrapper@?$CSimpleArray@PAVCMessageFilter@WTL@@V?$CSimpleArrayEqualHelper@PAVCMessageFilter@WTL@@@ATL@@@ATL@@SAPAXIPAPAVCMessageFilter@WTL@@@Z 00432090 f i MainFrm.obj
 0001:00031090       ??$?2U_AtlDlgResizeData@?$CDialogResize@VCEditBuddyGroupDlg@@@WTL@@@Wrapper@?$CSimpleArray@U_AtlDlgResizeData@?$CDialogResize@VCEditBuddyGroupDlg@@@WTL@@V?$CSimpleArrayEqualHelper@U_AtlDlgResizeData@?$CDialogResize@VCEditBuddyGroupDlg@@@WTL@@@ATL@@@ATL@@SAPAXIPAU_AtlDlgResizeData@?$CDialogResize@VCEditBuddyGroupDlg@@@WTL@@@Z 00432090 f i EditBuddyGroupDlg.obj
 0001:00031090       ??2@YAPAXIPAX@Z            00432090 f i ChildFrm.obj
 0001:00031090       ??$?2U_AtlDlgResizeData@?$CDialogResize@VCHighlightingPage@@@WTL@@@Wrapper@?$CSimpleArray@U_AtlDlgResizeData@?$CDialogResize@VCHighlightingPage@@@WTL@@V?$CSimpleArrayEqualHelper@U_AtlDlgResizeData@?$CDialogResize@VCHighlightingPage@@@WTL@@@ATL@@@ATL@@SAPAXIPAU_AtlDlgResizeData@?$CDialogResize@VCHighlightingPage@@@WTL@@@Z 00432090 f i Prefs_HighlightingPage.obj
 0001:00031090       ??$?2PAVIRCUser@@@Wrapper@?$CSimpleArray@PAVIRCUser@@V?$CSimpleArrayEqualHelper@PAVIRCUser@@@ATL@@@ATL@@SAPAXIPAPAVIRCUser@@@Z 00432090 f i Channel.obj
 0001:00031090       ??$?2U_AtlDlgResizeData@?$CDialogResize@VCMiscPage@@@WTL@@@Wrapper@?$CSimpleArray@U_AtlDlgResizeData@?$CDialogResize@VCMiscPage@@@WTL@@V?$CSimpleArrayEqualHelper@U_AtlDlgResizeData@?$CDialogResize@VCMiscPage@@@WTL@@@ATL@@@ATL@@SAPAXIPAU_AtlDlgResizeData@?$CDialogResize@VCMiscPage@@@WTL@@@Z 00432090 f i Prefs_MiscPage.obj
 0001:00031090       ??$?2U_AtlDlgResizeData@?$CDialogResize@VCAddNetworkDlg@@@WTL@@@Wrapper@?$CSimpleArray@U_AtlDlgResizeData@?$CDialogResize@VCAddNetworkDlg@@@WTL@@V?$CSimpleArrayEqualHelper@U_AtlDlgResizeData@?$CDialogResize@VCAddNetworkDlg@@@WTL@@@ATL@@@ATL@@SAPAXIPAU_AtlDlgResizeData@?$CDialogResize@VCAddNetworkDlg@@@WTL@@@Z 00432090 f i AddNetworkDlg.obj
 0001:00031090       ??$?2PAVBufferItem@@@Wrapper@?$CSimpleArray@PAVBufferItem@@V?$CSimpleArrayEqualHelper@PAVBufferItem@@@ATL@@@ATL@@SAPAXIPAPAVBufferItem@@@Z 00432090 f i Common.obj
 0001:00031090       ??$?2PAVEventLogItem@@@Wrapper@?$CSimpleArray@PAVEventLogItem@@V?$CSimpleArrayEqualHelper@PAVEventLogItem@@@ATL@@@ATL@@SAPAXIPAPAVEventLogItem@@@Z 00432090 f i EventLog.obj
 0001:00031090       ??$?2G@Wrapper@?$CSimpleArray@GV?$CSimpleArrayEqualHelper@G@ATL@@@ATL@@SAPAXIPAG@Z 00432090 f i ChannelMonitor.obj
 0001:00031090       ??$?2U_AtlDlgResizeData@?$CDialogResize@VCMessagesPage@@@WTL@@@Wrapper@?$CSimpleArray@U_AtlDlgResizeData@?$CDialogResize@VCMessagesPage@@@WTL@@V?$CSimpleArrayEqualHelper@U_AtlDlgResizeData@?$CDialogResize@VCMessagesPage@@@WTL@@@ATL@@@ATL@@SAPAXIPAU_AtlDlgResizeData@?$CDialogResize@VCMessagesPage@@@WTL@@@Z 00432090 f i Prefs_MessagesPage.obj
 0001:00031090       ??$?2PAVIRCUserGroup@@@Wrapper@?$CSimpleArray@PAVIRCUserGroup@@V?$CSimpleArrayEqualHelper@PAVIRCUserGroup@@@ATL@@@ATL@@SAPAXIPAPAVIRCUserGroup@@@Z 00432090 f i Prefs.obj
 0001:00031090       ??$?2U_AtlDlgResizeData@?$CDialogResize@VCChannelPropertiesDlg@@@WTL@@@Wrapper@?$CSimpleArray@U_AtlDlgResizeData@?$CDialogResize@VCChannelPropertiesDlg@@@WTL@@V?$CSimpleArrayEqualHelper@U_AtlDlgResizeData@?$CDialogResize@VCChannelPropertiesDlg@@@WTL@@@ATL@@@ATL@@SAPAXIPAU_AtlDlgResizeData@?$CDialogResize@VCChannelPropertiesDlg@@@WTL@@@Z 00432090 f i ChannelPropertiesDlg.obj
 0001:00031090       ??$?2PAU_MsgHookData@CCommandBarCtrlBase@WTL@@@?$Wrapper@PAU_MsgHookData@CCommandBarCtrlBase@WTL@@@?$CSimpleMap@KPAU_MsgHookData@CCommandBarCtrlBase@WTL@@V?$CSimpleMapEqualHelper@KPAU_MsgHookData@CCommandBarCtrlBase@WTL@@@ATL@@@ATL@@SAPAXIPAPAU_MsgHookData@CCommandBarCtrlBase@WTL@@@Z 00432090 f i HydraIRC.obj
 0001:00031090       ??$?2PAVCIdleHandler@WTL@@@Wrapper@?$CSimpleArray@PAVCIdleHandler@WTL@@V?$CSimpleArrayEqualHelper@PAVCIdleHandler@WTL@@@ATL@@@ATL@@SAPAXIPAPAVCIdleHandler@WTL@@@Z 00432090 f i MainFrm.obj
 0001:00031090       ??$?2U_AtlDlgResizeData@?$CDialogResize@VCPrefsDlg@@@WTL@@@Wrapper@?$CSimpleArray@U_AtlDlgResizeData@?$CDialogResize@VCPrefsDlg@@@WTL@@V?$CSimpleArrayEqualHelper@U_AtlDlgResizeData@?$CDialogResize@VCPrefsDlg@@@WTL@@@ATL@@@ATL@@SAPAXIPAU_AtlDlgResizeData@?$CDialogResize@VCPrefsDlg@@@WTL@@@Z 00432090 f i PrefsDlg.obj
 0001:00031090       ??$?2PAUHWND__@@@Wrapper@?$CSimpleArray@PAUHWND__@@V?$CSimpleArrayEqualHelper@PAUHWND__@@@ATL@@@ATL@@SAPAXIPAPAUHWND__@@@Z 00432090 f i ChildFrm.obj
 0001:00031090       ??$?2U_AtlDlgResizeData@?$CDialogResize@VCIdentitiesPage@@@WTL@@@Wrapper@?$CSimpleArray@U_AtlDlgResizeData@?$CDialogResize@VCIdentitiesPage@@@WTL@@V?$CSimpleArrayEqualHelper@U_AtlDlgResizeData@?$CDialogResize@VCIdentitiesPage@@@WTL@@@ATL@@@ATL@@SAPAXIPAU_AtlDlgResizeData@?$CDialogResize@VCIdentitiesPage@@@WTL@@@Z 00432090 f i Prefs_IdentitiesPage.obj
 0001:00031090       ??$?2U_AtlDlgResizeData@?$CDialogResize@VCBuddyGroupsPage@@@WTL@@@Wrapper@?$CSimpleArray@U_AtlDlgResizeData@?$CDialogResize@VCBuddyGroupsPage@@@WTL@@V?$CSimpleArrayEqualHelper@U_AtlDlgResizeData@?$CDialogResize@VCBuddyGroupsPage@@@WTL@@@ATL@@@ATL@@SAPAXIPAU_AtlDlgResizeData@?$CDialogResize@VCBuddyGroupsPage@@@WTL@@@Z 00432090 f i Prefs_BuddyGroupsPage.obj
 0001:00031090       ??$?2U_AtlDlgResizeData@?$CDialogResize@VCLoggingPage@@@WTL@@@Wrapper@?$CSimpleArray@U_AtlDlgResizeData@?$CDialogResize@VCLoggingPage@@@WTL@@V?$CSimpleArrayEqualHelper@U_AtlDlgResizeData@?$CDialogResize@VCLoggingPage@@@WTL@@@ATL@@@ATL@@SAPAXIPAU_AtlDlgResizeData@?$CDialogResize@VCLoggingPage@@@WTL@@@Z 00432090 f i Prefs_LoggingPage.obj
 0001:00031090       ??$?2PAD@Wrapper@?$CSimpleArray@PADV?$CSimpleArrayEqualHelper@PAD@ATL@@@ATL@@SAPAXIPAPAD@Z 00432090 f i ChildFrm.obj
 0001:00031090       ??$?2PAVThemeHandle@@@Wrapper@?$CSimpleArray@PAVThemeHandle@@V?$CSimpleArrayEqualHelper@PAVThemeHandle@@@ATL@@@ATL@@SAPAXIPAPAVThemeHandle@@@Z 00432090 f i Prefs.obj
 0001:00031090       ??$?2H@Wrapper@?$CSimpleArray@HV?$CSimpleArrayEqualHelper@H@ATL@@@ATL@@SAPAXIPAH@Z 00432090 f i Channel.obj
 0001:000310a0       ?AddItem@EventLogManager@@QAEXHHPBD0PAVIRCServer@@PAVIRCChannel@@@Z 004320a0 f   EventLog.obj
 0001:00031180       ?RemoveItem@EventLogManager@@AAEXPAVEventLogItem@@@Z 00432180 f   EventLog.obj
 0001:000311e0       ?RemoveOldItems@EventLogManager@@QAEXXZ 004321e0 f   EventLog.obj
 0001:000312d0       ??0EventLogManager@@QAE@XZ 004322d0 f   EventLog.obj
 0001:00031370       ??1EventLogManager@@QAE@XZ 00432370 f   EventLog.obj
 0001:00031440       ?BuildMessage@EventLogManager@@QAAXPBDZZ 00432440 f   EventLog.obj
 0001:00031480       ??0EventLogItem@@QAE@HHPBD0PAVIRCServer@@PAVIRCChannel@@@Z 00432480 f   EventLog.obj
 0001:000315f0       ??1EventLogItem@@QAE@XZ    004325f0 f   EventLog.obj
 0001:000316a0       ??_GEventLogItem@@QAEPAXI@Z 004326a0 f i EventLog.obj
 0001:000316d0       ??0CEventLogView@@QAE@PAVEventLogManager@@KPAVCEventManager@@@Z 004326d0 f   EventLogFrm.obj
 0001:000317c0       ??1CEventLogView@@UAE@XZ   004327c0 f   EventLogFrm.obj
 0001:000318f0       ?OnCreate@CEventLogView@@QAEJIIJAAH@Z 004328f0 f   EventLogFrm.obj
 0001:00031ad0       ?RefreshItems@CEventLogView@@AAEXXZ 00432ad0 f   EventLogFrm.obj
 0001:00031b50       ?OnSize@CEventLogView@@QAEJIIJAAH@Z 00432b50 f   EventLogFrm.obj
 0001:00031b90       ?OnClose@CEventLogView@@QAEJIIJAAH@Z 00432b90 f   EventLogFrm.obj
 0001:00031bb0       ?AutoSizeColumns@CEventLogView@@QAEXXZ 00432bb0 f   EventLogFrm.obj
 0001:00031c30       ?AddItem@CEventLogView@@QAEXPAVEventLogItem@@H@Z 00432c30 f   EventLogFrm.obj
 0001:00031ee0       ?RemoveItem@CEventLogView@@QAEXPAVEventLogItem@@@Z 00432ee0 f   EventLogFrm.obj
 0001:00031f50       ?OnLvnKeyDown@CEventLogView@@QAEJHPAUtagNMHDR@@AAH@Z 00432f50 f   EventLogFrm.obj
 0001:00031ff0       ?OnNmRClick@CEventLogView@@QAEJHPAUtagNMHDR@@AAH@Z 00432ff0 f   EventLogFrm.obj
 0001:000324e0       ?OnMenuItemSelected@CEventLogView@@QAEJGGPAUHWND__@@AAH@Z 004334e0 f   EventLogFrm.obj
 0001:00032500       ?InitFilterGroups@CEventLogView@@AAEXXZ 00433500 f   EventLogFrm.obj
 0001:00032a00       ?DoAction@CEventLogView@@AAEXH@Z 00433a00 f   EventLogFrm.obj
 0001:00032fb0       ?DoDefaultAction@CEventLogView@@AAEXPAVEventLogItem@@@Z 00433fb0 f   EventLogFrm.obj
 0001:00033100       ?OnNmDblClick@CEventLogView@@QAEJHPAUtagNMHDR@@AAH@Z 00434100 f   EventLogFrm.obj
 0001:00033150       ?OnNmCustomDraw@CEventLogView@@QAEJHPAUtagNMHDR@@AAH@Z 00434150 f   EventLogFrm.obj
 0001:000331e0       ?OnEvent@CEventLogView@@UAEXHPAX@Z 004341e0 f   EventLogFrm.obj
 0001:00033210       ?UpdateSettings@CEventLogView@@QAEXXZ 00434210 f   EventLogFrm.obj
 0001:00033260       ?ProcessWindowMessage@CEventLogView@@UAEHPAUHWND__@@IIJAAJK@Z 00434260 f i EventLogFrm.obj
 0001:00033530       ??_GEventLogFilterGroup@@QAEPAXI@Z 00434530 f i EventLogFrm.obj
 0001:00033560       ??1EventLogFilterGroup@@QAE@XZ 00434560 f i EventLogFrm.obj
 0001:000335c0       ??0EventLogFilterGroup@@QAE@HPAH@Z 004345c0 f i EventLogFrm.obj
 0001:00033630       ?AddList@EventLogFilterGroup@@QAEXPAH@Z 00434630 f i EventLogFrm.obj
 0001:00033670       ?Create@?$CListViewCtrlT@VCWindow@ATL@@@WTL@@QAEPAUHWND__@@PAU3@V_U_RECT@ATL@@PBDKKV_U_MENUorID@5@PAX@Z 00434670 f i EventLogFrm.obj
 0001:000336c0       ?SetBkColor@?$CListViewCtrlT@VCWindow@ATL@@@WTL@@QAEHK@Z 004346c0 f i EventLogFrm.obj
 0001:000336f0       ?DeleteItem@?$CListViewCtrlT@VCWindow@ATL@@@WTL@@QAEHH@Z 004346f0 f i EventLogFrm.obj
 0001:00033720       ?MoveWindow@CWindow@ATL@@QAEHPBUtagRECT@@H@Z 00434720 f i EventLogFrm.obj
 0001:00033770       ?OnGetMinMaxInfo@?$CTitleDockingWindowBaseImpl@VCOutputView@@VCWindow@ATL@@U?$CBoxedDockingWindowTraits@VCVC7LikeExCaption@dockwins@@V?$CTabDockingBox@U?$CDockingBoxTraits@VCVC7LikeExCaption@dockwins@@$0IGMPAAAA@$0IA@@dockwins@@@2@$0JGMPAAAA@$0IA@@dockwins@@@dockwins@@QAEJIIJAAH@Z 00434770 f i Output.obj
 0001:00033770       ?OnGetMinMaxInfo@?$CTitleDockingWindowBaseImpl@VCTextQueueView@@VCWindow@ATL@@U?$CBoxedDockingWindowTraits@VCVC7LikeExCaption@dockwins@@V?$CTabDockingBox@U?$CDockingBoxTraits@VCVC7LikeExCaption@dockwins@@$0IGMPAAAA@$0IA@@dockwins@@@2@$0JGMPAAAA@$0IA@@dockwins@@@dockwins@@QAEJIIJAAH@Z 00434770 f i TextQueueFrm.obj
 0001:00033770       ?OnGetMinMaxInfo@?$CTitleDockingWindowBaseImpl@VCChannelMonitorView@@VCWindow@ATL@@U?$CBoxedDockingWindowTraits@VCVC7LikeExCaption@dockwins@@V?$CTabDockingBox@U?$CDockingBoxTraits@VCVC7LikeExCaption@dockwins@@$0IGMPAAAA@$0IA@@dockwins@@@2@$0JGMPAAAA@$0IA@@dockwins@@@dockwins@@QAEJIIJAAH@Z 00434770 f i HydraIRC.obj
 0001:00033770       ?OnGetMinMaxInfo@?$CTitleDockingWindowBaseImpl@VCServerListView@@VCWindow@ATL@@U?$CBoxedDockingWindowTraits@UCVC7LikeCaption@dockwins@@V?$CTabDockingBox@U?$CDockingBoxTraits@UCVC7LikeCaption@dockwins@@$0IGMPAAAA@$0IA@@dockwins@@@2@$0JGMPAAAA@$0IA@@dockwins@@@dockwins@@QAEJIIJAAH@Z 00434770 f i HydraIRC.obj
 0001:00033770       ?OnGetMinMaxInfo@?$CTitleDockingWindowBaseImpl@VCEventLogView@@VCWindow@ATL@@U?$CBoxedDockingWindowTraits@VCVC7LikeExCaption@dockwins@@V?$CTabDockingBox@U?$CDockingBoxTraits@VCVC7LikeExCaption@dockwins@@$0IGMPAAAA@$0IA@@dockwins@@@2@$0JGMPAAAA@$0IA@@dockwins@@@dockwins@@QAEJIIJAAH@Z 00434770 f i EventLogFrm.obj
 0001:00033770       ?OnGetMinMaxInfo@?$CTitleDockingWindowBaseImpl@VCUserListView@@VCWindow@ATL@@U?$CBoxedDockingWindowTraits@UCVC7LikeCaption@dockwins@@V?$CTabDockingBox@U?$CDockingBoxTraits@UCVC7LikeCaption@dockwins@@$0IGMPAAAA@$0IA@@dockwins@@@2@$0JGMPAAAA@$0IA@@dockwins@@@dockwins@@QAEJIIJAAH@Z 00434770 f i ChildFrm.obj
 0001:00033770       ?OnGetMinMaxInfo@?$CTitleDockingWindowBaseImpl@VCTransfersView@@VCWindow@ATL@@U?$CBoxedDockingWindowTraits@VCVC7LikeExCaption@dockwins@@V?$CTabDockingBox@U?$CDockingBoxTraits@VCVC7LikeExCaption@dockwins@@$0IGMPAAAA@$0IA@@dockwins@@@2@$0JGMPAAAA@$0IA@@dockwins@@@dockwins@@QAEJIIJAAH@Z 00434770 f i Transfers.obj
 0001:00033770       ?OnGetMinMaxInfo@?$CTitleDockingWindowBaseImpl@VCServerMonitorView@@VCWindow@ATL@@U?$CBoxedDockingWindowTraits@VCVC7LikeExCaption@dockwins@@V?$CTabDockingBox@U?$CDockingBoxTraits@VCVC7LikeExCaption@dockwins@@$0IGMPAAAA@$0IA@@dockwins@@@2@$0JGMPAAAA@$0IA@@dockwins@@@dockwins@@QAEJIIJAAH@Z 00434770 f i HydraIRC.obj
 0001:000337d0       ??0?$CDockingWindowBaseImpl@V?$CTabDockingBox@U?$CDockingBoxTraits@UCVC7LikeCaption@dockwins@@$0IGMPAAAA@$0IA@@dockwins@@@dockwins@@VCWindow@ATL@@U?$CDockingBoxTraits@UCVC7LikeCaption@dockwins@@$0IGMPAAAA@$0IA@@2@@dockwins@@QAE@XZ 004347d0 f i ChildFrm.obj
 0001:000337d0       ??0?$CDockingWindowBaseImpl@VCTransfersView@@VCWindow@ATL@@U?$CBoxedDockingWindowTraits@VCVC7LikeExCaption@dockwins@@V?$CTabDockingBox@U?$CDockingBoxTraits@VCVC7LikeExCaption@dockwins@@$0IGMPAAAA@$0IA@@dockwins@@@2@$0JGMPAAAA@$0IA@@dockwins@@@dockwins@@QAE@XZ 004347d0 f i Transfers.obj
 0001:000337d0       ??0?$CDockingWindowBaseImpl@VCEventLogView@@VCWindow@ATL@@U?$CBoxedDockingWindowTraits@VCVC7LikeExCaption@dockwins@@V?$CTabDockingBox@U?$CDockingBoxTraits@VCVC7LikeExCaption@dockwins@@$0IGMPAAAA@$0IA@@dockwins@@@2@$0JGMPAAAA@$0IA@@dockwins@@@dockwins@@QAE@XZ 004347d0 f i EventLogFrm.obj
 0001:000337d0       ??0?$CDockingWindowBaseImpl@VCOutputView@@VCWindow@ATL@@U?$CBoxedDockingWindowTraits@VCVC7LikeExCaption@dockwins@@V?$CTabDockingBox@U?$CDockingBoxTraits@VCVC7LikeExCaption@dockwins@@$0IGMPAAAA@$0IA@@dockwins@@@2@$0JGMPAAAA@$0IA@@dockwins@@@dockwins@@QAE@XZ 004347d0 f i Output.obj
 0001:000337d0       ??0?$CDockingWindowBaseImpl@VCChannelMonitorView@@VCWindow@ATL@@U?$CBoxedDockingWindowTraits@VCVC7LikeExCaption@dockwins@@V?$CTabDockingBox@U?$CDockingBoxTraits@VCVC7LikeExCaption@dockwins@@$0IGMPAAAA@$0IA@@dockwins@@@2@$0JGMPAAAA@$0IA@@dockwins@@@dockwins@@QAE@XZ 004347d0 f i HydraIRC.obj
 0001:000337d0       ??0?$CDockingWindowBaseImpl@VCTextQueueView@@VCWindow@ATL@@U?$CBoxedDockingWindowTraits@VCVC7LikeExCaption@dockwins@@V?$CTabDockingBox@U?$CDockingBoxTraits@VCVC7LikeExCaption@dockwins@@$0IGMPAAAA@$0IA@@dockwins@@@2@$0JGMPAAAA@$0IA@@dockwins@@@dockwins@@QAE@XZ 004347d0 f i TextQueueFrm.obj
 0001:000337d0       ??0?$CDockingWindowBaseImpl@VCServerListView@@VCWindow@ATL@@U?$CBoxedDockingWindowTraits@UCVC7LikeCaption@dockwins@@V?$CTabDockingBox@U?$CDockingBoxTraits@UCVC7LikeCaption@dockwins@@$0IGMPAAAA@$0IA@@dockwins@@@2@$0JGMPAAAA@$0IA@@dockwins@@@dockwins@@QAE@XZ 004347d0 f i HydraIRC.obj
 0001:000337d0       ??0?$CDockingWindowBaseImpl@V?$CTabDockingBox@U?$CDockingBoxTraits@VCVC7LikeExCaption@dockwins@@$0IGMPAAAA@$0IA@@dockwins@@@dockwins@@VCWindow@ATL@@U?$CDockingBoxTraits@VCVC7LikeExCaption@dockwins@@$0IGMPAAAA@$0IA@@2@@dockwins@@QAE@XZ 004347d0 f i EventLogFrm.obj
 0001:000337d0       ??0?$CDockingWindowBaseImpl@VCServerMonitorView@@VCWindow@ATL@@U?$CBoxedDockingWindowTraits@VCVC7LikeExCaption@dockwins@@V?$CTabDockingBox@U?$CDockingBoxTraits@VCVC7LikeExCaption@dockwins@@$0IGMPAAAA@$0IA@@dockwins@@@2@$0JGMPAAAA@$0IA@@dockwins@@@dockwins@@QAE@XZ 004347d0 f i HydraIRC.obj
 0001:000337d0       ??0?$CDockingWindowBaseImpl@VCUserListView@@VCWindow@ATL@@U?$CBoxedDockingWindowTraits@UCVC7LikeCaption@dockwins@@V?$CTabDockingBox@U?$CDockingBoxTraits@UCVC7LikeCaption@dockwins@@$0IGMPAAAA@$0IA@@dockwins@@@2@$0JGMPAAAA@$0IA@@dockwins@@@dockwins@@QAE@XZ 004347d0 f i ChildFrm.obj
 0001:00033850       ?CompareItem@?$COwnerDraw@V?$CPropertyListImpl@V?$CListBoxT@VCWindow@ATL@@@WTL@@V12@V?$CWinTraitsOR@$0CB@$0A@V?$CWinTraits@$0FGAAAAAA@$0A@@ATL@@@ATL@@@@@WTL@@QAEHPAUtagCOMPAREITEMSTRUCT@@@Z 00434850 f i MainFrm.obj
 0001:00033850       ?GetValue@CProperty@@UBEHPAUtagVARIANT@@@Z 00434850 f i Prefs_MiscPage.obj
 0001:00033850       ?OnUndock@?$CBoxedDockingWindowBaseImpl@VCEventLogView@@VCWindow@ATL@@U?$CBoxedDockingWindowTraits@VCVC7LikeExCaption@dockwins@@V?$CTabDockingBox@U?$CDockingBoxTraits@VCVC7LikeExCaption@dockwins@@$0IGMPAAAA@$0IA@@dockwins@@@2@$0JGMPAAAA@$0IA@@dockwins@@@dockwins@@QAEJPAUtagDFMHDR@2@@Z 00434850 f i EventLogFrm.obj
 0001:00033850       ?OnUndock@?$CBoxedDockingWindowBaseImpl@VCServerMonitorView@@VCWindow@ATL@@U?$CBoxedDockingWindowTraits@VCVC7LikeExCaption@dockwins@@V?$CTabDockingBox@U?$CDockingBoxTraits@VCVC7LikeExCaption@dockwins@@$0IGMPAAAA@$0IA@@dockwins@@@2@$0JGMPAAAA@$0IA@@dockwins@@@dockwins@@QAEJPAUtagDFMHDR@2@@Z 00434850 f i HydraIRC.obj
 0001:00033850       ?GetToolTipText@?$CPaneContainerImpl@VCHydraPaneContainer@@VCWindow@ATL@@V?$CWinTraits@$0FGAAAAAA@$0A@@3@@WTL@@QAEHPAUtagNMHDR@@@Z 00434850 f i ChildFrm.obj
 0001:00033850       ?OnUndock@?$CBoxedDockingWindowBaseImpl@VCOutputView@@VCWindow@ATL@@U?$CBoxedDockingWindowTraits@VCVC7LikeExCaption@dockwins@@V?$CTabDockingBox@U?$CDockingBoxTraits@VCVC7LikeExCaption@dockwins@@$0IGMPAAAA@$0IA@@dockwins@@@2@$0JGMPAAAA@$0IA@@dockwins@@@dockwins@@QAEJPAUtagDFMHDR@2@@Z 00434850 f i Output.obj
 0001:00033850       ?SetValue@CPropertyFileNameItem@@UAEHPAUHWND__@@@Z 00434850 f i Prefs_MiscPage.obj
 0001:00033850       ?SetValue@CProperty@@UAEHABUtagVARIANT@@@Z 00434850 f i Prefs_MiscPage.obj
 0001:00033850       ?OnUndock@?$CBoxedDockingWindowBaseImpl@VCChannelMonitorView@@VCWindow@ATL@@U?$CBoxedDockingWindowTraits@VCVC7LikeExCaption@dockwins@@V?$CTabDockingBox@U?$CDockingBoxTraits@VCVC7LikeExCaption@dockwins@@$0IGMPAAAA@$0IA@@dockwins@@@2@$0JGMPAAAA@$0IA@@dockwins@@@dockwins@@QAEJPAUtagDFMHDR@2@@Z 00434850 f i HydraIRC.obj
 0001:00033850       ?SetValue@CProperty@@UAEHPAUHWND__@@@Z 00434850 f i Prefs_MiscPage.obj
 0001:00033850       ?OnUndock@?$CBoxedDockingWindowBaseImpl@VCUserListView@@VCWindow@ATL@@U?$CBoxedDockingWindowTraits@UCVC7LikeCaption@dockwins@@V?$CTabDockingBox@U?$CDockingBoxTraits@UCVC7LikeCaption@dockwins@@$0IGMPAAAA@$0IA@@dockwins@@@2@$0JGMPAAAA@$0IA@@dockwins@@@dockwins@@QAEJPAUtagDFMHDR@2@@Z 00434850 f i ChildFrm.obj
 0001:00033850       ?OnUndock@?$CBoxedDockingWindowBaseImpl@VCTransfersView@@VCWindow@ATL@@U?$CBoxedDockingWindowTraits@VCVC7LikeExCaption@dockwins@@V?$CTabDockingBox@U?$CDockingBoxTraits@VCVC7LikeExCaption@dockwins@@$0IGMPAAAA@$0IA@@dockwins@@@2@$0JGMPAAAA@$0IA@@dockwins@@@dockwins@@QAEJPAUtagDFMHDR@2@@Z 00434850 f i Transfers.obj
 0001:00033850       ?OnUndock@?$CBoxedDockingWindowBaseImpl@VCTextQueueView@@VCWindow@ATL@@U?$CBoxedDockingWindowTraits@VCVC7LikeExCaption@dockwins@@V?$CTabDockingBox@U?$CDockingBoxTraits@VCVC7LikeExCaption@dockwins@@$0IGMPAAAA@$0IA@@dockwins@@@2@$0JGMPAAAA@$0IA@@dockwins@@@dockwins@@QAEJPAUtagDFMHDR@2@@Z 00434850 f i TextQueueFrm.obj
 0001:00033850       ?OnUndock@?$CBoxedDockingWindowBaseImpl@VCServerListView@@VCWindow@ATL@@U?$CBoxedDockingWindowTraits@UCVC7LikeCaption@dockwins@@V?$CTabDockingBox@U?$CDockingBoxTraits@UCVC7LikeCaption@dockwins@@$0IGMPAAAA@$0IA@@dockwins@@@2@$0JGMPAAAA@$0IA@@dockwins@@@dockwins@@QAEJPAUtagDFMHDR@2@@Z 00434850 f i HydraIRC.obj
 0001:00033860       ?OnDocked@?$CTitleDockingWindowBaseImpl@VCOutputView@@VCWindow@ATL@@U?$CBoxedDockingWindowTraits@VCVC7LikeExCaption@dockwins@@V?$CTabDockingBox@U?$CDockingBoxTraits@VCVC7LikeExCaption@dockwins@@$0IGMPAAAA@$0IA@@dockwins@@@2@$0JGMPAAAA@$0IA@@dockwins@@@dockwins@@QAEXPAUHWND__@@_N@Z 00434860 f i Output.obj
 0001:00033860       ?OnDocked@?$CTitleDockingWindowBaseImpl@VCChannelMonitorView@@VCWindow@ATL@@U?$CBoxedDockingWindowTraits@VCVC7LikeExCaption@dockwins@@V?$CTabDockingBox@U?$CDockingBoxTraits@VCVC7LikeExCaption@dockwins@@$0IGMPAAAA@$0IA@@dockwins@@@2@$0JGMPAAAA@$0IA@@dockwins@@@dockwins@@QAEXPAUHWND__@@_N@Z 00434860 f i ChannelMonitor.obj
 0001:00033860       ?OnDocked@?$CTitleDockingWindowBaseImpl@VCTransfersView@@VCWindow@ATL@@U?$CBoxedDockingWindowTraits@VCVC7LikeExCaption@dockwins@@V?$CTabDockingBox@U?$CDockingBoxTraits@VCVC7LikeExCaption@dockwins@@$0IGMPAAAA@$0IA@@dockwins@@@2@$0JGMPAAAA@$0IA@@dockwins@@@dockwins@@QAEXPAUHWND__@@_N@Z 00434860 f i Transfers.obj
 0001:00033860       ?OnDocked@?$CTitleDockingWindowBaseImpl@VCTextQueueView@@VCWindow@ATL@@U?$CBoxedDockingWindowTraits@VCVC7LikeExCaption@dockwins@@V?$CTabDockingBox@U?$CDockingBoxTraits@VCVC7LikeExCaption@dockwins@@$0IGMPAAAA@$0IA@@dockwins@@@2@$0JGMPAAAA@$0IA@@dockwins@@@dockwins@@QAEXPAUHWND__@@_N@Z 00434860 f i TextQueueFrm.obj
 0001:00033860       ?OnDocked@?$CTitleDockingWindowBaseImpl@VCServerMonitorView@@VCWindow@ATL@@U?$CBoxedDockingWindowTraits@VCVC7LikeExCaption@dockwins@@V?$CTabDockingBox@U?$CDockingBoxTraits@VCVC7LikeExCaption@dockwins@@$0IGMPAAAA@$0IA@@dockwins@@@2@$0JGMPAAAA@$0IA@@dockwins@@@dockwins@@QAEXPAUHWND__@@_N@Z 00434860 f i ServerMonitor.obj
 0001:00033860       ?OnDocked@?$CTitleDockingWindowBaseImpl@V?$CTabDockingBox@U?$CDockingBoxTraits@VCVC7LikeExCaption@dockwins@@$0IGMPAAAA@$0IA@@dockwins@@@dockwins@@VCWindow@ATL@@U?$CDockingBoxTraits@VCVC7LikeExCaption@dockwins@@$0IGMPAAAA@$0IA@@2@@dockwins@@QAEXPAUHWND__@@_N@Z 00434860 f i EventLogFrm.obj
 0001:00033860       ?OnDocked@?$CTitleDockingWindowBaseImpl@VCEventLogView@@VCWindow@ATL@@U?$CBoxedDockingWindowTraits@VCVC7LikeExCaption@dockwins@@V?$CTabDockingBox@U?$CDockingBoxTraits@VCVC7LikeExCaption@dockwins@@$0IGMPAAAA@$0IA@@dockwins@@@2@$0JGMPAAAA@$0IA@@dockwins@@@dockwins@@QAEXPAUHWND__@@_N@Z 00434860 f i EventLogFrm.obj
 0001:000338a0       ?GetWndClassName@?$CListViewCtrlT@VCWindow@ATL@@@WTL@@SAPBDXZ 004348a0 f i EventLogFrm.obj
 0001:000338b0       ?OnDropLeftButton@?$CDDTrackerBaseT@VCGhostMoveTracker@?$CDockingWindowBaseImpl@VCServerMonitorView@@VCWindow@ATL@@U?$CBoxedDockingWindowTraits@VCVC7LikeExCaption@dockwins@@V?$CTabDockingBox@U?$CDockingBoxTraits@VCVC7LikeExCaption@dockwins@@$0IGMPAAAA@$0IA@@dockwins@@@2@$0JGMPAAAA@$0IA@@dockwins@@@dockwins@@@@QAEXJJ@Z 004348b0 f i HydraIRC.obj
 0001:000338b0       ?OnDropRightButton@?$CDDTrackerBaseT@VCGhostMoveTracker@?$CDockingWindowBaseImpl@VCTextQueueView@@VCWindow@ATL@@U?$CBoxedDockingWindowTraits@VCVC7LikeExCaption@dockwins@@V?$CTabDockingBox@U?$CDockingBoxTraits@VCVC7LikeExCaption@dockwins@@$0IGMPAAAA@$0IA@@dockwins@@@2@$0JGMPAAAA@$0IA@@dockwins@@@dockwins@@@@QAEXJJ@Z 004348b0 f i TextQueueFrm.obj
 0001:000338b0       ?OnDropRightButton@?$CDDTrackerBaseT@VCGhostMoveTracker@?$CDockingWindowBaseImpl@VCOutputView@@VCWindow@ATL@@U?$CBoxedDockingWindowTraits@VCVC7LikeExCaption@dockwins@@V?$CTabDockingBox@U?$CDockingBoxTraits@VCVC7LikeExCaption@dockwins@@$0IGMPAAAA@$0IA@@dockwins@@@2@$0JGMPAAAA@$0IA@@dockwins@@@dockwins@@@@QAEXJJ@Z 004348b0 f i Output.obj
 0001:000338b0       ?OnDropRightButton@?$CDDTrackerBaseT@VCGhostMoveTracker@?$CDockingWindowBaseImpl@VCTransfersView@@VCWindow@ATL@@U?$CBoxedDockingWindowTraits@VCVC7LikeExCaption@dockwins@@V?$CTabDockingBox@U?$CDockingBoxTraits@VCVC7LikeExCaption@dockwins@@$0IGMPAAAA@$0IA@@dockwins@@@2@$0JGMPAAAA@$0IA@@dockwins@@@dockwins@@@@QAEXJJ@Z 004348b0 f i Transfers.obj
 0001:000338b0       ?OnDropLeftButton@?$CDDTrackerBaseT@VCGhostMoveTracker@?$CDockingWindowBaseImpl@VCEventLogView@@VCWindow@ATL@@U?$CBoxedDockingWindowTraits@VCVC7LikeExCaption@dockwins@@V?$CTabDockingBox@U?$CDockingBoxTraits@VCVC7LikeExCaption@dockwins@@$0IGMPAAAA@$0IA@@dockwins@@@2@$0JGMPAAAA@$0IA@@dockwins@@@dockwins@@@@QAEXJJ@Z 004348b0 f i EventLogFrm.obj
 0001:000338b0       ?OnDropRightButton@?$CDDTrackerBaseT@VCGhostMoveTracker@?$CDockingWindowBaseImpl@V?$CTabDockingBox@U?$CDockingBoxTraits@UCVC7LikeCaption@dockwins@@$0IGMPAAAA@$0IA@@dockwins@@@dockwins@@VCWindow@ATL@@U?$CDockingBoxTraits@UCVC7LikeCaption@dockwins@@$0IGMPAAAA@$0IA@@2@@dockwins@@@@QAEXJJ@Z 004348b0 f i ChildFrm.obj
 0001:000338b0       ?OnDropRightButton@?$CDDTrackerBaseT@V?$CHotBtnTracker@VCVC7LikeExCaption@dockwins@@@CCaptionBase@dockwins@@@@QAEXJJ@Z 004348b0 f i ChildFrm.obj
 0001:000338b0       ?OnDropLeftButton@?$CDDTrackerBaseT@VCGhostMoveTracker@?$CDockingWindowBaseImpl@VCTransfersView@@VCWindow@ATL@@U?$CBoxedDockingWindowTraits@VCVC7LikeExCaption@dockwins@@V?$CTabDockingBox@U?$CDockingBoxTraits@VCVC7LikeExCaption@dockwins@@$0IGMPAAAA@$0IA@@dockwins@@@2@$0JGMPAAAA@$0IA@@dockwins@@@dockwins@@@@QAEXJJ@Z 004348b0 f i Transfers.obj
 0001:000338b0       ?OnDropLeftButton@?$CDDTrackerBaseT@VCGhostMoveTracker@?$CDockingWindowBaseImpl@VCServerListView@@VCWindow@ATL@@U?$CBoxedDockingWindowTraits@UCVC7LikeCaption@dockwins@@V?$CTabDockingBox@U?$CDockingBoxTraits@UCVC7LikeCaption@dockwins@@$0IGMPAAAA@$0IA@@dockwins@@@2@$0JGMPAAAA@$0IA@@dockwins@@@dockwins@@@@QAEXJJ@Z 004348b0 f i HydraIRC.obj
 0001:000338b0       ?OnDropRightButton@?$CDDTrackerBaseT@VCTabMoveTracker@CFlyingTabCtrl@dockwins@@@@QAEXJJ@Z 004348b0 f i ChildFrm.obj
 0001:000338b0       ?OnDropRightButton@?$CDDTrackerBaseT@VCGhostMoveTracker@?$CDockingWindowBaseImpl@VCEventLogView@@VCWindow@ATL@@U?$CBoxedDockingWindowTraits@VCVC7LikeExCaption@dockwins@@V?$CTabDockingBox@U?$CDockingBoxTraits@VCVC7LikeExCaption@dockwins@@$0IGMPAAAA@$0IA@@dockwins@@@2@$0JGMPAAAA@$0IA@@dockwins@@@dockwins@@@@QAEXJJ@Z 004348b0 f i EventLogFrm.obj
 0001:000338b0       ?OnDropRightButton@?$CDDTrackerBaseT@VCGhostMoveTracker@?$CDockingWindowBaseImpl@VCServerListView@@VCWindow@ATL@@U?$CBoxedDockingWindowTraits@UCVC7LikeCaption@dockwins@@V?$CTabDockingBox@U?$CDockingBoxTraits@UCVC7LikeCaption@dockwins@@$0IGMPAAAA@$0IA@@dockwins@@@2@$0JGMPAAAA@$0IA@@dockwins@@@dockwins@@@@QAEXJJ@Z 004348b0 f i HydraIRC.obj
 0001:000338b0       ?OnDropRightButton@?$CDDTrackerBaseT@VCGhostMoveTracker@?$CDockingWindowBaseImpl@VCChannelMonitorView@@VCWindow@ATL@@U?$CBoxedDockingWindowTraits@VCVC7LikeExCaption@dockwins@@V?$CTabDockingBox@U?$CDockingBoxTraits@VCVC7LikeExCaption@dockwins@@$0IGMPAAAA@$0IA@@dockwins@@@2@$0JGMPAAAA@$0IA@@dockwins@@@dockwins@@@@QAEXJJ@Z 004348b0 f i HydraIRC.obj
 0001:000338b0       ?OnDropLeftButton@?$CDDTrackerBaseT@VCGhostMoveTracker@?$CDockingWindowBaseImpl@VCOutputView@@VCWindow@ATL@@U?$CBoxedDockingWindowTraits@VCVC7LikeExCaption@dockwins@@V?$CTabDockingBox@U?$CDockingBoxTraits@VCVC7LikeExCaption@dockwins@@$0IGMPAAAA@$0IA@@dockwins@@@2@$0JGMPAAAA@$0IA@@dockwins@@@dockwins@@@@QAEXJJ@Z 004348b0 f i Output.obj
 0001:000338b0       ?OnDropRightButton@?$CDDTrackerBaseT@VCGhostMoveTracker@?$CDockingWindowBaseImpl@V?$CTabDockingBox@U?$CDockingBoxTraits@VCVC7LikeExCaption@dockwins@@$0IGMPAAAA@$0IA@@dockwins@@@dockwins@@VCWindow@ATL@@U?$CDockingBoxTraits@VCVC7LikeExCaption@dockwins@@$0IGMPAAAA@$0IA@@2@@dockwins@@@@QAEXJJ@Z 004348b0 f i EventLogFrm.obj
 0001:000338b0       ?OnDropRightButton@?$CDDTrackerBaseT@VCGhostMoveTracker@?$CDockingWindowBaseImpl@VCServerMonitorView@@VCWindow@ATL@@U?$CBoxedDockingWindowTraits@VCVC7LikeExCaption@dockwins@@V?$CTabDockingBox@U?$CDockingBoxTraits@VCVC7LikeExCaption@dockwins@@$0IGMPAAAA@$0IA@@dockwins@@@2@$0JGMPAAAA@$0IA@@dockwins@@@dockwins@@@@QAEXJJ@Z 004348b0 f i HydraIRC.obj
 0001:000338b0       ?OnDropRightButton@?$CDDTrackerBaseT@VCGhostMoveTracker@?$CDockingWindowBaseImpl@VCUserListView@@VCWindow@ATL@@U?$CBoxedDockingWindowTraits@UCVC7LikeCaption@dockwins@@V?$CTabDockingBox@U?$CDockingBoxTraits@UCVC7LikeCaption@dockwins@@$0IGMPAAAA@$0IA@@dockwins@@@2@$0JGMPAAAA@$0IA@@dockwins@@@dockwins@@@@QAEXJJ@Z 004348b0 f i ChildFrm.obj
 0001:000338b0       ?OnDropLeftButton@?$CDDTrackerBaseT@VCGhostMoveTracker@?$CDockingWindowBaseImpl@V?$CTabDockingBox@U?$CDockingBoxTraits@UCVC7LikeCaption@dockwins@@$0IGMPAAAA@$0IA@@dockwins@@@dockwins@@VCWindow@ATL@@U?$CDockingBoxTraits@UCVC7LikeCaption@dockwins@@$0IGMPAAAA@$0IA@@2@@dockwins@@@@QAEXJJ@Z 004348b0 f i ChildFrm.obj
 0001:000338b0       ?OnDropLeftButton@?$CDDTrackerBaseT@VCGhostMoveTracker@?$CDockingWindowBaseImpl@VCChannelMonitorView@@VCWindow@ATL@@U?$CBoxedDockingWindowTraits@VCVC7LikeExCaption@dockwins@@V?$CTabDockingBox@U?$CDockingBoxTraits@VCVC7LikeExCaption@dockwins@@$0IGMPAAAA@$0IA@@dockwins@@@2@$0JGMPAAAA@$0IA@@dockwins@@@dockwins@@@@QAEXJJ@Z 004348b0 f i HydraIRC.obj
 0001:000338b0       ?OnDropLeftButton@?$CDDTrackerBaseT@VCGhostMoveTracker@?$CDockingWindowBaseImpl@VCTextQueueView@@VCWindow@ATL@@U?$CBoxedDockingWindowTraits@VCVC7LikeExCaption@dockwins@@V?$CTabDockingBox@U?$CDockingBoxTraits@VCVC7LikeExCaption@dockwins@@$0IGMPAAAA@$0IA@@dockwins@@@2@$0JGMPAAAA@$0IA@@dockwins@@@dockwins@@@@QAEXJJ@Z 004348b0 f i TextQueueFrm.obj
 0001:000338b0       ?OnDropLeftButton@?$CDDTrackerBaseT@VCTabMoveTracker@CFlyingTabCtrl@dockwins@@@@QAEXJJ@Z 004348b0 f i ChildFrm.obj
 0001:000338b0       ?OnDropLeftButton@?$CDDTrackerBaseT@VCGhostMoveTracker@?$CDockingWindowBaseImpl@V?$CTabDockingBox@U?$CDockingBoxTraits@VCVC7LikeExCaption@dockwins@@$0IGMPAAAA@$0IA@@dockwins@@@dockwins@@VCWindow@ATL@@U?$CDockingBoxTraits@VCVC7LikeExCaption@dockwins@@$0IGMPAAAA@$0IA@@2@@dockwins@@@@QAEXJJ@Z 004348b0 f i EventLogFrm.obj
 0001:000338b0       ?OnDropLeftButton@?$CDDTrackerBaseT@VCGhostMoveTracker@?$CDockingWindowBaseImpl@VCUserListView@@VCWindow@ATL@@U?$CBoxedDockingWindowTraits@UCVC7LikeCaption@dockwins@@V?$CTabDockingBox@U?$CDockingBoxTraits@UCVC7LikeCaption@dockwins@@$0IGMPAAAA@$0IA@@dockwins@@@2@$0JGMPAAAA@$0IA@@dockwins@@@dockwins@@@@QAEXJJ@Z 004348b0 f i ChildFrm.obj
 0001:000338d0       ?DrawGhostRect@CGhostMoveTracker@?$CDockingWindowBaseImpl@V?$CTabDockingBox@U?$CDockingBoxTraits@UCVC7LikeCaption@dockwins@@$0IGMPAAAA@$0IA@@dockwins@@@dockwins@@VCWindow@ATL@@U?$CDockingBoxTraits@UCVC7LikeCaption@dockwins@@$0IGMPAAAA@$0IA@@2@@dockwins@@QAEXAAV?$CDCT@$00@WTL@@PAUtagRECT@@@Z 004348d0 f i ChildFrm.obj
 0001:000338d0       ?DrawGhostRect@CGhostMoveTracker@?$CDockingWindowBaseImpl@VCOutputView@@VCWindow@ATL@@U?$CBoxedDockingWindowTraits@VCVC7LikeExCaption@dockwins@@V?$CTabDockingBox@U?$CDockingBoxTraits@VCVC7LikeExCaption@dockwins@@$0IGMPAAAA@$0IA@@dockwins@@@2@$0JGMPAAAA@$0IA@@dockwins@@@dockwins@@QAEXAAV?$CDCT@$00@WTL@@PAUtagRECT@@@Z 004348d0 f i Output.obj
 0001:000338d0       ?DrawGhostRect@CGhostMoveTracker@?$CDockingWindowBaseImpl@VCChannelMonitorView@@VCWindow@ATL@@U?$CBoxedDockingWindowTraits@VCVC7LikeExCaption@dockwins@@V?$CTabDockingBox@U?$CDockingBoxTraits@VCVC7LikeExCaption@dockwins@@$0IGMPAAAA@$0IA@@dockwins@@@2@$0JGMPAAAA@$0IA@@dockwins@@@dockwins@@QAEXAAV?$CDCT@$00@WTL@@PAUtagRECT@@@Z 004348d0 f i HydraIRC.obj
 0001:000338d0       ?DrawGhostRect@CGhostMoveTracker@?$CDockingWindowBaseImpl@VCTransfersView@@VCWindow@ATL@@U?$CBoxedDockingWindowTraits@VCVC7LikeExCaption@dockwins@@V?$CTabDockingBox@U?$CDockingBoxTraits@VCVC7LikeExCaption@dockwins@@$0IGMPAAAA@$0IA@@dockwins@@@2@$0JGMPAAAA@$0IA@@dockwins@@@dockwins@@QAEXAAV?$CDCT@$00@WTL@@PAUtagRECT@@@Z 004348d0 f i Transfers.obj
 0001:000338d0       ?DrawGhostRect@CGhostMoveTracker@?$CDockingWindowBaseImpl@VCEventLogView@@VCWindow@ATL@@U?$CBoxedDockingWindowTraits@VCVC7LikeExCaption@dockwins@@V?$CTabDockingBox@U?$CDockingBoxTraits@VCVC7LikeExCaption@dockwins@@$0IGMPAAAA@$0IA@@dockwins@@@2@$0JGMPAAAA@$0IA@@dockwins@@@dockwins@@QAEXAAV?$CDCT@$00@WTL@@PAUtagRECT@@@Z 004348d0 f i EventLogFrm.obj
 0001:000338d0       ?DrawGhostRect@CGhostMoveTracker@?$CDockingWindowBaseImpl@V?$CTabDockingBox@U?$CDockingBoxTraits@VCVC7LikeExCaption@dockwins@@$0IGMPAAAA@$0IA@@dockwins@@@dockwins@@VCWindow@ATL@@U?$CDockingBoxTraits@VCVC7LikeExCaption@dockwins@@$0IGMPAAAA@$0IA@@2@@dockwins@@QAEXAAV?$CDCT@$00@WTL@@PAUtagRECT@@@Z 004348d0 f i EventLogFrm.obj
 0001:000338d0       ?DrawGhostRect@CGhostMoveTracker@?$CDockingWindowBaseImpl@VCServerListView@@VCWindow@ATL@@U?$CBoxedDockingWindowTraits@UCVC7LikeCaption@dockwins@@V?$CTabDockingBox@U?$CDockingBoxTraits@UCVC7LikeCaption@dockwins@@$0IGMPAAAA@$0IA@@dockwins@@@2@$0JGMPAAAA@$0IA@@dockwins@@@dockwins@@QAEXAAV?$CDCT@$00@WTL@@PAUtagRECT@@@Z 004348d0 f i HydraIRC.obj
 0001:000338d0       ?DrawGhostRect@CGhostMoveTracker@?$CDockingWindowBaseImpl@VCServerMonitorView@@VCWindow@ATL@@U?$CBoxedDockingWindowTraits@VCVC7LikeExCaption@dockwins@@V?$CTabDockingBox@U?$CDockingBoxTraits@VCVC7LikeExCaption@dockwins@@$0IGMPAAAA@$0IA@@dockwins@@@2@$0JGMPAAAA@$0IA@@dockwins@@@dockwins@@QAEXAAV?$CDCT@$00@WTL@@PAUtagRECT@@@Z 004348d0 f i HydraIRC.obj
 0001:000338d0       ?DrawGhostRect@CGhostMoveTracker@?$CDockingWindowBaseImpl@VCUserListView@@VCWindow@ATL@@U?$CBoxedDockingWindowTraits@UCVC7LikeCaption@dockwins@@V?$CTabDockingBox@U?$CDockingBoxTraits@UCVC7LikeCaption@dockwins@@$0IGMPAAAA@$0IA@@dockwins@@@2@$0JGMPAAAA@$0IA@@dockwins@@@dockwins@@QAEXAAV?$CDCT@$00@WTL@@PAUtagRECT@@@Z 004348d0 f i ChildFrm.obj
 0001:000338d0       ?DrawGhostRect@CGhostMoveTracker@?$CDockingWindowBaseImpl@VCTextQueueView@@VCWindow@ATL@@U?$CBoxedDockingWindowTraits@VCVC7LikeExCaption@dockwins@@V?$CTabDockingBox@U?$CDockingBoxTraits@VCVC7LikeExCaption@dockwins@@$0IGMPAAAA@$0IA@@dockwins@@@2@$0JGMPAAAA@$0IA@@dockwins@@@dockwins@@QAEXAAV?$CDCT@$00@WTL@@PAUtagRECT@@@Z 004348d0 f i TextQueueFrm.obj
 0001:00033a40       ?CleanGhostRect@CGhostMoveTracker@?$CDockingWindowBaseImpl@VCServerListView@@VCWindow@ATL@@U?$CBoxedDockingWindowTraits@UCVC7LikeCaption@dockwins@@V?$CTabDockingBox@U?$CDockingBoxTraits@UCVC7LikeCaption@dockwins@@$0IGMPAAAA@$0IA@@dockwins@@@2@$0JGMPAAAA@$0IA@@dockwins@@@dockwins@@QAEXAAV?$CDCT@$00@WTL@@PAUtagRECT@@@Z 00434a40 f i HydraIRC.obj
 0001:00033a40       ?CleanGhostRect@CGhostMoveTracker@?$CDockingWindowBaseImpl@VCChannelMonitorView@@VCWindow@ATL@@U?$CBoxedDockingWindowTraits@VCVC7LikeExCaption@dockwins@@V?$CTabDockingBox@U?$CDockingBoxTraits@VCVC7LikeExCaption@dockwins@@$0IGMPAAAA@$0IA@@dockwins@@@2@$0JGMPAAAA@$0IA@@dockwins@@@dockwins@@QAEXAAV?$CDCT@$00@WTL@@PAUtagRECT@@@Z 00434a40 f i HydraIRC.obj
 0001:00033a40       ?CleanGhostRect@CGhostMoveTracker@?$CDockingWindowBaseImpl@V?$CTabDockingBox@U?$CDockingBoxTraits@UCVC7LikeCaption@dockwins@@$0IGMPAAAA@$0IA@@dockwins@@@dockwins@@VCWindow@ATL@@U?$CDockingBoxTraits@UCVC7LikeCaption@dockwins@@$0IGMPAAAA@$0IA@@2@@dockwins@@QAEXAAV?$CDCT@$00@WTL@@PAUtagRECT@@@Z 00434a40 f i ChildFrm.obj
 0001:00033a40       ?CleanGhostRect@CGhostMoveTracker@?$CDockingWindowBaseImpl@VCTextQueueView@@VCWindow@ATL@@U?$CBoxedDockingWindowTraits@VCVC7LikeExCaption@dockwins@@V?$CTabDockingBox@U?$CDockingBoxTraits@VCVC7LikeExCaption@dockwins@@$0IGMPAAAA@$0IA@@dockwins@@@2@$0JGMPAAAA@$0IA@@dockwins@@@dockwins@@QAEXAAV?$CDCT@$00@WTL@@PAUtagRECT@@@Z 00434a40 f i TextQueueFrm.obj
 0001:00033a40       ?CleanGhostRect@CGhostMoveTracker@?$CDockingWindowBaseImpl@VCEventLogView@@VCWindow@ATL@@U?$CBoxedDockingWindowTraits@VCVC7LikeExCaption@dockwins@@V?$CTabDockingBox@U?$CDockingBoxTraits@VCVC7LikeExCaption@dockwins@@$0IGMPAAAA@$0IA@@dockwins@@@2@$0JGMPAAAA@$0IA@@dockwins@@@dockwins@@QAEXAAV?$CDCT@$00@WTL@@PAUtagRECT@@@Z 00434a40 f i EventLogFrm.obj
 0001:00033a40       ?CleanGhostRect@CGhostMoveTracker@?$CDockingWindowBaseImpl@VCServerMonitorView@@VCWindow@ATL@@U?$CBoxedDockingWindowTraits@VCVC7LikeExCaption@dockwins@@V?$CTabDockingBox@U?$CDockingBoxTraits@VCVC7LikeExCaption@dockwins@@$0IGMPAAAA@$0IA@@dockwins@@@2@$0JGMPAAAA@$0IA@@dockwins@@@dockwins@@QAEXAAV?$CDCT@$00@WTL@@PAUtagRECT@@@Z 00434a40 f i HydraIRC.obj
 0001:00033a40       ?CleanGhostRect@CGhostMoveTracker@?$CDockingWindowBaseImpl@VCOutputView@@VCWindow@ATL@@U?$CBoxedDockingWindowTraits@VCVC7LikeExCaption@dockwins@@V?$CTabDockingBox@U?$CDockingBoxTraits@VCVC7LikeExCaption@dockwins@@$0IGMPAAAA@$0IA@@dockwins@@@2@$0JGMPAAAA@$0IA@@dockwins@@@dockwins@@QAEXAAV?$CDCT@$00@WTL@@PAUtagRECT@@@Z 00434a40 f i Output.obj
 0001:00033a40       ?CleanGhostRect@CGhostMoveTracker@?$CDockingWindowBaseImpl@VCUserListView@@VCWindow@ATL@@U?$CBoxedDockingWindowTraits@UCVC7LikeCaption@dockwins@@V?$CTabDockingBox@U?$CDockingBoxTraits@UCVC7LikeCaption@dockwins@@$0IGMPAAAA@$0IA@@dockwins@@@2@$0JGMPAAAA@$0IA@@dockwins@@@dockwins@@QAEXAAV?$CDCT@$00@WTL@@PAUtagRECT@@@Z 00434a40 f i ChildFrm.obj
 0001:00033a40       ?CleanGhostRect@CGhostMoveTracker@?$CDockingWindowBaseImpl@VCTransfersView@@VCWindow@ATL@@U?$CBoxedDockingWindowTraits@VCVC7LikeExCaption@dockwins@@V?$CTabDockingBox@U?$CDockingBoxTraits@VCVC7LikeExCaption@dockwins@@$0IGMPAAAA@$0IA@@dockwins@@@2@$0JGMPAAAA@$0IA@@dockwins@@@dockwins@@QAEXAAV?$CDCT@$00@WTL@@PAUtagRECT@@@Z 00434a40 f i Transfers.obj
 0001:00033a40       ?CleanGhostRect@CGhostMoveTracker@?$CDockingWindowBaseImpl@V?$CTabDockingBox@U?$CDockingBoxTraits@VCVC7LikeExCaption@dockwins@@$0IGMPAAAA@$0IA@@dockwins@@@dockwins@@VCWindow@ATL@@U?$CDockingBoxTraits@VCVC7LikeExCaption@dockwins@@$0IGMPAAAA@$0IA@@2@@dockwins@@QAEXAAV?$CDCT@$00@WTL@@PAUtagRECT@@@Z 00434a40 f i EventLogFrm.obj
 0001:00033a60       ??_ECEventLogView@@W7AEPAXI@Z 00434a60 f i EventLogFrm.obj
 0001:00033a70       ??_ECEventLogView@@UAEPAXI@Z 00434a70 f i EventLogFrm.obj
 0001:00033a70       ??_GCEventLogView@@UAEPAXI@Z 00434a70 f i EventLogFrm.obj
 0001:00033aa0       ?SetExtendedListViewStyle@?$CListViewCtrlT@VCWindow@ATL@@@WTL@@QAEKKK@Z 00434aa0 f i EventLogFrm.obj
 0001:00033ad0       ?GetItemText@?$CListViewCtrlT@VCWindow@ATL@@@WTL@@QBEHHHPADH@Z 00434ad0 f i EventLogFrm.obj
 0001:00033b30       ?SetItemState@?$CListViewCtrlT@VCWindow@ATL@@@WTL@@QAEHHII@Z 00434b30 f i EventLogFrm.obj
 0001:00033b90       ?CreateInstance@?$CTabDockingBox@U?$CDockingBoxTraits@VCVC7LikeExCaption@dockwins@@$0IGMPAAAA@$0IA@@dockwins@@@dockwins@@SAPAUHWND__@@PAU3@@Z 00434b90 f i EventLogFrm.obj
 0001:00033c50       ??0?$CTabDockingBox@U?$CDockingBoxTraits@VCVC7LikeExCaption@dockwins@@$0IGMPAAAA@$0IA@@dockwins@@@dockwins@@QAE@XZ 00434c50 f i EventLogFrm.obj
 0001:00033ce0       ?DockMe@?$CTabDockingBox@U?$CDockingBoxTraits@UCVC7LikeCaption@dockwins@@$0IGMPAAAA@$0IA@@dockwins@@@dockwins@@UAE_NPAUtagDFDOCKRECT@2@@Z 00434ce0 f i ChildFrm.obj
 0001:00033ce0       ?DockMe@?$CTabDockingBox@U?$CDockingBoxTraits@VCVC7LikeExCaption@dockwins@@$0IGMPAAAA@$0IA@@dockwins@@@dockwins@@UAE_NPAUtagDFDOCKRECT@2@@Z 00434ce0 f i EventLogFrm.obj
 0001:00033db0       ?ProcessWindowMessage@?$CTabDockingBox@U?$CDockingBoxTraits@VCVC7LikeExCaption@dockwins@@$0IGMPAAAA@$0IA@@dockwins@@@dockwins@@UAEHPAUHWND__@@IIJAAJK@Z 00434db0 f i EventLogFrm.obj
 0001:00034020       ?ProcessWindowMessage@?$CBoxedDockingWindowBaseImpl@V?$CTabDockingBox@U?$CDockingBoxTraits@VCVC7LikeExCaption@dockwins@@$0IGMPAAAA@$0IA@@dockwins@@@dockwins@@VCWindow@ATL@@U?$CDockingBoxTraits@VCVC7LikeExCaption@dockwins@@$0IGMPAAAA@$0IA@@2@@dockwins@@UAEHPAUHWND__@@IIJAAJK@Z 00435020 f i EventLogFrm.obj
 0001:000340f0       ?Show@?$CTitleDockingWindowImpl@V?$CTabDockingBox@U?$CDockingBoxTraits@UCVC7LikeCaption@dockwins@@$0IGMPAAAA@$0IA@@dockwins@@@dockwins@@VCWindow@ATL@@U?$CDockingBoxTraits@UCVC7LikeCaption@dockwins@@$0IGMPAAAA@$0IA@@2@@dockwins@@UAE_NXZ 004350f0 f i ChildFrm.obj
 0001:000340f0       ?Show@?$CTitleDockingWindowImpl@VCTransfersView@@VCWindow@ATL@@U?$CBoxedDockingWindowTraits@VCVC7LikeExCaption@dockwins@@V?$CTabDockingBox@U?$CDockingBoxTraits@VCVC7LikeExCaption@dockwins@@$0IGMPAAAA@$0IA@@dockwins@@@2@$0JGMPAAAA@$0IA@@dockwins@@@dockwins@@UAE_NXZ 004350f0 f i Transfers.obj
 0001:000340f0       ?Show@?$CTitleDockingWindowImpl@VCTextQueueView@@VCWindow@ATL@@U?$CBoxedDockingWindowTraits@VCVC7LikeExCaption@dockwins@@V?$CTabDockingBox@U?$CDockingBoxTraits@VCVC7LikeExCaption@dockwins@@$0IGMPAAAA@$0IA@@dockwins@@@2@$0JGMPAAAA@$0IA@@dockwins@@@dockwins@@UAE_NXZ 004350f0 f i TextQueueFrm.obj
 0001:000340f0       ?Show@?$CTitleDockingWindowImpl@VCUserListView@@VCWindow@ATL@@U?$CBoxedDockingWindowTraits@UCVC7LikeCaption@dockwins@@V?$CTabDockingBox@U?$CDockingBoxTraits@UCVC7LikeCaption@dockwins@@$0IGMPAAAA@$0IA@@dockwins@@@2@$0JGMPAAAA@$0IA@@dockwins@@@dockwins@@UAE_NXZ 004350f0 f i ChildFrm.obj
 0001:000340f0       ?Show@?$CTitleDockingWindowImpl@VCEventLogView@@VCWindow@ATL@@U?$CBoxedDockingWindowTraits@VCVC7LikeExCaption@dockwins@@V?$CTabDockingBox@U?$CDockingBoxTraits@VCVC7LikeExCaption@dockwins@@$0IGMPAAAA@$0IA@@dockwins@@@2@$0JGMPAAAA@$0IA@@dockwins@@@dockwins@@UAE_NXZ 004350f0 f i EventLogFrm.obj
 0001:000340f0       ?Show@?$CTitleDockingWindowImpl@VCOutputView@@VCWindow@ATL@@U?$CBoxedDockingWindowTraits@VCVC7LikeExCaption@dockwins@@V?$CTabDockingBox@U?$CDockingBoxTraits@VCVC7LikeExCaption@dockwins@@$0IGMPAAAA@$0IA@@dockwins@@@2@$0JGMPAAAA@$0IA@@dockwins@@@dockwins@@UAE_NXZ 004350f0 f i Output.obj
 0001:000340f0       ?Show@?$CTitleDockingWindowImpl@VCServerListView@@VCWindow@ATL@@U?$CBoxedDockingWindowTraits@UCVC7LikeCaption@dockwins@@V?$CTabDockingBox@U?$CDockingBoxTraits@UCVC7LikeCaption@dockwins@@$0IGMPAAAA@$0IA@@dockwins@@@2@$0JGMPAAAA@$0IA@@dockwins@@@dockwins@@UAE_NXZ 004350f0 f i HydraIRC.obj
 0001:000340f0       ?Show@?$CTitleDockingWindowImpl@VCChannelMonitorView@@VCWindow@ATL@@U?$CBoxedDockingWindowTraits@VCVC7LikeExCaption@dockwins@@V?$CTabDockingBox@U?$CDockingBoxTraits@VCVC7LikeExCaption@dockwins@@$0IGMPAAAA@$0IA@@dockwins@@@2@$0JGMPAAAA@$0IA@@dockwins@@@dockwins@@UAE_NXZ 004350f0 f i HydraIRC.obj
 0001:000340f0       ?Show@?$CTitleDockingWindowImpl@VCServerMonitorView@@VCWindow@ATL@@U?$CBoxedDockingWindowTraits@VCVC7LikeExCaption@dockwins@@V?$CTabDockingBox@U?$CDockingBoxTraits@VCVC7LikeExCaption@dockwins@@$0IGMPAAAA@$0IA@@dockwins@@@2@$0JGMPAAAA@$0IA@@dockwins@@@dockwins@@UAE_NXZ 004350f0 f i HydraIRC.obj
 0001:000340f0       ?Show@?$CTitleDockingWindowImpl@V?$CTabDockingBox@U?$CDockingBoxTraits@VCVC7LikeExCaption@dockwins@@$0IGMPAAAA@$0IA@@dockwins@@@dockwins@@VCWindow@ATL@@U?$CDockingBoxTraits@VCVC7LikeExCaption@dockwins@@$0IGMPAAAA@$0IA@@2@@dockwins@@UAE_NXZ 004350f0 f i EventLogFrm.obj
 0001:00034140       ?ProcessWindowMessage@?$CTitleDockingWindowImpl@V?$CTabDockingBox@U?$CDockingBoxTraits@VCVC7LikeExCaption@dockwins@@$0IGMPAAAA@$0IA@@dockwins@@@dockwins@@VCWindow@ATL@@U?$CDockingBoxTraits@VCVC7LikeExCaption@dockwins@@$0IGMPAAAA@$0IA@@2@@dockwins@@UAEHPAUHWND__@@IIJAAJK@Z 00435140 f i EventLogFrm.obj
 0001:00034210       ?ProcessWindowMessage@?$CTitleDockingWindowBaseImpl@V?$CTabDockingBox@U?$CDockingBoxTraits@VCVC7LikeExCaption@dockwins@@$0IGMPAAAA@$0IA@@dockwins@@@dockwins@@VCWindow@ATL@@U?$CDockingBoxTraits@VCVC7LikeExCaption@dockwins@@$0IGMPAAAA@$0IA@@2@@dockwins@@UAEHPAUHWND__@@IIJAAJK@Z 00435210 f i EventLogFrm.obj
 0001:00034580       ?ProcessWindowMessage@?$CDockingWindowBaseImpl@V?$CTabDockingBox@U?$CDockingBoxTraits@VCVC7LikeExCaption@dockwins@@$0IGMPAAAA@$0IA@@dockwins@@@dockwins@@VCWindow@ATL@@U?$CDockingBoxTraits@VCVC7LikeExCaption@dockwins@@$0IGMPAAAA@$0IA@@2@@dockwins@@UAEHPAUHWND__@@IIJAAJK@Z 00435580 f i EventLogFrm.obj
 0001:00034710       ??_G?$CTabDockingBox@U?$CDockingBoxTraits@VCVC7LikeExCaption@dockwins@@$0IGMPAAAA@$0IA@@dockwins@@@dockwins@@UAEPAXI@Z 00435710 f i EventLogFrm.obj
 0001:00034710       ??_E?$CTabDockingBox@U?$CDockingBoxTraits@VCVC7LikeExCaption@dockwins@@$0IGMPAAAA@$0IA@@dockwins@@@dockwins@@UAEPAXI@Z 00435710 f i EventLogFrm.obj
 0001:00034710       ??_E?$CTabDockingBox@U?$CDockingBoxTraits@UCVC7LikeCaption@dockwins@@$0IGMPAAAA@$0IA@@dockwins@@@dockwins@@UAEPAXI@Z 00435710 f i ChildFrm.obj
 0001:00034710       ??_G?$CTabDockingBox@U?$CDockingBoxTraits@UCVC7LikeCaption@dockwins@@$0IGMPAAAA@$0IA@@dockwins@@@dockwins@@UAEPAXI@Z 00435710 f i ChildFrm.obj
 0001:00034740       ??1?$CTabDockingBox@U?$CDockingBoxTraits@UCVC7LikeCaption@dockwins@@$0IGMPAAAA@$0IA@@dockwins@@@dockwins@@UAE@XZ 00435740 f i ChildFrm.obj
 0001:00034740       ??1?$CTabDockingBox@U?$CDockingBoxTraits@VCVC7LikeExCaption@dockwins@@$0IGMPAAAA@$0IA@@dockwins@@@dockwins@@UAE@XZ 00435740 f i EventLogFrm.obj
 0001:000347a0       ??1?$CHydraSplitterWindowT@$00@@UAE@XZ 004357a0 f i ChildFrm.obj
 0001:000347a0       ??1CColorDialog@WTL@@UAE@XZ 004357a0 f i EditNotificationDlg.obj
 0001:000347a0       ??1?$CTitleDockingWindowBaseImpl@VCServerMonitorView@@VCWindow@ATL@@U?$CBoxedDockingWindowTraits@VCVC7LikeExCaption@dockwins@@V?$CTabDockingBox@U?$CDockingBoxTraits@VCVC7LikeExCaption@dockwins@@$0IGMPAAAA@$0IA@@dockwins@@@2@$0JGMPAAAA@$0IA@@dockwins@@@dockwins@@UAE@XZ 004357a0 f i HydraIRC.obj
 0001:000347a0       ??1?$CTitleDockingWindowBaseImpl@V?$CTabDockingBox@U?$CDockingBoxTraits@VCVC7LikeExCaption@dockwins@@$0IGMPAAAA@$0IA@@dockwins@@@dockwins@@VCWindow@ATL@@U?$CDockingBoxTraits@VCVC7LikeExCaption@dockwins@@$0IGMPAAAA@$0IA@@2@@dockwins@@UAE@XZ 004357a0 f i EventLogFrm.obj
 0001:000347a0       ??1?$CTitleDockingWindowBaseImpl@V?$CTabDockingBox@U?$CDockingBoxTraits@UCVC7LikeCaption@dockwins@@$0IGMPAAAA@$0IA@@dockwins@@@dockwins@@VCWindow@ATL@@U?$CDockingBoxTraits@UCVC7LikeCaption@dockwins@@$0IGMPAAAA@$0IA@@2@@dockwins@@UAE@XZ 004357a0 f i ChildFrm.obj
 0001:000347a0       ??1?$CTitleDockingWindowBaseImpl@VCTransfersView@@VCWindow@ATL@@U?$CBoxedDockingWindowTraits@VCVC7LikeExCaption@dockwins@@V?$CTabDockingBox@U?$CDockingBoxTraits@VCVC7LikeExCaption@dockwins@@$0IGMPAAAA@$0IA@@dockwins@@@2@$0JGMPAAAA@$0IA@@dockwins@@@dockwins@@UAE@XZ 004357a0 f i Transfers.obj
 0001:000347a0       ??1?$CHydraSplitterWindowT@$0A@@@UAE@XZ 004357a0 f i ChildFrm.obj
 0001:000347a0       ??1CHydraPaneContainer@@UAE@XZ 004357a0 f i ChildFrm.obj
 0001:000347a0       ??1?$CTitleDockingWindowBaseImpl@VCUserListView@@VCWindow@ATL@@U?$CBoxedDockingWindowTraits@UCVC7LikeCaption@dockwins@@V?$CTabDockingBox@U?$CDockingBoxTraits@UCVC7LikeCaption@dockwins@@$0IGMPAAAA@$0IA@@dockwins@@@2@$0JGMPAAAA@$0IA@@dockwins@@@dockwins@@UAE@XZ 004357a0 f i ChildFrm.obj
 0001:000347a0       ??1?$CTitleDockingWindowBaseImpl@VCTextQueueView@@VCWindow@ATL@@U?$CBoxedDockingWindowTraits@VCVC7LikeExCaption@dockwins@@V?$CTabDockingBox@U?$CDockingBoxTraits@VCVC7LikeExCaption@dockwins@@$0IGMPAAAA@$0IA@@dockwins@@@2@$0JGMPAAAA@$0IA@@dockwins@@@dockwins@@UAE@XZ 004357a0 f i TextQueueFrm.obj
 0001:000347a0       ??1?$CTitleDockingWindowBaseImpl@VCOutputView@@VCWindow@ATL@@U?$CBoxedDockingWindowTraits@VCVC7LikeExCaption@dockwins@@V?$CTabDockingBox@U?$CDockingBoxTraits@VCVC7LikeExCaption@dockwins@@$0IGMPAAAA@$0IA@@dockwins@@@2@$0JGMPAAAA@$0IA@@dockwins@@@dockwins@@UAE@XZ 004357a0 f i HydraIRC.obj
 0001:000347a0       ??1?$CTitleDockingWindowBaseImpl@VCChannelMonitorView@@VCWindow@ATL@@U?$CBoxedDockingWindowTraits@VCVC7LikeExCaption@dockwins@@V?$CTabDockingBox@U?$CDockingBoxTraits@VCVC7LikeExCaption@dockwins@@$0IGMPAAAA@$0IA@@dockwins@@@2@$0JGMPAAAA@$0IA@@dockwins@@@dockwins@@UAE@XZ 004357a0 f i HydraIRC.obj
 0001:000347a0       ??1?$CTitleDockingWindowBaseImpl@VCServerListView@@VCWindow@ATL@@U?$CBoxedDockingWindowTraits@UCVC7LikeCaption@dockwins@@V?$CTabDockingBox@U?$CDockingBoxTraits@UCVC7LikeCaption@dockwins@@$0IGMPAAAA@$0IA@@dockwins@@@2@$0JGMPAAAA@$0IA@@dockwins@@@dockwins@@UAE@XZ 004357a0 f i HydraIRC.obj
 0001:000347a0       ??1?$CTitleDockingWindowBaseImpl@VCEventLogView@@VCWindow@ATL@@U?$CBoxedDockingWindowTraits@VCVC7LikeExCaption@dockwins@@V?$CTabDockingBox@U?$CDockingBoxTraits@VCVC7LikeExCaption@dockwins@@$0IGMPAAAA@$0IA@@dockwins@@@2@$0JGMPAAAA@$0IA@@dockwins@@@dockwins@@UAE@XZ 004357a0 f i EventLogFrm.obj
 0001:000347c0       ?RemoveWindow@?$CTabDockingBox@U?$CDockingBoxTraits@UCVC7LikeCaption@dockwins@@$0IGMPAAAA@$0IA@@dockwins@@@dockwins@@QAEHVCWindow@ATL@@@Z 004357c0 f i ChildFrm.obj
 0001:000347c0       ?RemoveWindow@?$CTabDockingBox@U?$CDockingBoxTraits@VCVC7LikeExCaption@dockwins@@$0IGMPAAAA@$0IA@@dockwins@@@dockwins@@QAEHVCWindow@ATL@@@Z 004357c0 f i EventLogFrm.obj
 0001:00034840       ?OnDestroy@?$CTabDockingBox@U?$CDockingBoxTraits@UCVC7LikeCaption@dockwins@@$0IGMPAAAA@$0IA@@dockwins@@@dockwins@@QAEJIIJAAH@Z 00435840 f i ChildFrm.obj
 0001:00034840       ?OnDestroy@?$CTabDockingBox@U?$CDockingBoxTraits@VCVC7LikeExCaption@dockwins@@$0IGMPAAAA@$0IA@@dockwins@@@dockwins@@QAEJIIJAAH@Z 00435840 f i EventLogFrm.obj
 0001:00034870       ?OnSetFocus@?$CTabDockingBox@U?$CDockingBoxTraits@UCVC7LikeCaption@dockwins@@$0IGMPAAAA@$0IA@@dockwins@@@dockwins@@QAEJIIJAAH@Z 00435870 f i ChildFrm.obj
 0001:00034870       ?OnSetFocus@?$CTabDockingBox@U?$CDockingBoxTraits@VCVC7LikeExCaption@dockwins@@$0IGMPAAAA@$0IA@@dockwins@@@dockwins@@QAEJIIJAAH@Z 00435870 f i EventLogFrm.obj
 0001:000348e0       ?OnTabLeavCtrl@?$CTabDockingBox@U?$CDockingBoxTraits@UCVC7LikeCaption@dockwins@@$0IGMPAAAA@$0IA@@dockwins@@@dockwins@@QAEJHPAUtagNMHDR@@AAH@Z 004358e0 f i ChildFrm.obj
 0001:000348e0       ?OnTabLeavCtrl@?$CTabDockingBox@U?$CDockingBoxTraits@VCVC7LikeExCaption@dockwins@@$0IGMPAAAA@$0IA@@dockwins@@@dockwins@@QAEJHPAUtagNMHDR@@AAH@Z 004358e0 f i EventLogFrm.obj
 0001:00034980       ?Create@?$CDockingBoxBaseImpl@V?$CTabDockingBox@U?$CDockingBoxTraits@VCVC7LikeExCaption@dockwins@@$0IGMPAAAA@$0IA@@dockwins@@@dockwins@@VCWindow@ATL@@U?$CDockingBoxTraits@VCVC7LikeExCaption@dockwins@@$0IGMPAAAA@$0IA@@2@@dockwins@@QAEPAUHWND__@@PAU3@@Z 00435980 f i EventLogFrm.obj
 0001:000349c0       ?OnClose@?$CTitleDockingWindowImpl@V?$CTabDockingBox@U?$CDockingBoxTraits@UCVC7LikeCaption@dockwins@@$0IGMPAAAA@$0IA@@dockwins@@@dockwins@@VCWindow@ATL@@U?$CDockingBoxTraits@UCVC7LikeCaption@dockwins@@$0IGMPAAAA@$0IA@@2@@dockwins@@QAEJIIJAAH@Z 004359c0 f i ChildFrm.obj
 0001:000349c0       ?OnClose@?$CTitleDockingWindowImpl@V?$CTabDockingBox@U?$CDockingBoxTraits@VCVC7LikeExCaption@dockwins@@$0IGMPAAAA@$0IA@@dockwins@@@dockwins@@VCWindow@ATL@@U?$CDockingBoxTraits@VCVC7LikeExCaption@dockwins@@$0IGMPAAAA@$0IA@@2@@dockwins@@QAEJIIJAAH@Z 004359c0 f i EventLogFrm.obj
 0001:000349f0       ?OnGetMinMaxInfo@?$CTitleDockingWindowBaseImpl@V?$CTabDockingBox@U?$CDockingBoxTraits@UCVC7LikeCaption@dockwins@@$0IGMPAAAA@$0IA@@dockwins@@@dockwins@@VCWindow@ATL@@U?$CDockingBoxTraits@UCVC7LikeCaption@dockwins@@$0IGMPAAAA@$0IA@@2@@dockwins@@QAEJIIJAAH@Z 004359f0 f i ChildFrm.obj
 0001:000349f0       ?OnGetMinMaxInfo@?$CTitleDockingWindowBaseImpl@V?$CTabDockingBox@U?$CDockingBoxTraits@VCVC7LikeExCaption@dockwins@@$0IGMPAAAA@$0IA@@dockwins@@@dockwins@@VCWindow@ATL@@U?$CDockingBoxTraits@VCVC7LikeExCaption@dockwins@@$0IGMPAAAA@$0IA@@2@@dockwins@@QAEJIIJAAH@Z 004359f0 f i EventLogFrm.obj
 0001:00034a30       ?OnNcPaint@?$CTitleDockingWindowBaseImpl@V?$CTabDockingBox@U?$CDockingBoxTraits@UCVC7LikeCaption@dockwins@@$0IGMPAAAA@$0IA@@dockwins@@@dockwins@@VCWindow@ATL@@U?$CDockingBoxTraits@UCVC7LikeCaption@dockwins@@$0IGMPAAAA@$0IA@@2@@dockwins@@QAEJIIJAAH@Z 00435a30 f i ChildFrm.obj
 0001:00034a30       ?OnNcPaint@?$CTitleDockingWindowBaseImpl@V?$CTabDockingBox@U?$CDockingBoxTraits@VCVC7LikeExCaption@dockwins@@$0IGMPAAAA@$0IA@@dockwins@@@dockwins@@VCWindow@ATL@@U?$CDockingBoxTraits@VCVC7LikeExCaption@dockwins@@$0IGMPAAAA@$0IA@@2@@dockwins@@QAEJIIJAAH@Z 00435a30 f i EventLogFrm.obj
 0001:00034ab0       ?OnNcLButtonUp@?$CTitleDockingWindowBaseImpl@V?$CTabDockingBox@U?$CDockingBoxTraits@VCVC7LikeExCaption@dockwins@@$0IGMPAAAA@$0IA@@dockwins@@@dockwins@@VCWindow@ATL@@U?$CDockingBoxTraits@VCVC7LikeExCaption@dockwins@@$0IGMPAAAA@$0IA@@2@@dockwins@@QAEJIIJAAH@Z 00435ab0 f i EventLogFrm.obj
 0001:00034ab0       ?OnNcLButtonUp@?$CTitleDockingWindowBaseImpl@V?$CTabDockingBox@U?$CDockingBoxTraits@UCVC7LikeCaption@dockwins@@$0IGMPAAAA@$0IA@@dockwins@@@dockwins@@VCWindow@ATL@@U?$CDockingBoxTraits@UCVC7LikeCaption@dockwins@@$0IGMPAAAA@$0IA@@2@@dockwins@@QAEJIIJAAH@Z 00435ab0 f i ChildFrm.obj
 0001:00034b70       ?OnNcLButtonDblClk@?$CTitleDockingWindowBaseImpl@V?$CTabDockingBox@U?$CDockingBoxTraits@VCVC7LikeExCaption@dockwins@@$0IGMPAAAA@$0IA@@dockwins@@@dockwins@@VCWindow@ATL@@U?$CDockingBoxTraits@VCVC7LikeExCaption@dockwins@@$0IGMPAAAA@$0IA@@2@@dockwins@@QAEJIIJAAH@Z 00435b70 f i EventLogFrm.obj
 0001:00034b70       ?OnWindowPosChanging@?$CTitleDockingWindowBaseImpl@VCServerMonitorView@@VCWindow@ATL@@U?$CBoxedDockingWindowTraits@VCVC7LikeExCaption@dockwins@@V?$CTabDockingBox@U?$CDockingBoxTraits@VCVC7LikeExCaption@dockwins@@$0IGMPAAAA@$0IA@@dockwins@@@2@$0JGMPAAAA@$0IA@@dockwins@@@dockwins@@QAEJIIJAAH@Z 00435b70 f i HydraIRC.obj
 0001:00034b70       ?OnWindowPosChanging@?$CTitleDockingWindowBaseImpl@V?$CTabDockingBox@U?$CDockingBoxTraits@UCVC7LikeCaption@dockwins@@$0IGMPAAAA@$0IA@@dockwins@@@dockwins@@VCWindow@ATL@@U?$CDockingBoxTraits@UCVC7LikeCaption@dockwins@@$0IGMPAAAA@$0IA@@2@@dockwins@@QAEJIIJAAH@Z 00435b70 f i ChildFrm.obj
 0001:00034b70       ?OnWindowPosChanging@?$CTitleDockingWindowBaseImpl@V?$CTabDockingBox@U?$CDockingBoxTraits@VCVC7LikeExCaption@dockwins@@$0IGMPAAAA@$0IA@@dockwins@@@dockwins@@VCWindow@ATL@@U?$CDockingBoxTraits@VCVC7LikeExCaption@dockwins@@$0IGMPAAAA@$0IA@@2@@dockwins@@QAEJIIJAAH@Z 00435b70 f i EventLogFrm.obj
 0001:00034b70       ?OnEraseBkgnd@?$CTabDockingBox@U?$CDockingBoxTraits@VCVC7LikeExCaption@dockwins@@$0IGMPAAAA@$0IA@@dockwins@@@dockwins@@QAEJIIJAAH@Z 00435b70 f i EventLogFrm.obj
 0001:00034b70       ?OnNcLButtonDblClk@?$CTitleDockingWindowBaseImpl@VCEventLogView@@VCWindow@ATL@@U?$CBoxedDockingWindowTraits@VCVC7LikeExCaption@dockwins@@V?$CTabDockingBox@U?$CDockingBoxTraits@VCVC7LikeExCaption@dockwins@@$0IGMPAAAA@$0IA@@dockwins@@@2@$0JGMPAAAA@$0IA@@dockwins@@@dockwins@@QAEJIIJAAH@Z 00435b70 f i EventLogFrm.obj
 0001:00034b70       ?OnWindowPosChanging@?$CTitleDockingWindowBaseImpl@VCOutputView@@VCWindow@ATL@@U?$CBoxedDockingWindowTraits@VCVC7LikeExCaption@dockwins@@V?$CTabDockingBox@U?$CDockingBoxTraits@VCVC7LikeExCaption@dockwins@@$0IGMPAAAA@$0IA@@dockwins@@@2@$0JGMPAAAA@$0IA@@dockwins@@@dockwins@@QAEJIIJAAH@Z 00435b70 f i Output.obj
 0001:00034b70       ?OnNcLButtonDblClk@?$CTitleDockingWindowBaseImpl@VCUserListView@@VCWindow@ATL@@U?$CBoxedDockingWindowTraits@UCVC7LikeCaption@dockwins@@V?$CTabDockingBox@U?$CDockingBoxTraits@UCVC7LikeCaption@dockwins@@$0IGMPAAAA@$0IA@@dockwins@@@2@$0JGMPAAAA@$0IA@@dockwins@@@dockwins@@QAEJIIJAAH@Z 00435b70 f i ChildFrm.obj
 0001:00034b70       ?OnNcLButtonDblClk@?$CTitleDockingWindowBaseImpl@VCServerListView@@VCWindow@ATL@@U?$CBoxedDockingWindowTraits@UCVC7LikeCaption@dockwins@@V?$CTabDockingBox@U?$CDockingBoxTraits@UCVC7LikeCaption@dockwins@@$0IGMPAAAA@$0IA@@dockwins@@@2@$0JGMPAAAA@$0IA@@dockwins@@@dockwins@@QAEJIIJAAH@Z 00435b70 f i HydraIRC.obj
 0001:00034b70       ?OnNcLButtonDblClk@?$CTitleDockingWindowBaseImpl@V?$CTabDockingBox@U?$CDockingBoxTraits@UCVC7LikeCaption@dockwins@@$0IGMPAAAA@$0IA@@dockwins@@@dockwins@@VCWindow@ATL@@U?$CDockingBoxTraits@UCVC7LikeCaption@dockwins@@$0IGMPAAAA@$0IA@@2@@dockwins@@QAEJIIJAAH@Z 00435b70 f i ChildFrm.obj
 0001:00034b70       ?OnNcLButtonDblClk@?$CTitleDockingWindowBaseImpl@VCOutputView@@VCWindow@ATL@@U?$CBoxedDockingWindowTraits@VCVC7LikeExCaption@dockwins@@V?$CTabDockingBox@U?$CDockingBoxTraits@VCVC7LikeExCaption@dockwins@@$0IGMPAAAA@$0IA@@dockwins@@@2@$0JGMPAAAA@$0IA@@dockwins@@@dockwins@@QAEJIIJAAH@Z 00435b70 f i Output.obj
 0001:00034b70       ?OnNcLButtonDblClk@?$CTitleDockingWindowBaseImpl@VCServerMonitorView@@VCWindow@ATL@@U?$CBoxedDockingWindowTraits@VCVC7LikeExCaption@dockwins@@V?$CTabDockingBox@U?$CDockingBoxTraits@VCVC7LikeExCaption@dockwins@@$0IGMPAAAA@$0IA@@dockwins@@@2@$0JGMPAAAA@$0IA@@dockwins@@@dockwins@@QAEJIIJAAH@Z 00435b70 f i HydraIRC.obj
 0001:00034b70       ?OnWindowPosChanging@?$CTitleDockingWindowBaseImpl@VCServerListView@@VCWindow@ATL@@U?$CBoxedDockingWindowTraits@UCVC7LikeCaption@dockwins@@V?$CTabDockingBox@U?$CDockingBoxTraits@UCVC7LikeCaption@dockwins@@$0IGMPAAAA@$0IA@@dockwins@@@2@$0JGMPAAAA@$0IA@@dockwins@@@dockwins@@QAEJIIJAAH@Z 00435b70 f i HydraIRC.obj
 0001:00034b70       ?OnNcLButtonDblClk@?$CTitleDockingWindowBaseImpl@VCTextQueueView@@VCWindow@ATL@@U?$CBoxedDockingWindowTraits@VCVC7LikeExCaption@dockwins@@V?$CTabDockingBox@U?$CDockingBoxTraits@VCVC7LikeExCaption@dockwins@@$0IGMPAAAA@$0IA@@dockwins@@@2@$0JGMPAAAA@$0IA@@dockwins@@@dockwins@@QAEJIIJAAH@Z 00435b70 f i TextQueueFrm.obj
 0001:00034b70       ?OnEraseBkgnd@?$CTabDockingBox@U?$CDockingBoxTraits@UCVC7LikeCaption@dockwins@@$0IGMPAAAA@$0IA@@dockwins@@@dockwins@@QAEJIIJAAH@Z 00435b70 f i ChildFrm.obj
 0001:00034b70       ?OnWindowPosChanging@?$CTitleDockingWindowBaseImpl@VCChannelMonitorView@@VCWindow@ATL@@U?$CBoxedDockingWindowTraits@VCVC7LikeExCaption@dockwins@@V?$CTabDockingBox@U?$CDockingBoxTraits@VCVC7LikeExCaption@dockwins@@$0IGMPAAAA@$0IA@@dockwins@@@2@$0JGMPAAAA@$0IA@@dockwins@@@dockwins@@QAEJIIJAAH@Z 00435b70 f i HydraIRC.obj
 0001:00034b70       ?OnNcLButtonDblClk@?$CTitleDockingWindowBaseImpl@VCChannelMonitorView@@VCWindow@ATL@@U?$CBoxedDockingWindowTraits@VCVC7LikeExCaption@dockwins@@V?$CTabDockingBox@U?$CDockingBoxTraits@VCVC7LikeExCaption@dockwins@@$0IGMPAAAA@$0IA@@dockwins@@@2@$0JGMPAAAA@$0IA@@dockwins@@@dockwins@@QAEJIIJAAH@Z 00435b70 f i HydraIRC.obj
 0001:00034b70       ?OnNcLButtonDblClk@?$CAutoHidePaneImpl@V?$CAutoHideManager@U?$CDockingWindowTraits@UCVC7LikeCaption@dockwins@@$0EGMAAAAA@$0IA@@dockwins@@@dockwins@@VCWindow@ATL@@U?$CDockingWindowTraits@UCVC7LikeCaption@dockwins@@$0EGMAAAAA@$0IA@@2@@dockwins@@QAEJIIJAAH@Z 00435b70 f i HydraIRC.obj
 0001:00034b70       ?OnWindowPosChanging@?$CTitleDockingWindowBaseImpl@VCUserListView@@VCWindow@ATL@@U?$CBoxedDockingWindowTraits@UCVC7LikeCaption@dockwins@@V?$CTabDockingBox@U?$CDockingBoxTraits@UCVC7LikeCaption@dockwins@@$0IGMPAAAA@$0IA@@dockwins@@@2@$0JGMPAAAA@$0IA@@dockwins@@@dockwins@@QAEJIIJAAH@Z 00435b70 f i ChildFrm.obj
 0001:00034b70       ?OnWindowPosChanging@?$CTitleDockingWindowBaseImpl@VCEventLogView@@VCWindow@ATL@@U?$CBoxedDockingWindowTraits@VCVC7LikeExCaption@dockwins@@V?$CTabDockingBox@U?$CDockingBoxTraits@VCVC7LikeExCaption@dockwins@@$0IGMPAAAA@$0IA@@dockwins@@@2@$0JGMPAAAA@$0IA@@dockwins@@@dockwins@@QAEJIIJAAH@Z 00435b70 f i EventLogFrm.obj
 0001:00034b70       ?OnWindowPosChanging@?$CTitleDockingWindowBaseImpl@VCTextQueueView@@VCWindow@ATL@@U?$CBoxedDockingWindowTraits@VCVC7LikeExCaption@dockwins@@V?$CTabDockingBox@U?$CDockingBoxTraits@VCVC7LikeExCaption@dockwins@@$0IGMPAAAA@$0IA@@dockwins@@@2@$0JGMPAAAA@$0IA@@dockwins@@@dockwins@@QAEJIIJAAH@Z 00435b70 f i TextQueueFrm.obj
 0001:00034b70       ?OnWindowPosChanging@?$CTitleDockingWindowBaseImpl@VCTransfersView@@VCWindow@ATL@@U?$CBoxedDockingWindowTraits@VCVC7LikeExCaption@dockwins@@V?$CTabDockingBox@U?$CDockingBoxTraits@VCVC7LikeExCaption@dockwins@@$0IGMPAAAA@$0IA@@dockwins@@@2@$0JGMPAAAA@$0IA@@dockwins@@@dockwins@@QAEJIIJAAH@Z 00435b70 f i Transfers.obj
 0001:00034b70       ?OnNcLButtonDblClk@?$CTitleDockingWindowBaseImpl@VCTransfersView@@VCWindow@ATL@@U?$CBoxedDockingWindowTraits@VCVC7LikeExCaption@dockwins@@V?$CTabDockingBox@U?$CDockingBoxTraits@VCVC7LikeExCaption@dockwins@@$0IGMPAAAA@$0IA@@dockwins@@@2@$0JGMPAAAA@$0IA@@dockwins@@@dockwins@@QAEJIIJAAH@Z 00435b70 f i Transfers.obj
 0001:00034b80       ?OnDockStateChanged@?$CDockingWindowBaseImpl@V?$CTabDockingBox@U?$CDockingBoxTraits@VCVC7LikeExCaption@dockwins@@$0IGMPAAAA@$0IA@@dockwins@@@dockwins@@VCWindow@ATL@@U?$CDockingBoxTraits@VCVC7LikeExCaption@dockwins@@$0IGMPAAAA@$0IA@@2@@dockwins@@QAEJIIJAAH@Z 00435b80 f i EventLogFrm.obj
 0001:00034be0       ?OnMenuChar@?$CDockingWindowBaseImpl@VCServerMonitorView@@VCWindow@ATL@@U?$CBoxedDockingWindowTraits@VCVC7LikeExCaption@dockwins@@V?$CTabDockingBox@U?$CDockingBoxTraits@VCVC7LikeExCaption@dockwins@@$0IGMPAAAA@$0IA@@dockwins@@@2@$0JGMPAAAA@$0IA@@dockwins@@@dockwins@@QAEJIIJAAH@Z 00435be0 f i HydraIRC.obj
 0001:00034be0       ?OnMenuChar@?$CDockingWindowBaseImpl@VCEventLogView@@VCWindow@ATL@@U?$CBoxedDockingWindowTraits@VCVC7LikeExCaption@dockwins@@V?$CTabDockingBox@U?$CDockingBoxTraits@VCVC7LikeExCaption@dockwins@@$0IGMPAAAA@$0IA@@dockwins@@@2@$0JGMPAAAA@$0IA@@dockwins@@@dockwins@@QAEJIIJAAH@Z 00435be0 f i EventLogFrm.obj
 0001:00034be0       ?OnMenuChar@?$CDockingWindowBaseImpl@V?$CTabDockingBox@U?$CDockingBoxTraits@VCVC7LikeExCaption@dockwins@@$0IGMPAAAA@$0IA@@dockwins@@@dockwins@@VCWindow@ATL@@U?$CDockingBoxTraits@VCVC7LikeExCaption@dockwins@@$0IGMPAAAA@$0IA@@2@@dockwins@@QAEJIIJAAH@Z 00435be0 f i EventLogFrm.obj
 0001:00034be0       ?OnMenuChar@?$CDockingWindowBaseImpl@VCTextQueueView@@VCWindow@ATL@@U?$CBoxedDockingWindowTraits@VCVC7LikeExCaption@dockwins@@V?$CTabDockingBox@U?$CDockingBoxTraits@VCVC7LikeExCaption@dockwins@@$0IGMPAAAA@$0IA@@dockwins@@@2@$0JGMPAAAA@$0IA@@dockwins@@@dockwins@@QAEJIIJAAH@Z 00435be0 f i TextQueueFrm.obj
 0001:00034be0       ?OnMenuChar@?$CDockingWindowBaseImpl@VCTransfersView@@VCWindow@ATL@@U?$CBoxedDockingWindowTraits@VCVC7LikeExCaption@dockwins@@V?$CTabDockingBox@U?$CDockingBoxTraits@VCVC7LikeExCaption@dockwins@@$0IGMPAAAA@$0IA@@dockwins@@@2@$0JGMPAAAA@$0IA@@dockwins@@@dockwins@@QAEJIIJAAH@Z 00435be0 f i Transfers.obj
 0001:00034be0       ?OnMenuChar@?$CDockingWindowBaseImpl@VCUserListView@@VCWindow@ATL@@U?$CBoxedDockingWindowTraits@UCVC7LikeCaption@dockwins@@V?$CTabDockingBox@U?$CDockingBoxTraits@UCVC7LikeCaption@dockwins@@$0IGMPAAAA@$0IA@@dockwins@@@2@$0JGMPAAAA@$0IA@@dockwins@@@dockwins@@QAEJIIJAAH@Z 00435be0 f i ChildFrm.obj
 0001:00034be0       ?OnMenuChar@?$CDockingWindowBaseImpl@VCOutputView@@VCWindow@ATL@@U?$CBoxedDockingWindowTraits@VCVC7LikeExCaption@dockwins@@V?$CTabDockingBox@U?$CDockingBoxTraits@VCVC7LikeExCaption@dockwins@@$0IGMPAAAA@$0IA@@dockwins@@@2@$0JGMPAAAA@$0IA@@dockwins@@@dockwins@@QAEJIIJAAH@Z 00435be0 f i Output.obj
 0001:00034be0       ?OnMenuChar@?$CDockingWindowBaseImpl@VCChannelMonitorView@@VCWindow@ATL@@U?$CBoxedDockingWindowTraits@VCVC7LikeExCaption@dockwins@@V?$CTabDockingBox@U?$CDockingBoxTraits@VCVC7LikeExCaption@dockwins@@$0IGMPAAAA@$0IA@@dockwins@@@2@$0JGMPAAAA@$0IA@@dockwins@@@dockwins@@QAEJIIJAAH@Z 00435be0 f i HydraIRC.obj
 0001:00034be0       ?OnMenuChar@?$CDockingWindowBaseImpl@VCServerListView@@VCWindow@ATL@@U?$CBoxedDockingWindowTraits@UCVC7LikeCaption@dockwins@@V?$CTabDockingBox@U?$CDockingBoxTraits@UCVC7LikeCaption@dockwins@@$0IGMPAAAA@$0IA@@dockwins@@@2@$0JGMPAAAA@$0IA@@dockwins@@@dockwins@@QAEJIIJAAH@Z 00435be0 f i HydraIRC.obj
 0001:00034be0       ?OnMenuChar@?$CDockingWindowBaseImpl@V?$CTabDockingBox@U?$CDockingBoxTraits@UCVC7LikeCaption@dockwins@@$0IGMPAAAA@$0IA@@dockwins@@@dockwins@@VCWindow@ATL@@U?$CDockingBoxTraits@UCVC7LikeCaption@dockwins@@$0IGMPAAAA@$0IA@@2@@dockwins@@QAEJIIJAAH@Z 00435be0 f i ChildFrm.obj
 0001:00034c50       ?OnUndock@?$CTabDockingBox@U?$CDockingBoxTraits@UCVC7LikeCaption@dockwins@@$0IGMPAAAA@$0IA@@dockwins@@@dockwins@@QAEJPAUtagDFMHDR@2@@Z 00435c50 f i ChildFrm.obj
 0001:00034c50       ?OnUndock@?$CTabDockingBox@U?$CDockingBoxTraits@VCVC7LikeExCaption@dockwins@@$0IGMPAAAA@$0IA@@dockwins@@@dockwins@@QAEJPAUtagDFMHDR@2@@Z 00435c50 f i EventLogFrm.obj
 0001:00034ca0       ?FindItem@?$CTabDockingBox@U?$CDockingBoxTraits@VCVC7LikeExCaption@dockwins@@$0IGMPAAAA@$0IA@@dockwins@@@dockwins@@QBEHPAUHWND__@@@Z 00435ca0 f i EventLogFrm.obj
 0001:00034ca0       ?FindItem@?$CTabDockingBox@U?$CDockingBoxTraits@UCVC7LikeCaption@dockwins@@$0IGMPAAAA@$0IA@@dockwins@@@dockwins@@QBEHPAUHWND__@@@Z 00435ca0 f i ChildFrm.obj
 0001:00034d00       ?UpdateWindowCaption@?$CTabDockingBox@U?$CDockingBoxTraits@UCVC7LikeCaption@dockwins@@$0IGMPAAAA@$0IA@@dockwins@@@dockwins@@QAEXXZ 00435d00 f i ChildFrm.obj
 0001:00034d00       ?UpdateWindowCaption@?$CTabDockingBox@U?$CDockingBoxTraits@VCVC7LikeExCaption@dockwins@@$0IGMPAAAA@$0IA@@dockwins@@@dockwins@@QAEXXZ 00435d00 f i EventLogFrm.obj
 0001:00034db0       ?CanBeClosed@?$CTabDockingBox@U?$CDockingBoxTraits@UCVC7LikeCaption@dockwins@@$0IGMPAAAA@$0IA@@dockwins@@@dockwins@@QAE_NK@Z 00435db0 f i ChildFrm.obj
 0001:00034db0       ?CanBeClosed@?$CTabDockingBox@U?$CDockingBoxTraits@VCVC7LikeExCaption@dockwins@@$0IGMPAAAA@$0IA@@dockwins@@@dockwins@@QAE_NK@Z 00435db0 f i EventLogFrm.obj
 0001:00034f70       ?OnSetDockingPosition@?$CTabDockingBox@U?$CDockingBoxTraits@UCVC7LikeCaption@dockwins@@$0IGMPAAAA@$0IA@@dockwins@@@dockwins@@QAE_NPAUtagDFDOCKPOS@2@@Z 00435f70 f i ChildFrm.obj
 0001:00034f70       ?OnSetDockingPosition@?$CTabDockingBox@U?$CDockingBoxTraits@VCVC7LikeExCaption@dockwins@@$0IGMPAAAA@$0IA@@dockwins@@@dockwins@@QAE_NPAUtagDFDOCKPOS@2@@Z 00435f70 f i EventLogFrm.obj
 0001:00034fe0       ?OnUndocked@?$CTitleDockingWindowBaseImpl@V?$CTabDockingBox@U?$CDockingBoxTraits@VCVC7LikeExCaption@dockwins@@$0IGMPAAAA@$0IA@@dockwins@@@dockwins@@VCWindow@ATL@@U?$CDockingBoxTraits@VCVC7LikeExCaption@dockwins@@$0IGMPAAAA@$0IA@@2@@dockwins@@QAEXPAUHWND__@@@Z 00435fe0 f i EventLogFrm.obj
 0001:00034fe0       ?OnUndocked@?$CTitleDockingWindowBaseImpl@VCTextQueueView@@VCWindow@ATL@@U?$CBoxedDockingWindowTraits@VCVC7LikeExCaption@dockwins@@V?$CTabDockingBox@U?$CDockingBoxTraits@VCVC7LikeExCaption@dockwins@@$0IGMPAAAA@$0IA@@dockwins@@@2@$0JGMPAAAA@$0IA@@dockwins@@@dockwins@@QAEXPAUHWND__@@@Z 00435fe0 f i TextQueueFrm.obj
 0001:00034fe0       ?OnUndocked@?$CTitleDockingWindowBaseImpl@VCOutputView@@VCWindow@ATL@@U?$CBoxedDockingWindowTraits@VCVC7LikeExCaption@dockwins@@V?$CTabDockingBox@U?$CDockingBoxTraits@VCVC7LikeExCaption@dockwins@@$0IGMPAAAA@$0IA@@dockwins@@@2@$0JGMPAAAA@$0IA@@dockwins@@@dockwins@@QAEXPAUHWND__@@@Z 00435fe0 f i Output.obj
 0001:00034fe0       ?OnUndocked@?$CTitleDockingWindowBaseImpl@VCEventLogView@@VCWindow@ATL@@U?$CBoxedDockingWindowTraits@VCVC7LikeExCaption@dockwins@@V?$CTabDockingBox@U?$CDockingBoxTraits@VCVC7LikeExCaption@dockwins@@$0IGMPAAAA@$0IA@@dockwins@@@2@$0JGMPAAAA@$0IA@@dockwins@@@dockwins@@QAEXPAUHWND__@@@Z 00435fe0 f i EventLogFrm.obj
 0001:00034fe0       ?OnUndocked@?$CTitleDockingWindowBaseImpl@VCServerMonitorView@@VCWindow@ATL@@U?$CBoxedDockingWindowTraits@VCVC7LikeExCaption@dockwins@@V?$CTabDockingBox@U?$CDockingBoxTraits@VCVC7LikeExCaption@dockwins@@$0IGMPAAAA@$0IA@@dockwins@@@2@$0JGMPAAAA@$0IA@@dockwins@@@dockwins@@QAEXPAUHWND__@@@Z 00435fe0 f i ServerMonitor.obj
 0001:00034fe0       ?OnUndocked@?$CTitleDockingWindowBaseImpl@VCTransfersView@@VCWindow@ATL@@U?$CBoxedDockingWindowTraits@VCVC7LikeExCaption@dockwins@@V?$CTabDockingBox@U?$CDockingBoxTraits@VCVC7LikeExCaption@dockwins@@$0IGMPAAAA@$0IA@@dockwins@@@2@$0JGMPAAAA@$0IA@@dockwins@@@dockwins@@QAEXPAUHWND__@@@Z 00435fe0 f i Transfers.obj
 0001:00034fe0       ?OnUndocked@?$CTitleDockingWindowBaseImpl@VCChannelMonitorView@@VCWindow@ATL@@U?$CBoxedDockingWindowTraits@VCVC7LikeExCaption@dockwins@@V?$CTabDockingBox@U?$CDockingBoxTraits@VCVC7LikeExCaption@dockwins@@$0IGMPAAAA@$0IA@@dockwins@@@2@$0JGMPAAAA@$0IA@@dockwins@@@dockwins@@QAEXPAUHWND__@@@Z 00435fe0 f i ChannelMonitor.obj
 0001:00035010       ?Create@?$CDockingWindowBaseImpl@V?$CTabDockingBox@U?$CDockingBoxTraits@VCVC7LikeExCaption@dockwins@@$0IGMPAAAA@$0IA@@dockwins@@@dockwins@@VCWindow@ATL@@U?$CDockingBoxTraits@VCVC7LikeExCaption@dockwins@@$0IGMPAAAA@$0IA@@2@@dockwins@@QAEPAUHWND__@@PAU3@AAUtagRECT@@PBDKKIPAX@Z 00436010 f i EventLogFrm.obj
 0001:00035070       ?GetIndex@?$CTabDockingBox@U?$CDockingBoxTraits@VCVC7LikeExCaption@dockwins@@$0IGMPAAAA@$0IA@@dockwins@@@dockwins@@KAHPAUtagDFDOCKRECT@2@@Z 00436070 f i EventLogFrm.obj
 0001:00035070       ?GetIndex@?$CTabDockingBox@U?$CDockingBoxTraits@UCVC7LikeCaption@dockwins@@$0IGMPAAAA@$0IA@@dockwins@@@dockwins@@KAHPAUtagDFDOCKRECT@2@@Z 00436070 f i ChildFrm.obj
 0001:00035080       ?IsPointInAcceptedArea@?$CTabDockingBox@U?$CDockingBoxTraits@UCVC7LikeCaption@dockwins@@$0IGMPAAAA@$0IA@@dockwins@@@dockwins@@QBE_NPAUtagPOINT@@@Z 00436080 f i ChildFrm.obj
 0001:00035080       ?IsPointInAcceptedArea@?$CTabDockingBox@U?$CDockingBoxTraits@VCVC7LikeExCaption@dockwins@@$0IGMPAAAA@$0IA@@dockwins@@@dockwins@@QBE_NPAUtagPOINT@@@Z 00436080 f i EventLogFrm.obj
 0001:000351e0       ?InsertWndTab@?$CTabDockingBox@U?$CDockingBoxTraits@UCVC7LikeCaption@dockwins@@$0IGMPAAAA@$0IA@@dockwins@@@dockwins@@QAEHHVCWindow@ATL@@@Z 004361e0 f i ChildFrm.obj
 0001:000351e0       ?InsertWndTab@?$CTabDockingBox@U?$CDockingBoxTraits@VCVC7LikeExCaption@dockwins@@$0IGMPAAAA@$0IA@@dockwins@@@dockwins@@QAEHHVCWindow@ATL@@@Z 004361e0 f i EventLogFrm.obj
 0001:00035210       ?InsertWndTab@?$CTabDockingBox@U?$CDockingBoxTraits@VCVC7LikeExCaption@dockwins@@$0IGMPAAAA@$0IA@@dockwins@@@dockwins@@QAEHHVCWindow@ATL@@K@Z 00436210 f i EventLogFrm.obj
 0001:00035210       ?InsertWndTab@?$CTabDockingBox@U?$CDockingBoxTraits@UCVC7LikeCaption@dockwins@@$0IGMPAAAA@$0IA@@dockwins@@@dockwins@@QAEHHVCWindow@ATL@@K@Z 00436210 f i ChildFrm.obj
 0001:000352d0       ?CanBeClosed@?$CTitleDockingWindowImpl@VCTextQueueView@@VCWindow@ATL@@U?$CBoxedDockingWindowTraits@VCVC7LikeExCaption@dockwins@@V?$CTabDockingBox@U?$CDockingBoxTraits@VCVC7LikeExCaption@dockwins@@$0IGMPAAAA@$0IA@@dockwins@@@2@$0JGMPAAAA@$0IA@@dockwins@@@dockwins@@QAE_NK@Z 004362d0 f i TextQueueFrm.obj
 0001:000352d0       ?CanBeClosed@?$CTitleDockingWindowImpl@VCOutputView@@VCWindow@ATL@@U?$CBoxedDockingWindowTraits@VCVC7LikeExCaption@dockwins@@V?$CTabDockingBox@U?$CDockingBoxTraits@VCVC7LikeExCaption@dockwins@@$0IGMPAAAA@$0IA@@dockwins@@@2@$0JGMPAAAA@$0IA@@dockwins@@@dockwins@@QAE_NK@Z 004362d0 f i Output.obj
 0001:000352d0       ?CanBeClosed@?$CTitleDockingWindowImpl@V?$CTabDockingBox@U?$CDockingBoxTraits@VCVC7LikeExCaption@dockwins@@$0IGMPAAAA@$0IA@@dockwins@@@dockwins@@VCWindow@ATL@@U?$CDockingBoxTraits@VCVC7LikeExCaption@dockwins@@$0IGMPAAAA@$0IA@@2@@dockwins@@QAE_NK@Z 004362d0 f i EventLogFrm.obj
 0001:000352d0       ?CanBeClosed@?$CTitleDockingWindowImpl@V?$CTabDockingBox@U?$CDockingBoxTraits@UCVC7LikeCaption@dockwins@@$0IGMPAAAA@$0IA@@dockwins@@@dockwins@@VCWindow@ATL@@U?$CDockingBoxTraits@UCVC7LikeCaption@dockwins@@$0IGMPAAAA@$0IA@@2@@dockwins@@QAE_NK@Z 004362d0 f i ChildFrm.obj
 0001:000352d0       ?CanBeClosed@?$CTitleDockingWindowImpl@VCServerMonitorView@@VCWindow@ATL@@U?$CBoxedDockingWindowTraits@VCVC7LikeExCaption@dockwins@@V?$CTabDockingBox@U?$CDockingBoxTraits@VCVC7LikeExCaption@dockwins@@$0IGMPAAAA@$0IA@@dockwins@@@2@$0JGMPAAAA@$0IA@@dockwins@@@dockwins@@QAE_NK@Z 004362d0 f i HydraIRC.obj
 0001:000352d0       ?CanBeClosed@?$CTitleDockingWindowImpl@VCEventLogView@@VCWindow@ATL@@U?$CBoxedDockingWindowTraits@VCVC7LikeExCaption@dockwins@@V?$CTabDockingBox@U?$CDockingBoxTraits@VCVC7LikeExCaption@dockwins@@$0IGMPAAAA@$0IA@@dockwins@@@2@$0JGMPAAAA@$0IA@@dockwins@@@dockwins@@QAE_NK@Z 004362d0 f i EventLogFrm.obj
 0001:000352d0       ?CanBeClosed@?$CTitleDockingWindowImpl@VCTransfersView@@VCWindow@ATL@@U?$CBoxedDockingWindowTraits@VCVC7LikeExCaption@dockwins@@V?$CTabDockingBox@U?$CDockingBoxTraits@VCVC7LikeExCaption@dockwins@@$0IGMPAAAA@$0IA@@dockwins@@@2@$0JGMPAAAA@$0IA@@dockwins@@@dockwins@@QAE_NK@Z 004362d0 f i Transfers.obj
 0001:000352d0       ?CanBeClosed@?$CTitleDockingWindowImpl@VCChannelMonitorView@@VCWindow@ATL@@U?$CBoxedDockingWindowTraits@VCVC7LikeExCaption@dockwins@@V?$CTabDockingBox@U?$CDockingBoxTraits@VCVC7LikeExCaption@dockwins@@$0IGMPAAAA@$0IA@@dockwins@@@2@$0JGMPAAAA@$0IA@@dockwins@@@dockwins@@QAE_NK@Z 004362d0 f i HydraIRC.obj
 0001:000352d0       ?CanBeClosed@?$CTitleDockingWindowImpl@VCServerListView@@VCWindow@ATL@@U?$CBoxedDockingWindowTraits@UCVC7LikeCaption@dockwins@@V?$CTabDockingBox@U?$CDockingBoxTraits@UCVC7LikeCaption@dockwins@@$0IGMPAAAA@$0IA@@dockwins@@@2@$0JGMPAAAA@$0IA@@dockwins@@@dockwins@@QAE_NK@Z 004362d0 f i HydraIRC.obj
 0001:000352d0       ?CanBeClosed@?$CTitleDockingWindowImpl@VCUserListView@@VCWindow@ATL@@U?$CBoxedDockingWindowTraits@UCVC7LikeCaption@dockwins@@V?$CTabDockingBox@U?$CDockingBoxTraits@UCVC7LikeCaption@dockwins@@$0IGMPAAAA@$0IA@@dockwins@@@2@$0JGMPAAAA@$0IA@@dockwins@@@dockwins@@QAE_NK@Z 004362d0 f i ChildFrm.obj
 0001:00035350       ?Create@?$CWindowImpl@V?$CTabDockingBox@U?$CDockingBoxTraits@VCVC7LikeExCaption@dockwins@@$0IGMPAAAA@$0IA@@dockwins@@@dockwins@@VCWindow@ATL@@U?$CDockingBoxTraits@VCVC7LikeExCaption@dockwins@@$0IGMPAAAA@$0IA@@2@@ATL@@QAEPAUHWND__@@PAU3@V_U_RECT@2@PBDKKV_U_MENUorID@2@PAX@Z 00436350 f i EventLogFrm.obj
 0001:000353f0       ?PrepareForDock@?$CTabDockingBox@U?$CDockingBoxTraits@VCVC7LikeExCaption@dockwins@@$0IGMPAAAA@$0IA@@dockwins@@@dockwins@@QAEXVCWindow@ATL@@@Z 004363f0 f i EventLogFrm.obj
 0001:000353f0       ?PrepareForDock@?$CTabDockingBox@U?$CDockingBoxTraits@UCVC7LikeCaption@dockwins@@$0IGMPAAAA@$0IA@@dockwins@@@dockwins@@QAEXVCWindow@ATL@@@Z 004363f0 f i ChildFrm.obj
 0001:00035470       ?GetWndClassInfo@?$CTabDockingBox@U?$CDockingBoxTraits@VCVC7LikeExCaption@dockwins@@$0IGMPAAAA@$0IA@@dockwins@@@dockwins@@SAAAU_ATL_WNDCLASSINFOA@ATL@@XZ 00436470 f i EventLogFrm.obj
 0001:00035480       ??0CEventManager@@QAE@XZ   00436480 f   EventManager.obj
 0001:000354b0       ??1CEventManager@@QAE@XZ   004364b0 f   EventManager.obj
 0001:00035510       ?AddListener@CEventManager@@QAEXPAVCListener@@@Z 00436510 f   EventManager.obj
 0001:00035530       ?RemoveListener@CEventManager@@QAEXPAVCListener@@@Z 00436530 f   EventManager.obj
 0001:00035560       ?DeleteEvents@CEventManager@@QAEHPAVCListener@@HPAX@Z 00436560 f   EventManager.obj
 0001:00035640       ?QueueTimedEvent@CEventManager@@QAEHPAVCListener@@HHHHHPAX@Z 00436640 f   EventManager.obj
 0001:000357b0       ?QueueEvent@CEventManager@@QAEHPAVCListener@@HHPAX@Z 004367b0 f   EventManager.obj
 0001:000358d0       ?DoEvent@CEventManager@@QAEHPAVCListener@@HHPAX@Z 004368d0 f   EventManager.obj
 0001:00035960       ?FireEvent@CEventManager@@AAEXPAUEventQueueItem_s@@@Z 00436960 f   EventManager.obj
 0001:00035a90       ?ProcessEvents@CEventManager@@QAEXXZ 00436a90 f   EventManager.obj
 0001:00035cb0       ?PopulateFavoritesTree@@YAXPAV?$CTreeViewCtrlT@VCWindow@ATL@@@WTL@@AAV?$CSimpleArray@PAVTreeItemInfo@@V?$CSimpleArrayEqualHelper@PAVTreeItemInfo@@@ATL@@@ATL@@PAU_TREEITEM@@PAU_xmlNode@@3PAPAU5@@Z 00436cb0 f   FavoritesDlg.obj
 0001:00035fb0       ?ClearTree@@YAXPAV?$CTreeViewCtrlT@VCWindow@ATL@@@WTL@@AAV?$CSimpleArray@PAVTreeItemInfo@@V?$CSimpleArrayEqualHelper@PAVTreeItemInfo@@@ATL@@@ATL@@@Z 00436fb0 f   FavoritesDlg.obj
 0001:00036000       ?OnInitDialog@CFavoritesDlg@@QAEJIIJAAH@Z 00437000 f   FavoritesDlg.obj
 0001:00036130       ?OnCloseCmd@CFavoritesDlg@@QAEJGGPAUHWND__@@AAH@Z 00437130 f   FavoritesDlg.obj
 0001:00036160       ?OnOKCmd@CFavoritesDlg@@QAEJGGPAUHWND__@@AAH@Z 00437160 f   FavoritesDlg.obj
 0001:000361b0       ?OnTvnEndlabeleditFavoritesTree@CFavoritesDlg@@QAEJHPAUtagNMHDR@@AAH@Z 004371b0 f   FavoritesDlg.obj
 0001:00036240       ?OnTvnSelchangedFavoritesTree@CFavoritesDlg@@QAEJHPAUtagNMHDR@@AAH@Z 00437240 f   FavoritesDlg.obj
 0001:00036420       ?OnTvnBeginlabeleditFavoritesTree@CFavoritesDlg@@QAEJHPAUtagNMHDR@@AAH@Z 00437420 f   FavoritesDlg.obj
 0001:000364b0       ?OnBnClickedFavoritesNewfolder@CFavoritesDlg@@QAEJGGPAUHWND__@@AAH@Z 004374b0 f   FavoritesDlg.obj
 0001:00036720       ?DeleteSelectedItem@CFavoritesDlg@@QAEXXZ 00437720 f   FavoritesDlg.obj
 0001:000367e0       ?OnBnClickedFavoritesDelete@CFavoritesDlg@@QAEJGGPAUHWND__@@AAH@Z 004377e0 f   FavoritesDlg.obj
 0001:00036800       ??0CFavoritesDlg@@QAE@XZ   00437800 f   FavoritesDlg.obj
 0001:000368c0       ??1CFavoritesDlg@@UAE@XZ   004378c0 f   FavoritesDlg.obj
 0001:00036960       ?OnTvnBegindragFavoritesTree@CFavoritesDlg@@QAEJHPAUtagNMHDR@@AAH@Z 00437960 f   FavoritesDlg.obj
 0001:00036ac0       ?OnMouseMove@CFavoritesDlg@@QAEJIIJAAH@Z 00437ac0 f   FavoritesDlg.obj
 0001:00036cb0       ?OnMouseButtonUp@CFavoritesDlg@@QAEJIIJAAH@Z 00437cb0 f   FavoritesDlg.obj
 0001:00036eb0       ?OnTvnKeydownFavoritesTree@CFavoritesDlg@@QAEJHPAUtagNMHDR@@AAH@Z 00437eb0 f   FavoritesDlg.obj
 0001:00036ef0       ??0CFavoritesAddDlg@@QAE@PAU_xmlNode@@@Z 00437ef0 f   FavoritesDlg.obj
 0001:00036fb0       ??1CFavoritesAddDlg@@UAE@XZ 00437fb0 f   FavoritesDlg.obj
 0001:00037050       ?OnInitDialog@CFavoritesAddDlg@@QAEJIIJAAH@Z 00438050 f   FavoritesDlg.obj
 0001:000371e0       ?OnCloseCmd@CFavoritesAddDlg@@QAEJGGPAUHWND__@@AAH@Z 004381e0 f   FavoritesDlg.obj
 0001:00037200       ?OnOKCmd@CFavoritesAddDlg@@QAEJGGPAUHWND__@@AAH@Z 00438200 f   FavoritesDlg.obj
 0001:00037330       ?OnTvnSelchangedFavoritesTree@CFavoritesAddDlg@@QAEJHPAUtagNMHDR@@AAH@Z 00438330 f   FavoritesDlg.obj
 0001:000373e0       ?OnBnClickedFavoritesaddNewfolder@CFavoritesAddDlg@@QAEJGGPAUHWND__@@AAH@Z 004383e0 f   FavoritesDlg.obj
 0001:00037640       ?OnTvnBeginlabeleditFavoritesaddTree@CFavoritesAddDlg@@QAEJHPAUtagNMHDR@@AAH@Z 00438640 f   FavoritesDlg.obj
 0001:000376d0       ?OnTvnEndlabeleditFavoritesaddTree@CFavoritesAddDlg@@QAEJHPAUtagNMHDR@@AAH@Z 004386d0 f   FavoritesDlg.obj
 0001:00037760       ?ProcessWindowMessage@CFavoritesDlg@@UAEHPAUHWND__@@IIJAAJK@Z 00438760 f i FavoritesDlg.obj
 0001:00037b90       ??_ECFavoritesDlg@@UAEPAXI@Z 00438b90 f i FavoritesDlg.obj
 0001:00037b90       ??_GCFavoritesDlg@@UAEPAXI@Z 00438b90 f i FavoritesDlg.obj
 0001:00037bc0       ??0?$CTVEditT@VCWindow@ATL@@@@QAE@XZ 00438bc0 f i FavoritesDlg.obj
 0001:00037be0       ?ProcessWindowMessage@CFavoritesAddDlg@@UAEHPAUHWND__@@IIJAAJK@Z 00438be0 f i FavoritesDlg.obj
 0001:00037e80       ??_GCFavoritesAddDlg@@UAEPAXI@Z 00438e80 f i FavoritesDlg.obj
 0001:00037e80       ??_ECFavoritesAddDlg@@UAEPAXI@Z 00438e80 f i FavoritesDlg.obj
 0001:00037eb0       ??0?$CWindowImplBaseT@V?$CListBoxT@VCWindow@ATL@@@WTL@@V?$CWinTraitsOR@$0CB@$0A@V?$CWinTraits@$0FGAAAAAA@$0A@@ATL@@@ATL@@@ATL@@QAE@XZ 00438eb0 f i MainFrm.obj
 0001:00037eb0       ??0?$CWindowImplBaseT@V?$CStatusBarCtrlT@VCWindow@ATL@@@WTL@@V?$CWinTraits@$0FGAAAAAA@$0A@@ATL@@@ATL@@QAE@XZ 00438eb0 f i HydraIRC.obj
 0001:00037eb0       ??0?$CWindowImplBaseT@V?$CRichEditCtrlT@VCWindow@ATL@@@WTL@@V?$CWinTraits@$0FGAAAAAA@$0A@@ATL@@@ATL@@QAE@XZ 00438eb0 f i ChildFrm.obj
 0001:00037eb0       ??0?$CWindowImplBaseT@V?$CEditT@VCWindow@ATL@@@WTL@@V?$CWinTraits@$0FGAAAAAA@$0A@@ATL@@@ATL@@QAE@XZ 00438eb0 f i FavoritesDlg.obj
 0001:00037ee0       ?SetImageList@?$CTreeViewCtrlT@VCWindow@ATL@@@WTL@@QAE?AVCImageList@2@PAU_IMAGELIST@@H@Z 00438ee0 f i FavoritesDlg.obj
 0001:00037f20       ?GetEditControl@?$CTreeViewCtrlT@VCWindow@ATL@@@WTL@@QBE?AV?$CEditT@VCWindow@ATL@@@2@XZ 00438f20 f i FavoritesDlg.obj
 0001:00037f50       ?EditLabel@?$CTreeViewCtrlT@VCWindow@ATL@@@WTL@@QAE?AV?$CEditT@VCWindow@ATL@@@2@PAU_TREEITEM@@@Z 00438f50 f i FavoritesDlg.obj
 0001:00037f80       ?HitTest@?$CTreeViewCtrlT@VCWindow@ATL@@@WTL@@QBEPAU_TREEITEM@@PAUtagTVHITTESTINFO@@@Z 00438f80 f i FavoritesDlg.obj
 0001:00037fb0       ?CreateDragImage@?$CTreeViewCtrlT@VCWindow@ATL@@@WTL@@QAE?AVCImageList@2@PAU_TREEITEM@@@Z 00438fb0 f i FavoritesDlg.obj
 0001:00037fe0       ??0?$CDialogResize@VCMiscPage@@@WTL@@QAE@XZ 00438fe0 f i MainFrm.obj
 0001:00037fe0       ??0?$CDialogResize@VCNotImplementedPage@@@WTL@@QAE@XZ 00438fe0 f i MainFrm.obj
 0001:00037fe0       ??0?$CDialogResize@VCHighlightingPage@@@WTL@@QAE@XZ 00438fe0 f i MainFrm.obj
 0001:00037fe0       ??0?$CDialogResize@VCMessagesPage@@@WTL@@QAE@XZ 00438fe0 f i MainFrm.obj
 0001:00037fe0       ??0?$CDialogResize@VCCommandProfilesPage@@@WTL@@QAE@XZ 00438fe0 f i MainFrm.obj
 0001:00037fe0       ??0?$CDialogResize@VCBuddyGroupsPage@@@WTL@@QAE@XZ 00438fe0 f i MainFrm.obj
 0001:00037fe0       ??0?$CDialogResize@VCFavoritesAddDlg@@@WTL@@QAE@XZ 00438fe0 f i FavoritesDlg.obj
 0001:00037fe0       ??0?$CDialogResize@VCEditBuddyGroupDlg@@@WTL@@QAE@XZ 00438fe0 f i Prefs_BuddyGroupsPage.obj
 0001:00037fe0       ??0?$CDialogResize@VCSelectChildPage@@@WTL@@QAE@XZ 00438fe0 f i MainFrm.obj
 0001:00037fe0       ??0?$CDialogResize@VCEditServerDetailsDlg@@@WTL@@QAE@XZ 00438fe0 f i ConnectDlg.obj
 0001:00037fe0       ??0?$CDialogResize@VCNotificationsPage@@@WTL@@QAE@XZ 00438fe0 f i MainFrm.obj
 0001:00037fe0       ??0?$CDialogResize@VCFavoritesDlg@@@WTL@@QAE@XZ 00438fe0 f i FavoritesDlg.obj
 0001:00037fe0       ??0?$CDialogResize@VCLoggingPage@@@WTL@@QAE@XZ 00438fe0 f i MainFrm.obj
 0001:00037fe0       ??0?$CDialogResize@VCAddNetworkDlg@@@WTL@@QAE@XZ 00438fe0 f i ConnectDlg.obj
 0001:00037fe0       ??0?$CDialogResize@VCIdentitiesPage@@@WTL@@QAE@XZ 00438fe0 f i MainFrm.obj
 0001:00037fe0       ??0?$CDialogResize@VCChannelListDlg@@@WTL@@QAE@XZ 00438fe0 f i Server.obj
 0001:00037fe0       ??0?$CDialogResize@VCEditNotificationDlg@@@WTL@@QAE@XZ 00438fe0 f i Prefs_NotificationsPage.obj
 0001:00037fe0       ??0?$CDialogResize@VCConnectDlg@@@WTL@@QAE@XZ 00438fe0 f i ConnectDlg.obj
 0001:00037fe0       ??0?$CDialogResize@VCPrefsDlg@@@WTL@@QAE@XZ 00438fe0 f i MainFrm.obj
 0001:00037fe0       ??0?$CDialogResize@VCChannelPropertiesDlg@@@WTL@@QAE@XZ 00438fe0 f i ChannelPropertiesDlg.obj
 0001:00038030       ?DlgResize_Init@?$CDialogResize@VCFavoritesDlg@@@WTL@@QAEX_N0K@Z 00439030 f i FavoritesDlg.obj
 0001:000384e0       ?GetDlgResizeMap@CFavoritesDlg@@SAPBU_AtlDlgResizeMap@?$CDialogResize@VCFavoritesDlg@@@WTL@@XZ 004394e0 f i FavoritesDlg.obj
 0001:000384f0       ?ProcessWindowMessage@?$CTVEditT@VCWindow@ATL@@@@UAEHPAUHWND__@@IIJAAJK@Z 004394f0 f i FavoritesDlg.obj
 0001:00038550       ?DlgResize_Init@?$CDialogResize@VCFavoritesAddDlg@@@WTL@@QAEX_N0K@Z 00439550 f i FavoritesDlg.obj
 0001:00038a00       ?GetDlgResizeMap@CFavoritesAddDlg@@SAPBU_AtlDlgResizeMap@?$CDialogResize@VCFavoritesAddDlg@@@WTL@@XZ 00439a00 f i FavoritesDlg.obj
 0001:00038a10       ??0?$CWindowImplRoot@V?$CStatusBarCtrlT@VCWindow@ATL@@@WTL@@@ATL@@QAE@XZ 00439a10 f i HydraIRC.obj
 0001:00038a10       ??0?$CWindowImplRoot@V?$CRichEditCtrlT@VCWindow@ATL@@@WTL@@@ATL@@QAE@XZ 00439a10 f i ChildFrm.obj
 0001:00038a10       ??0?$CWindowImplRoot@V?$CEditT@VCWindow@ATL@@@WTL@@@ATL@@QAE@XZ 00439a10 f i FavoritesDlg.obj
 0001:00038a10       ??0?$CWindowImplRoot@V?$CListBoxT@VCWindow@ATL@@@WTL@@@ATL@@QAE@XZ 00439a10 f i MainFrm.obj
 0001:00038a60       ?BeginDrag@CImageList@WTL@@QAEHHUtagPOINT@@@Z 00439a60 f i FavoritesDlg.obj
 0001:00038a90       ?EndDrag@CImageList@WTL@@SAXXZ 00439a90 f i FavoritesDlg.obj
 0001:00038aa0       ?DragMove@CImageList@WTL@@SAHUtagPOINT@@@Z 00439aa0 f i FavoritesDlg.obj
 0001:00038ac0       ?DragShowNolock@CImageList@WTL@@SAHH@Z 00439ac0 f i FavoritesDlg.obj
 0001:00038ad0       ?DragEnter@CImageList@WTL@@SAHPAUHWND__@@UtagPOINT@@@Z 00439ad0 f i FavoritesDlg.obj
 0001:00038af0       ?DragLeave@CImageList@WTL@@SAHPAUHWND__@@@Z 00439af0 f i FavoritesDlg.obj
 0001:00038b00       ?OnWMGETDLGCODE@?$CTVEditT@VCWindow@ATL@@@@QAEJIIJAAH@Z 00439b00 f i FavoritesDlg.obj
 0001:00038b20       ?PopulateIdentityComboCtrl@@YAXAAV?$CComboBoxT@VCWindow@ATL@@@WTL@@PAVUserIdentity@@@Z 00439b20 f   GUIHelpers.obj
 0001:00038c40       ??0CHeaderView@@QAE@XZ     00439c40 f   HeaderView.obj
 0001:00038d00       ??1CHeaderView@@UAE@XZ     00439d00 f   HeaderView.obj
 0001:00038d80       ?OnSize@CHeaderView@@QAEJIIJAAH@Z 00439d80 f   HeaderView.obj
 0001:00038e40       ?OnCreate@CHeaderView@@QAEJIIJAAH@Z 00439e40 f   HeaderView.obj
 0001:00038f50       ?OnCommand@CHeaderView@@QAEJIIJAAH@Z 00439f50 f   HeaderView.obj
 0001:00038fd0       ?UpdateHeader@CHeaderView@@QAEXPAD@Z 00439fd0 f   HeaderView.obj
 0001:00039060       ?PrefsColorsToIRCEditCtrlColors@@YAPAKPAK@Z 0043a060 f   HeaderView.obj
 0001:000390b0       ?UpdateSettings@CHeaderView@@QAEXXZ 0043a0b0 f   HeaderView.obj
 0001:000391b0       ?SetColors@CHeaderView@@QAEXPAK@Z 0043a1b0 f   HeaderView.obj
 0001:000391f0       ?PutIRCText@CIRCEditCtrl@@QAEXPADKK@Z 0043a1f0 f   HeaderView.obj
 0001:00039de0       ??0CIRCEditCtrl@@QAE@XZ    0043ade0 f i HeaderView.obj
 0001:00039e10       ?ProcessWindowMessage@CIRCEditCtrl@@UAEHPAUHWND__@@IIJAAJK@Z 0043ae10 f i HeaderView.obj
 0001:00039ea0       ??1CIRCEditCtrl@@UAE@XZ    0043aea0 f i HeaderView.obj
 0001:00039ec0       ?OnPaste@CIRCEditCtrl@@QAEJIIJAAH@Z 0043aec0 f i HeaderView.obj
 0001:00039ee0       ??_ECIRCEditCtrl@@UAEPAXI@Z 0043aee0 f i HeaderView.obj
 0001:00039ee0       ??_GCIRCEditCtrl@@UAEPAXI@Z 0043aee0 f i HeaderView.obj
 0001:00039f10       ?ProcessWindowMessage@CHeaderView@@UAEHPAUHWND__@@IIJAAJK@Z 0043af10 f i HeaderView.obj
 0001:0003a060       ?OnEditCopy@CHeaderView@@QAEJIIJAAH@Z 0043b060 f i HeaderView.obj
 0001:0003a0a0       ??_ECHeaderView@@UAEPAXI@Z 0043b0a0 f i HeaderView.obj
 0001:0003a0a0       ??_GCHeaderView@@UAEPAXI@Z 0043b0a0 f i HeaderView.obj
 0001:0003a0d0       ?SetColors@CIRCEditCtrl@@QAEXPAK@Z 0043b0d0 f i HeaderView.obj
 0001:0003a100       ?Create@?$CButtonT@VCWindow@ATL@@@WTL@@QAEPAUHWND__@@PAU3@V_U_RECT@ATL@@PBDKKV_U_MENUorID@5@PAX@Z 0043b100 f i HeaderView.obj
 0001:0003a150       ?Create@?$CWindowImpl@VCIRCEditCtrl@@V?$CRichEditCtrlT@VCWindow@ATL@@@WTL@@V?$CWinTraits@$0FGAAAAAA@$0A@@ATL@@@ATL@@QAEPAUHWND__@@PAU3@V_U_RECT@2@PBDKKV_U_MENUorID@2@PAX@Z 0043b150 f i HeaderView.obj
 0001:0003a1f0       ?GetWndClassInfo@CIRCEditCtrl@@SAAAU_ATL_WNDCLASSINFOA@ATL@@XZ 0043b1f0 f i HeaderView.obj
 0001:0003a2d0       ?SetBackgroundColor@?$CRichEditCtrlT@VCWindow@ATL@@@WTL@@QAEKK@Z 0043b2d0 f i HeaderView.obj
 0001:0003a300       ?SetEventMask@?$CRichEditCtrlT@VCWindow@ATL@@@WTL@@QAEKK@Z 0043b300 f i HeaderView.obj
 0001:0003a300       ?HitTest@?$CToolBarCtrlT@VCWindow@ATL@@@WTL@@QBEHPAUtagPOINT@@@Z 0043b300 f i HydraIRC.obj
 0001:0003a330       ?GetDefaultCharFormat@?$CRichEditCtrlT@VCWindow@ATL@@@WTL@@QBEKAAUCHARFORMAT2A@@@Z 0043b330 f i HeaderView.obj
 0001:0003a360       ?SetSelectionCharFormat@?$CRichEditCtrlT@VCWindow@ATL@@@WTL@@QAEHAAUCHARFORMAT2A@@@Z 0043b360 f i HeaderView.obj
 0001:0003a390       ?SetAutoURLDetect@?$CRichEditCtrlT@VCWindow@ATL@@@WTL@@QAEHH@Z 0043b390 f i HeaderView.obj
 0001:0003a3c0       ?ReplaceSel@?$CRichEditCtrlT@VCWindow@ATL@@@WTL@@QAEXPBDH@Z 0043b3c0 f i HeaderView.obj
 0001:0003a3c0       ?ReplaceSel@?$CEditT@VCWindow@ATL@@@WTL@@QAEXPBDH@Z 0043b3c0 f i ChannelPropertiesDlg.obj
 0001:0003a3f0       ?OnEditCut@?$CEditCommands@VCInfoView@@@WTL@@QAEJGGPAUHWND__@@AAH@Z 0043b3f0 f i ChildFrm.obj
 0001:0003a3f0       ?OnEditCut@?$CEditCommands@VCTextInputView@@@WTL@@QAEJGGPAUHWND__@@AAH@Z 0043b3f0 f i ChildFrm.obj
 0001:0003a3f0       ?OnEditCut@?$CEditCommands@VCIRCEditCtrl@@@WTL@@QAEJGGPAUHWND__@@AAH@Z 0043b3f0 f i HeaderView.obj
 0001:0003a430       ?OnEditPaste@?$CEditCommands@VCInfoView@@@WTL@@QAEJGGPAUHWND__@@AAH@Z 0043b430 f i ChildFrm.obj
 0001:0003a430       ?OnEditPaste@?$CEditCommands@VCIRCEditCtrl@@@WTL@@QAEJGGPAUHWND__@@AAH@Z 0043b430 f i HeaderView.obj
 0001:0003a430       ?OnEditPaste@?$CEditCommands@VCTextInputView@@@WTL@@QAEJGGPAUHWND__@@AAH@Z 0043b430 f i ChildFrm.obj
 0001:0003a470       ?OnEditUndo@?$CEditCommands@VCIRCEditCtrl@@@WTL@@QAEJGGPAUHWND__@@AAH@Z 0043b470 f i HeaderView.obj
 0001:0003a470       ?OnEditUndo@?$CEditCommands@VCTextInputView@@@WTL@@QAEJGGPAUHWND__@@AAH@Z 0043b470 f i ChildFrm.obj
 0001:0003a470       ?OnEditUndo@?$CEditCommands@VCInfoView@@@WTL@@QAEJGGPAUHWND__@@AAH@Z 0043b470 f i ChildFrm.obj
 0001:0003a4b0       ?AtlGetStockFont@WTL@@YAPAUHFONT__@@H@Z 0043b4b0 f i HeaderView.obj
 0001:0003a4c0       ?GetWndClassName@?$CButtonT@VCWindow@ATL@@@WTL@@SAPBDXZ 0043b4c0 f i HeaderView.obj
 0001:0003a4d0       ?MDIActivate@CHidingMDIWindow@@QAEXPAUHWND__@@@Z 0043b4d0 f   HidingMDIWindow.obj
 0001:0003a510       ?GetDLLVersion@CDLLVersion@@AAEHPADAAK11@Z 0043b510 f   HydraIRC.obj
 0001:0003a6a0       ?CheckFileVersion@CDLLVersion@@AAEHPADHAAK11@Z 0043b6a0 f   HydraIRC.obj
 0001:0003a7a0       ?ParseVersionString@CDLLVersion@@AAEHPADAAK11@Z 0043b7a0 f   HydraIRC.obj
 0001:0003a840       ?FixFilePath@CDLLVersion@@AAEHPADH@Z 0043b840 f   HydraIRC.obj
 0001:0003a940       ?ParseVersionString1@CDLLVersion@@AAEHPADAAK11@Z 0043b940 f   HydraIRC.obj
 0001:0003a9e0       ?getVersion@CDLLVersion@@AAEPADPAD@Z 0043b9e0 f   HydraIRC.obj
 0001:0003aba0       ?DrawEllipsisText@dockwins@@YAXAAV?$CDCT@$00@WTL@@PBDHPAUtagRECT@@_N@Z 0043bba0 f   HydraIRC.obj
 0001:0003ad70       ?InstallUrlHandler@@YAXXZ  0043bd70 f   HydraIRC.obj
 0001:0003af60       ?GetNetworkName@@YAPADH@Z  0043bf60 f   HydraIRC.obj
 0001:0003afc0       ?GetNetworkDetails@@YAPAVIRCNetworkDetails@@H@Z 0043bfc0 f   HydraIRC.obj
 0001:0003b020       ?FindChildWindow@@YAPAVCChildCommon@@PAUHWND__@@@Z 0043c020 f   HydraIRC.obj
 0001:0003b090       ?FindChildWindowByID@@YAPAVCChildCommon@@H@Z 0043c090 f   HydraIRC.obj
 0001:0003b160       ?FindIRCChannel@@YAPAVIRCChannel@@PAUHWND__@@@Z 0043c160 f   HydraIRC.obj
 0001:0003b1b0       ?FindIRCChannelByName@@YAPAVIRCChannel@@PAD@Z 0043c1b0 f   HydraIRC.obj
 0001:0003b220       ?FindIRCServer@@YAPAVIRCServer@@PAUHWND__@@HH@Z 0043c220 f   HydraIRC.obj
 0001:0003b290       ?FindDCCChat@@YAPAVIRCServer@@PAV1@PAD@Z 0043c290 f   HydraIRC.obj
 0001:0003b340       ?FindDCCChat@@YAPAVIRCServer@@PAUHWND__@@@Z 0043c340 f   HydraIRC.obj
 0001:0003b390       ?FindIRCQuery@@YAPAVIRCQuery@@PAUHWND__@@@Z 0043c390 f   HydraIRC.obj
 0001:0003b3e0       ?FindServerByID@@YAPAVIRCServer@@H@Z 0043c3e0 f   HydraIRC.obj
 0001:0003b440       ?FindServerOnNetwork@@YAPAVIRCServer@@H@Z 0043c440 f   HydraIRC.obj
 0001:0003b4b0       ?FindServerByName@@YAPAVIRCServer@@PADH@Z 0043c4b0 f   HydraIRC.obj
 0001:0003b540       ?FindChannelByID@@YAPAVIRCChannel@@H@Z 0043c540 f   HydraIRC.obj
 0001:0003b5a0       ?FindQueryByID@@YAPAVIRCQuery@@H@Z 0043c5a0 f   HydraIRC.obj
 0001:0003b600       ?stripcrlf@@YAPADPAD@Z     0043c600 f   HydraIRC.obj
 0001:0003b670       ?strippathseparator@@YAPADPAD@Z 0043c670 f   HydraIRC.obj
 0001:0003b6d0       ?stripwhitespace@@YAPADPAD@Z 0043c6d0 f   HydraIRC.obj
 0001:0003b740       ?ischannelstartchar@@YAHD@Z 0043c740 f   HydraIRC.obj
 0001:0003b780       ?ischannelchar@@YAHD@Z     0043c780 f   HydraIRC.obj
 0001:0003b7f0       ?isvalidchannelname@@YAHPAD@Z 0043c7f0 f   HydraIRC.obj
 0001:0003b850       ?GetConnectedServerCount@@YAHXZ 0043c850 f   HydraIRC.obj
 0001:0003b8b0       ?sys_Log@@YAXHPBD@Z        0043c8b0 f   HydraIRC.obj
 0001:0003ba20       ?sys_Logf@@YAXHPBDZZ       0043ca20 f   HydraIRC.obj
 0001:0003baa0       ?sys_Printf@@YAXHPBDZZ     0043caa0 f   HydraIRC.obj
 0001:0003bd10       ?stripcodes@@YAPADPAD@Z    0043cd10 f   HydraIRC.obj
 0001:0003c0b0       ?GetTimestamp@@YAPADPAUtm@@PAD@Z 0043d0b0 f   HydraIRC.obj
 0001:0003c130       ?UseEmptyString@@YAPADPAD@Z 0043d130 f   HydraIRC.obj
 0001:0003c150       ?AllocEmptyString@@YAPADPAD@Z 0043d150 f   HydraIRC.obj
 0001:0003c180       ?CreatePath@@YAHPAD@Z      0043d180 f   HydraIRC.obj
 0001:0003c3a0       ?GetOutputThemeFormatStr@@YAPADPAUOutputThemeItem_s@@HH@Z 0043d3a0 f   HydraIRC.obj
 0001:0003c470       ?ReplaceVariables@@YAXPADHPBDPAPBD2H@Z 0043d470 f   HydraIRC.obj
 0001:0003c740       ?CopyWindowText@@YAPADPAVCWindow@ATL@@AAPAD@Z 0043d740 f   HydraIRC.obj
 0001:0003c7c0       ?GetAppFont@@YAPAUHFONT__@@H@Z 0043d7c0 f   HydraIRC.obj
 0001:0003c7f0       ?GetFontMaxHeight@@YAHPAUHFONT__@@@Z 0043d7f0 f   HydraIRC.obj
 0001:0003c8c0       ?SetupFonts@@YAXXZ         0043d8c0 f   HydraIRC.obj
 0001:0003ca40       ?CleanupFonts@@YAXXZ       0043da40 f   HydraIRC.obj
 0001:0003ca80       ?GetAppIcon@@YAPAUHICON__@@H@Z 0043da80 f   HydraIRC.obj
 0001:0003cab0       ?SetupIcons@@YAXXZ         0043dab0 f   HydraIRC.obj
 0001:0003ccb0       ?CleanupIcons@@YAXXZ       0043dcb0 f   HydraIRC.obj
 0001:0003ccf0       ?InitImages@@YAXXZ         0043dcf0 f   HydraIRC.obj
 0001:0003cd90       ?UpdateActivePrefs@@YAXXZ  0043dd90 f   HydraIRC.obj
 0001:0003cee0       ?Run@@YAHPADH@Z            0043dee0 f   HydraIRC.obj
 0001:0003d780       ?searchOtherInstance@@YGHPAUHWND__@@J@Z 0043e780 f   HydraIRC.obj
 0001:0003d7e0       ?FileExists@@YAHPAD@Z      0043e7e0 f   HydraIRC.obj
 0001:0003d840       _WinMain@16                0043e840 f   HydraIRC.obj
 0001:0003de70       __tcsncpy                  0043ee70 f i HydraIRC.obj
 0001:0003de90       ??0ActiveSettings@@QAE@XZ  0043ee90 f i HydraIRC.obj
 0001:0003deb0       ??0CMainFrame@@QAE@XZ      0043eeb0 f i HydraIRC.obj
 0001:0003e180       ??0CChannelMonitorView@@QAE@KPAVCEventManager@@@Z 0043f180 f i HydraIRC.obj
 0001:0003e230       ?ProcessWindowMessage@CChannelMonitorView@@UAEHPAUHWND__@@IIJAAJK@Z 0043f230 f i HydraIRC.obj
 0001:0003e530       ??0CServerMonitorView@@QAE@KPAVCEventManager@@@Z 0043f530 f i HydraIRC.obj
 0001:0003e5e0       ?ProcessWindowMessage@CServerMonitorView@@UAEHPAUHWND__@@IIJAAJK@Z 0043f5e0 f i HydraIRC.obj
 0001:0003e8e0       ??1CChannelMonitorView@@UAE@XZ 0043f8e0 f i HydraIRC.obj
 0001:0003e8e0       ??1CServerMonitorView@@UAE@XZ 0043f8e0 f i HydraIRC.obj
 0001:0003e960       ??0CServerListView@@QAE@K@Z 0043f960 f i HydraIRC.obj
 0001:0003ea50       ?ProcessWindowMessage@CServerListView@@UAEHPAUHWND__@@IIJAAJK@Z 0043fa50 f i HydraIRC.obj
 0001:0003ece0       ??0?$CBoxedDockingWindowImpl@VCUserListView@@VCWindow@ATL@@U?$CBoxedDockingWindowTraits@UCVC7LikeCaption@dockwins@@V?$CTabDockingBox@U?$CDockingBoxTraits@UCVC7LikeCaption@dockwins@@$0IGMPAAAA@$0IA@@dockwins@@@2@$0JGMPAAAA@$0IA@@dockwins@@@dockwins@@QAE@XZ 0043fce0 f i ChildFrm.obj
 0001:0003ece0       ??0?$CBoxedDockingWindowImpl@VCServerListView@@VCWindow@ATL@@U?$CBoxedDockingWindowTraits@UCVC7LikeCaption@dockwins@@V?$CTabDockingBox@U?$CDockingBoxTraits@UCVC7LikeCaption@dockwins@@$0IGMPAAAA@$0IA@@dockwins@@@2@$0JGMPAAAA@$0IA@@dockwins@@@dockwins@@QAE@XZ 0043fce0 f i HydraIRC.obj
 0001:0003ece0       ??0?$CDockingBoxBaseImpl@V?$CTabDockingBox@U?$CDockingBoxTraits@UCVC7LikeCaption@dockwins@@$0IGMPAAAA@$0IA@@dockwins@@@dockwins@@VCWindow@ATL@@U?$CDockingBoxTraits@UCVC7LikeCaption@dockwins@@$0IGMPAAAA@$0IA@@2@@dockwins@@IAE@XZ 0043fce0 f i ChildFrm.obj
 0001:0003ed00       ??0?$CBoxedDockingWindowBaseImpl@V?$CTabDockingBox@U?$CDockingBoxTraits@UCVC7LikeCaption@dockwins@@$0IGMPAAAA@$0IA@@dockwins@@@dockwins@@VCWindow@ATL@@U?$CDockingBoxTraits@UCVC7LikeCaption@dockwins@@$0IGMPAAAA@$0IA@@2@@dockwins@@QAE@XZ 0043fd00 f i ChildFrm.obj
 0001:0003ed00       ??0?$CBoxedDockingWindowBaseImpl@VCUserListView@@VCWindow@ATL@@U?$CBoxedDockingWindowTraits@UCVC7LikeCaption@dockwins@@V?$CTabDockingBox@U?$CDockingBoxTraits@UCVC7LikeCaption@dockwins@@$0IGMPAAAA@$0IA@@dockwins@@@2@$0JGMPAAAA@$0IA@@dockwins@@@dockwins@@QAE@XZ 0043fd00 f i ChildFrm.obj
 0001:0003ed00       ??0?$CBoxedDockingWindowBaseImpl@VCServerListView@@VCWindow@ATL@@U?$CBoxedDockingWindowTraits@UCVC7LikeCaption@dockwins@@V?$CTabDockingBox@U?$CDockingBoxTraits@UCVC7LikeCaption@dockwins@@$0IGMPAAAA@$0IA@@dockwins@@@2@$0JGMPAAAA@$0IA@@dockwins@@@dockwins@@QAE@XZ 0043fd00 f i HydraIRC.obj
 0001:0003ed20       ?ProcessWindowMessage@CMainFrame@@UAEHPAUHWND__@@IIJAAJK@Z 0043fd20 f i HydraIRC.obj
 0001:00040760       ?onWhereAreYou@CMainFrame@@QAEJIIJAAH@Z 00441760 f i HydraIRC.obj
 0001:00040780       ??_GCMainFrame@@UAEPAXI@Z  00441780 f i HydraIRC.obj
 0001:00040780       ??_ECMainFrame@@UAEPAXI@Z  00441780 f i HydraIRC.obj
 0001:000407b0       ??0?$CAutoHideMDIDockingFrameImpl@VCMainFrame@@VCHidingMDIWindow@@U?$CDockingFrameTraitsT@U?$CDockingWindowTraits@UCVC7LikeCaption@dockwins@@$0EGMAAAAA@$0IA@@dockwins@@V?$CSimpleSplitterBar@$02@2@$0GMPAAAA@$0EABAA@@dockwins@@U?$CDockingWindowTraits@UCVC7LikeCaption@dockwins@@$0EGMAAAAA@$0IA@@4@@dockwins@@QAE@XZ 004417b0 f i HydraIRC.obj
 0001:000407d0       ??1?$CAutoHideMDIDockingFrameImpl@VCMainFrame@@VCHidingMDIWindow@@U?$CDockingFrameTraitsT@U?$CDockingWindowTraits@UCVC7LikeCaption@dockwins@@$0EGMAAAAA@$0IA@@dockwins@@V?$CSimpleSplitterBar@$02@2@$0GMPAAAA@$0EABAA@@dockwins@@U?$CDockingWindowTraits@UCVC7LikeCaption@dockwins@@$0EGMAAAAA@$0IA@@4@@dockwins@@UAE@XZ 004417d0 f i HydraIRC.obj
 0001:000407f0       ??1?$CUpdateUI@VCMainFrame@@@WTL@@QAE@XZ 004417f0 f i HydraIRC.obj
 0001:00040810       ??0CMessageFilter@WTL@@QAE@XZ 00441810 f i HydraIRC.obj
 0001:00040830       ??0CIdleHandler@WTL@@QAE@XZ 00441830 f i HydraIRC.obj
 0001:00040850       ??0CTabbedMDICommandBarCtrl@@QAE@XZ 00441850 f i HydraIRC.obj
 0001:00040870       ??1CTabbedMDICommandBarCtrl@@UAE@XZ 00441870 f i HydraIRC.obj
 0001:00040890       ??1COutputView@@UAE@XZ     00441890 f i HydraIRC.obj
 0001:00040900       ??0CMultiPaneStatusBarCtrl@WTL@@QAE@XZ 00441900 f i HydraIRC.obj
 0001:00040920       ??1CMultiPaneStatusBarCtrl@WTL@@UAE@XZ 00441920 f i HydraIRC.obj
 0001:00040940       ??1?$CDockingFrameImplBase@VCMainFrame@@V?$CMDIFrameWindowImpl@VCMainFrame@@VCHidingMDIWindow@@U?$CDockingFrameTraitsT@U?$CDockingWindowTraits@UCVC7LikeCaption@dockwins@@$0EGMAAAAA@$0IA@@dockwins@@V?$CSimpleSplitterBar@$02@2@$0GMPAAAA@$0EABAA@@dockwins@@@WTL@@U?$CDockingFrameTraitsT@U?$CDockingWindowTraits@UCVC7LikeCaption@dockwins@@$0EGMAAAAA@$0IA@@dockwins@@V?$CSimpleSplitterBar@$02@2@$0GMPAAAA@$0EABAA@@dockwins@@U?$CDockingWindowTraits@UCVC7LikeCaption@dockwins@@$0EGMAAAAA@$0IA@@5@@dockwins@@UAE@XZ 00441940 f i HydraIRC.obj
 0001:000409d0       ??_GCTabbedMDICommandBarCtrl@@UAEPAXI@Z 004419d0 f i HydraIRC.obj
 0001:000409d0       ??_ECTabbedMDICommandBarCtrl@@UAEPAXI@Z 004419d0 f i HydraIRC.obj
 0001:00040a00       ??1?$CTabbedMDICommandBarCtrlImpl@VCTabbedMDICommandBarCtrl@@VCCommandBarCtrlBase@WTL@@V?$CWinTraits@$0FGAAAAAA@$0A@@ATL@@@@UAE@XZ 00441a00 f i HydraIRC.obj
 0001:00040a20       ??_GCMultiPaneStatusBarCtrl@WTL@@UAEPAXI@Z 00441a20 f i HydraIRC.obj
 0001:00040a20       ??_ECMultiPaneStatusBarCtrl@WTL@@UAEPAXI@Z 00441a20 f i HydraIRC.obj
 0001:00040a50       ??1?$CSubWndFramesPackage@V?$CPackageWindowFrame@U?$CDockingFrameTraitsT@U?$CDockingWindowTraits@UCVC7LikeCaption@dockwins@@$0EGMAAAAA@$0IA@@dockwins@@V?$CSimpleSplitterBar@$02@2@$0GMPAAAA@$0EABAA@@dockwins@@@dockwins@@U?$CDockingFrameTraitsT@U?$CDockingWindowTraits@UCVC7LikeCaption@dockwins@@$0EGMAAAAA@$0IA@@dockwins@@V?$CSimpleSplitterBar@$02@2@$0GMPAAAA@$0EABAA@@2@@dockwins@@QAE@XZ 00441a50 f i HydraIRC.obj
 0001:00040a70       ??1?$CAutoHideManager@U?$CDockingWindowTraits@UCVC7LikeCaption@dockwins@@$0EGMAAAAA@$0IA@@dockwins@@@dockwins@@UAE@XZ 00441a70 f i HydraIRC.obj
 0001:00040ae0       ??1CDockingFocusHandler@dockwins@@QAE@XZ 00441ae0 f i HydraIRC.obj
 0001:00040b40       ??1?$CFrameWindowImplBase@VCHidingMDIWindow@@U?$CDockingFrameTraitsT@U?$CDockingWindowTraits@UCVC7LikeCaption@dockwins@@$0EGMAAAAA@$0IA@@dockwins@@V?$CSimpleSplitterBar@$02@2@$0GMPAAAA@$0EABAA@@dockwins@@@WTL@@UAE@XZ 00441b40 f i HydraIRC.obj
 0001:00040b40       ??1?$CFrameWindowImplBase@VCMDIWindow@WTL@@V?$CWinTraits@$0FGMPAAAA@$0EA@@ATL@@@WTL@@UAE@XZ 00441b40 f i ChildFrm.obj
 0001:00040b60       ??1?$CWndFramesPackageBase@V?$CPtrFrame@UIFrame@dockwins@@@dockwins@@U?$CDockingFrameTraitsT@U?$CDockingWindowTraits@UCVC7LikeCaption@dockwins@@$0EGMAAAAA@$0IA@@dockwins@@V?$CSimpleSplitterBar@$02@2@$0GMPAAAA@$0EABAA@@2@@dockwins@@QAE@XZ 00441b60 f i HydraIRC.obj
 0001:00040b80       ??1?$CWindowImplBaseT@VCMDIWindow@WTL@@V?$CWinTraits@$0FGMPAAAA@$0EA@@ATL@@@ATL@@UAE@XZ 00441b80 f i ChildFrm.obj
 0001:00040b80       ??1?$CWindowImplBaseT@VCHidingMDIWindow@@U?$CDockingFrameTraitsT@U?$CDockingWindowTraits@UCVC7LikeCaption@dockwins@@$0EGMAAAAA@$0IA@@dockwins@@V?$CSimpleSplitterBar@$02@2@$0GMPAAAA@$0EABAA@@dockwins@@@ATL@@UAE@XZ 00441b80 f i HydraIRC.obj
 0001:00040ba0       ??1?$ssection@V?$CPtrFrame@UIFrame@dockwins@@@dockwins@@U?$CWndFrameTraits@V?$CPtrFrame@UIFrame@dockwins@@@dockwins@@$02@?$CWndFramesPackageBase@V?$CPtrFrame@UIFrame@dockwins@@@dockwins@@U?$CDockingFrameTraitsT@U?$CDockingWindowTraits@UCVC7LikeCaption@dockwins@@$0EGMAAAAA@$0IA@@dockwins@@V?$CSimpleSplitterBar@$02@2@$0GMPAAAA@$0EABAA@@2@@2@@ssec@@QAE@XZ 00441ba0 f i HydraIRC.obj
 0001:00040bc0       ??1?$CWindowImpl@VCServerListView@@VCWindow@ATL@@U?$CBoxedDockingWindowTraits@UCVC7LikeCaption@dockwins@@V?$CTabDockingBox@U?$CDockingBoxTraits@UCVC7LikeCaption@dockwins@@$0IGMPAAAA@$0IA@@dockwins@@@2@$0JGMPAAAA@$0IA@@dockwins@@@ATL@@UAE@XZ 00441bc0 f i HydraIRC.obj
 0001:00040bc0       ??1?$CWindowImpl@VCMultiPaneStatusBarCtrl@WTL@@V?$CStatusBarCtrlT@VCWindow@ATL@@@2@V?$CWinTraits@$0FGAAAAAA@$0A@@ATL@@@ATL@@UAE@XZ 00441bc0 f i HydraIRC.obj
 0001:00040bc0       ??1?$CWindowImpl@V?$CAutoHideManager@U?$CDockingWindowTraits@UCVC7LikeCaption@dockwins@@$0EGMAAAAA@$0IA@@dockwins@@@dockwins@@VCWindow@ATL@@U?$CDockingWindowTraits@UCVC7LikeCaption@dockwins@@$0EGMAAAAA@$0IA@@2@@ATL@@UAE@XZ 00441bc0 f i HydraIRC.obj
 0001:00040bc0       ??1?$CDialogImpl@VCEditBuddyGroupDlg@@VCWindow@ATL@@@ATL@@UAE@XZ 00441bc0 f i Prefs_BuddyGroupsPage.obj
 0001:00040bc0       ??1?$CDialogImpl@VCNotImplementedPage@@VCWindow@ATL@@@ATL@@UAE@XZ 00441bc0 f i MainFrm.obj
 0001:00040bc0       ??1?$CDialogImpl@VCFavoritesDlg@@VCWindow@ATL@@@ATL@@UAE@XZ 00441bc0 f i FavoritesDlg.obj
 0001:00040bc0       ??1?$CDialogImpl@VCBuddyGroupsPage@@VCWindow@ATL@@@ATL@@UAE@XZ 00441bc0 f i MainFrm.obj
 0001:00040bc0       ??1?$CWindowImpl@VCServerMonitorView@@VCWindow@ATL@@U?$CBoxedDockingWindowTraits@VCVC7LikeExCaption@dockwins@@V?$CTabDockingBox@U?$CDockingBoxTraits@VCVC7LikeExCaption@dockwins@@$0IGMPAAAA@$0IA@@dockwins@@@2@$0JGMPAAAA@$0IA@@dockwins@@@ATL@@UAE@XZ 00441bc0 f i HydraIRC.obj
 0001:00040bc0       ??1?$CWindowImpl@VCTransfersView@@VCWindow@ATL@@U?$CBoxedDockingWindowTraits@VCVC7LikeExCaption@dockwins@@V?$CTabDockingBox@U?$CDockingBoxTraits@VCVC7LikeExCaption@dockwins@@$0IGMPAAAA@$0IA@@dockwins@@@2@$0JGMPAAAA@$0IA@@dockwins@@@ATL@@UAE@XZ 00441bc0 f i Transfers.obj
 0001:00040bc0       ??1?$CWindowImpl@V?$CTabDockingBox@U?$CDockingBoxTraits@VCVC7LikeExCaption@dockwins@@$0IGMPAAAA@$0IA@@dockwins@@@dockwins@@VCWindow@ATL@@U?$CDockingBoxTraits@VCVC7LikeExCaption@dockwins@@$0IGMPAAAA@$0IA@@2@@ATL@@UAE@XZ 00441bc0 f i EventLogFrm.obj
 0001:00040bc0       ??1?$CDialogImpl@VCLoggingPage@@VCWindow@ATL@@@ATL@@UAE@XZ 00441bc0 f i MainFrm.obj
 0001:00040bc0       ??1?$CWindowImpl@VCIRCEditCtrl@@V?$CRichEditCtrlT@VCWindow@ATL@@@WTL@@V?$CWinTraits@$0FGAAAAAA@$0A@@ATL@@@ATL@@UAE@XZ 00441bc0 f i HeaderView.obj
 0001:00040bc0       ??1?$CDialogImpl@VCEditServerDetailsDlg@@VCWindow@ATL@@@ATL@@UAE@XZ 00441bc0 f i ConnectDlg.obj
 0001:00040bc0       ??1CCommonDialogImplBase@WTL@@UAE@XZ 00441bc0 f i EditNotificationDlg.obj
 0001:00040bc0       ??1?$CDialogImpl@VCChannelPropertiesDlg@@VCWindow@ATL@@@ATL@@UAE@XZ 00441bc0 f i ChannelPropertiesDlg.obj
 0001:00040bc0       ??1?$CWindowImpl@VCOutputView@@VCWindow@ATL@@U?$CBoxedDockingWindowTraits@VCVC7LikeExCaption@dockwins@@V?$CTabDockingBox@U?$CDockingBoxTraits@VCVC7LikeExCaption@dockwins@@$0IGMPAAAA@$0IA@@dockwins@@@2@$0JGMPAAAA@$0IA@@dockwins@@@ATL@@UAE@XZ 00441bc0 f i HydraIRC.obj
 0001:00040bc0       ??1?$CWindowImpl@VCInfoView@@V?$CRichEditCtrlT@VCWindow@ATL@@@WTL@@V?$CWinTraits@$0FGAAAAAA@$0A@@ATL@@@ATL@@UAE@XZ 00441bc0 f i ChildFrm.obj
 0001:00040bc0       ??1?$CDialogImpl@VCChannelListDlg@@VCWindow@ATL@@@ATL@@UAE@XZ 00441bc0 f i ChannelListDlg.obj
 0001:00040bc0       ??1?$CWindowImpl@V?$CTabDockingBox@U?$CDockingBoxTraits@UCVC7LikeCaption@dockwins@@$0IGMPAAAA@$0IA@@dockwins@@@dockwins@@VCWindow@ATL@@U?$CDockingBoxTraits@UCVC7LikeCaption@dockwins@@$0IGMPAAAA@$0IA@@2@@ATL@@UAE@XZ 00441bc0 f i ChildFrm.obj
 0001:00040bc0       ??1?$CWindowImpl@VCHeaderView@@VCWindow@ATL@@V?$CWinTraits@$0FGAAAAAA@$0A@@3@@ATL@@UAE@XZ 00441bc0 f i HeaderView.obj
 0001:00040bc0       ??1?$CDialogImpl@VCPrefsDlg@@VCWindow@ATL@@@ATL@@UAE@XZ 00441bc0 f i MainFrm.obj
 0001:00040bc0       ??1?$CWindowImpl@VCMsgView@@V?$CRichEditCtrlT@VCWindow@ATL@@@WTL@@V?$CWinTraits@$0FGAAAAAA@$0A@@ATL@@@ATL@@UAE@XZ 00441bc0 f i MsgView.obj
 0001:00040bc0       ??1?$CDialogImpl@VCEditNotificationDlg@@VCWindow@ATL@@@ATL@@UAE@XZ 00441bc0 f i Prefs_NotificationsPage.obj
 0001:00040bc0       ??1?$CDialogImpl@VCCommandProfilesPage@@VCWindow@ATL@@@ATL@@UAE@XZ 00441bc0 f i MainFrm.obj
 0001:00040bc0       ??1?$CDialogImpl@VCMessagesPage@@VCWindow@ATL@@@ATL@@UAE@XZ 00441bc0 f i MainFrm.obj
 0001:00040bc0       ??1?$CWindowImpl@V?$CHydraSplitterWindowT@$0A@@@VCWindow@ATL@@V?$CWinTraits@$0FGAAAAAA@$0A@@3@@ATL@@UAE@XZ 00441bc0 f i ChildFrm.obj
 0001:00040bc0       ??1?$CDialogImpl@VCUserIdentityDlg@@VCWindow@ATL@@@ATL@@UAE@XZ 00441bc0 f i ConnectDlg.obj
 0001:00040bc0       ??1?$CDialogImpl@VCIdentitiesPage@@VCWindow@ATL@@@ATL@@UAE@XZ 00441bc0 f i MainFrm.obj
 0001:00040bc0       ??1?$CWindowImpl@VCHydraPaneContainer@@VCWindow@ATL@@V?$CWinTraits@$0FGAAAAAA@$0A@@3@@ATL@@UAE@XZ 00441bc0 f i ChildFrm.obj
 0001:00040bc0       ??1?$CWindowImpl@VCFlyingTabCtrl@dockwins@@VCWindow@ATL@@V?$CWinTraits@$0FGAAEAAA@$0A@@4@@ATL@@UAE@XZ 00441bc0 f i ChildFrm.obj
 0001:00040bc0       ??1?$CDialogImpl@VCMiscPage@@VCWindow@ATL@@@ATL@@UAE@XZ 00441bc0 f i MainFrm.obj
 0001:00040bc0       ??1?$CDialogImpl@VCNotificationsPage@@VCWindow@ATL@@@ATL@@UAE@XZ 00441bc0 f i MainFrm.obj
 0001:00040bc0       ??1?$CDialogImpl@VCHighlightingPage@@VCWindow@ATL@@@ATL@@UAE@XZ 00441bc0 f i MainFrm.obj
 0001:00040bc0       ??1?$CWindowImpl@VCPropertyListWindow@@V?$CEditT@VCWindow@ATL@@@WTL@@V?$CWinTraits@$0FGAAAAAA@$0A@@ATL@@@ATL@@UAE@XZ 00441bc0 f i Prefs_MiscPage.obj
 0001:00040bc0       ??1?$CWindowImpl@V?$CMDITabOwner@V?$CDotNetTabCtrl@VCTabViewTabItem@@@@@@VCWindow@ATL@@V?$CWinTraits@$0FGAAAAAA@$0A@@3@@ATL@@UAE@XZ 00441bc0 f i HydraIRC.obj
 0001:00040bc0       ??1?$CWindowImpl@VCTextQueueView@@VCWindow@ATL@@U?$CBoxedDockingWindowTraits@VCVC7LikeExCaption@dockwins@@V?$CTabDockingBox@U?$CDockingBoxTraits@VCVC7LikeExCaption@dockwins@@$0IGMPAAAA@$0IA@@dockwins@@@2@$0JGMPAAAA@$0IA@@dockwins@@@ATL@@UAE@XZ 00441bc0 f i TextQueueFrm.obj
 0001:00040bc0       ??1?$CDialogImpl@VCFavoritesAddDlg@@VCWindow@ATL@@@ATL@@UAE@XZ 00441bc0 f i FavoritesDlg.obj
 0001:00040bc0       ??1?$CDialogImpl@VCAboutDlg@@VCWindow@ATL@@@ATL@@UAE@XZ 00441bc0 f i MainFrm.obj
 0001:00040bc0       ??1?$CWindowImpl@V?$CTVEditT@VCWindow@ATL@@@@V?$CEditT@VCWindow@ATL@@@WTL@@V?$CWinTraits@$0FGAAAAAA@$0A@@ATL@@@ATL@@UAE@XZ 00441bc0 f i FavoritesDlg.obj
 0001:00040bc0       ??1?$CWindowImpl@V?$CHydraSplitterWindowT@$00@@VCWindow@ATL@@V?$CWinTraits@$0FGAAAAAA@$0A@@3@@ATL@@UAE@XZ 00441bc0 f i ChildFrm.obj
 0001:00040bc0       ??1?$CDialogImpl@VCSelectChildPage@@VCWindow@ATL@@@ATL@@UAE@XZ 00441bc0 f i MainFrm.obj
 0001:00040bc0       ??1?$CWindowImpl@U?$CPackageWindowT@U?$CDockingFrameTraitsT@U?$CDockingWindowTraits@UCVC7LikeCaption@dockwins@@$0EGMAAAAA@$0IA@@dockwins@@V?$CSimpleSplitterBar@$02@2@$0GMPAAAA@$0EABAA@@dockwins@@@?$CPackageWindowFrame@U?$CDockingFrameTraitsT@U?$CDockingWindowTraits@UCVC7LikeCaption@dockwins@@$0EGMAAAAA@$0IA@@dockwins@@V?$CSimpleSplitterBar@$02@2@$0GMPAAAA@$0EABAA@@dockwins@@@dockwins@@VCWindow@ATL@@V?$CWinTraits@$0FGAAAAAA@$0A@@5@@ATL@@UAE@XZ 00441bc0 f i HydraIRC.obj
 0001:00040bc0       ??1?$CWindowImpl@VCTextInputView@@V?$CRichEditCtrlT@VCWindow@ATL@@@WTL@@V?$CWinTraits@$0FGAAAAAA@$0A@@ATL@@@ATL@@UAE@XZ 00441bc0 f i ChildFrm.obj
 0001:00040bc0       ??1?$CDialogImpl@VCAddNetworkDlg@@VCWindow@ATL@@@ATL@@UAE@XZ 00441bc0 f i ConnectDlg.obj
 0001:00040bc0       ??1?$CWindowImpl@VCPropertyEditWindow@@V?$CEditT@VCWindow@ATL@@@WTL@@V?$CWinTraits@$0FGAAAAAA@$0A@@ATL@@@ATL@@UAE@XZ 00441bc0 f i Prefs_MiscPage.obj
 0001:00040bc0       ??1?$CWindowImpl@VCUserListView@@VCWindow@ATL@@U?$CBoxedDockingWindowTraits@UCVC7LikeCaption@dockwins@@V?$CTabDockingBox@U?$CDockingBoxTraits@UCVC7LikeCaption@dockwins@@$0IGMPAAAA@$0IA@@dockwins@@@2@$0JGMPAAAA@$0IA@@dockwins@@@ATL@@UAE@XZ 00441bc0 f i ChildFrm.obj
 0001:00040bc0       ??1?$CDialogImpl@VCConnectDlg@@VCWindow@ATL@@@ATL@@UAE@XZ 00441bc0 f i ConnectDlg.obj
 0001:00040bc0       ??1?$CWindowImpl@VCEventLogView@@VCWindow@ATL@@U?$CBoxedDockingWindowTraits@VCVC7LikeExCaption@dockwins@@V?$CTabDockingBox@U?$CDockingBoxTraits@VCVC7LikeExCaption@dockwins@@$0IGMPAAAA@$0IA@@dockwins@@@2@$0JGMPAAAA@$0IA@@dockwins@@@ATL@@UAE@XZ 00441bc0 f i EventLogFrm.obj
 0001:00040bc0       ??1?$CFileDialogImpl@VCFileDialog@WTL@@@WTL@@UAE@XZ 00441bc0 f i ChildFrm.obj
 0001:00040bc0       ??1?$CWindowImpl@VCPropertyButtonWindow@@V?$CEditT@VCWindow@ATL@@@WTL@@V?$CWinTraits@$0FGAAAAAA@$0A@@ATL@@@ATL@@UAE@XZ 00441bc0 f i Prefs_MiscPage.obj
 0001:00040bc0       ??1?$CWindowImpl@VCPropertyListCtrl@@V?$CListBoxT@VCWindow@ATL@@@WTL@@V?$CWinTraitsOR@$0CB@$0A@V?$CWinTraits@$0FGAAAAAA@$0A@@ATL@@@ATL@@@ATL@@UAE@XZ 00441bc0 f i MainFrm.obj
 0001:00040bc0       ??1?$CWindowImpl@VCChannelMonitorView@@VCWindow@ATL@@U?$CBoxedDockingWindowTraits@VCVC7LikeExCaption@dockwins@@V?$CTabDockingBox@U?$CDockingBoxTraits@VCVC7LikeExCaption@dockwins@@$0IGMPAAAA@$0IA@@dockwins@@@2@$0JGMPAAAA@$0IA@@dockwins@@@ATL@@UAE@XZ 00441bc0 f i HydraIRC.obj
 0001:00040bc0       ??1?$CWindowImpl@V?$CDotNetTabCtrl@VCTabViewTabItem@@@@VCWindow@ATL@@V?$CWinTraits@$0FGAAEAAA@$0A@@3@@ATL@@UAE@XZ 00441bc0 f i HydraIRC.obj
 0001:00040bc0       ??1?$CWindowImpl@V?$CTabbedMDIClient@V?$CDotNetTabCtrl@VCTabViewTabItem@@@@V?$CMDITabOwner@V?$CDotNetTabCtrl@VCTabViewTabItem@@@@@@@@VCWindow@ATL@@V?$CWinTraits@$0FGAAAAAA@$0A@@3@@ATL@@UAE@XZ 00441bc0 f i HydraIRC.obj
 0001:00040bc0       ??1?$CWindowImpl@VCDlgContainerCtrl@@VCWindow@ATL@@V?$CWinTraits@$0FGAAAAAA@$0A@@3@@ATL@@UAE@XZ 00441bc0 f i MainFrm.obj
 0001:00040be0       ?Run@CMessageLoop@WTL@@QAEHXZ 00441be0 f i HydraIRC.obj
 0001:00040cd0       ?IsIdleMessage@CMessageLoop@WTL@@SAHPAUtagMSG@@@Z 00441cd0 f i HydraIRC.obj
 0001:00040d20       ?AddMessageLoop@CAppModule@WTL@@QAEHPAVCMessageLoop@2@@Z 00441d20 f i HydraIRC.obj
 0001:00040dd0       ?RemoveMessageLoop@CAppModule@WTL@@QAEHXZ 00441dd0 f i HydraIRC.obj
 0001:00040e80       ??0CMessageLoop@WTL@@QAE@XZ 00441e80 f i HydraIRC.obj
 0001:00040ef0       ?PreTranslateMessage@CMessageLoop@WTL@@UAEHPAUtagMSG@@@Z 00441ef0 f i HydraIRC.obj
 0001:00040f60       ?OnIdle@CMessageLoop@WTL@@UAEHH@Z 00441f60 f i HydraIRC.obj
 0001:00040fc0       ??1CMessageLoop@WTL@@QAE@XZ 00441fc0 f i HydraIRC.obj
 0001:00041020       ??0NotificationManager@@QAE@XZ 00442020 f i HydraIRC.obj
 0001:00041080       ??_GCPluginManager@@QAEPAXI@Z 00442080 f i HydraIRC.obj
 0001:000410b0       ??_GIdentd@@QAEPAXI@Z      004420b0 f i HydraIRC.obj
 0001:000410e0       ??_GCDNSResolver@@QAEPAXI@Z 004420e0 f i HydraIRC.obj
 0001:00041110       ??_GTransfersManager@@QAEPAXI@Z 00442110 f i HydraIRC.obj
 0001:00041140       ??1NoticeQueueManager@@QAE@XZ 00442140 f i HydraIRC.obj
 0001:00041140       ??1PrivMsgQueueManager@@QAE@XZ 00442140 f i HydraIRC.obj
 0001:00041140       ??1UrlCatcherManager@@QAE@XZ 00442140 f i HydraIRC.obj
 0001:000411d0       ??_GEventLogManager@@QAEPAXI@Z 004421d0 f i HydraIRC.obj
 0001:00041200       ??_GUrlCatcherManager@@QAEPAXI@Z 00442200 f i HydraIRC.obj
 0001:00041200       ??_GNoticeQueueManager@@QAEPAXI@Z 00442200 f i HydraIRC.obj
 0001:00041200       ??_GPrivMsgQueueManager@@QAEPAXI@Z 00442200 f i HydraIRC.obj
 0001:00041230       ??_GPrefs@@QAEPAXI@Z       00442230 f i HydraIRC.obj
 0001:00041260       ??_GActiveSettings@@QAEPAXI@Z 00442260 f i HydraIRC.obj
 0001:00041290       ??1ActiveSettings@@QAE@XZ  00442290 f i HydraIRC.obj
 0001:000412d0       ??_GNotificationManager@@QAEPAXI@Z 004422d0 f i HydraIRC.obj
 0001:00041300       ??0SingleInstance@@QAE@PAD@Z 00442300 f i HydraIRC.obj
 0001:00041330       ??1SingleInstance@@QAE@XZ  00442330 f i HydraIRC.obj
 0001:00041360       ?IsAnotherInstanceRunning@SingleInstance@@QAEHXZ 00442360 f i HydraIRC.obj
 0001:00041380       ?AtlInitCommonControls@WTL@@YAHK@Z 00442380 f i HydraIRC.obj
 0001:000413b0       ??0CDLLVersion@@QAE@PAD@Z  004423b0 f i HydraIRC.obj
 0001:00041460       ?GetFullVersion@CDLLVersion@@QAE?AV?$CStringT@DV?$StrTraitATL@DV?$ChTraitsCRT@D@ATL@@@ATL@@@ATL@@XZ 00442460 f i HydraIRC.obj
 0001:000414a0       ??_ECDLLVersion@@UAEPAXI@Z 004424a0 f i HydraIRC.obj
 0001:000414a0       ??_GCDLLVersion@@UAEPAXI@Z 004424a0 f i HydraIRC.obj
 0001:000414d0       ??1CDLLVersion@@UAE@XZ     004424d0 f i HydraIRC.obj
 0001:000414f0       ?Init@CAppModule@WTL@@QAEJPAU_ATL_OBJMAP_ENTRY30@ATL@@PAUHINSTANCE__@@PBU_GUID@@@Z 004424f0 f i HydraIRC.obj
 0001:00041600       ?Init@CComModule@ATL@@QAEJPAU_ATL_OBJMAP_ENTRY30@2@PAUHINSTANCE__@@PBU_GUID@@@Z 00442600 f i HydraIRC.obj
 0001:000416b0       ?Term@CAppModule@WTL@@QAEXXZ 004426b0 f i HydraIRC.obj
 0001:00041700       ?Term@CComModule@ATL@@QAEXXZ 00442700 f i HydraIRC.obj
 0001:000417a0       ?Term@CAtlModule@ATL@@QAEXXZ 004427a0 f i HydraIRC.obj
 0001:00041820       ?AtlCallTermFunc@ATL@@YGXPAU_ATL_MODULE70@1@@Z 00442820 f i HydraIRC.obj
 0001:00041890       ?TermSettingChangeNotify@CAppModule@WTL@@QAEXXZ 00442890 f i HydraIRC.obj
 0001:00041970       ??_G?$CSimpleArray@PAUHWND__@@V?$CSimpleArrayEqualHelper@PAUHWND__@@@ATL@@@ATL@@QAEPAXI@Z 00442970 f i HydraIRC.obj
 0001:000419a0       ?ExtTextOutA@?$CDCT@$00@WTL@@QAEHHHIPBUtagRECT@@PBDIPAH@Z 004429a0 f i HydraIRC.obj
 0001:000419f0       ?LoadBitmapA@?$CBitmapT@$00@WTL@@QAEPAUHBITMAP__@@V_U_STRINGorID@ATL@@@Z 004429f0 f i HydraIRC.obj
 0001:00041a20       ??0?$CMultiPaneStatusBarCtrlImpl@VCMultiPaneStatusBarCtrl@WTL@@V?$CStatusBarCtrlT@VCWindow@ATL@@@2@@WTL@@QAE@XZ 00442a20 f i HydraIRC.obj
 0001:00041a50       ??0?$CTabbedMDICommandBarCtrlImpl@VCTabbedMDICommandBarCtrl@@VCCommandBarCtrlBase@WTL@@V?$CWinTraits@$0FGAAAAAA@$0A@@ATL@@@@QAE@XZ 00442a50 f i HydraIRC.obj
 0001:00041a80       ?GetLibraryName@?$CRichEditCtrlT@VCWindow@ATL@@@WTL@@SAPBDXZ 00442a80 f i HydraIRC.obj
 0001:00041a90       ?ProcessWindowMessage@?$CBoxedDockingWindowBaseImpl@VCChannelMonitorView@@VCWindow@ATL@@U?$CBoxedDockingWindowTraits@VCVC7LikeExCaption@dockwins@@V?$CTabDockingBox@U?$CDockingBoxTraits@VCVC7LikeExCaption@dockwins@@$0IGMPAAAA@$0IA@@dockwins@@@2@$0JGMPAAAA@$0IA@@dockwins@@@dockwins@@UAEHPAUHWND__@@IIJAAJK@Z 00442a90 f i HydraIRC.obj
 0001:00041b60       ?ProcessWindowMessage@?$CTitleDockingWindowImpl@VCChannelMonitorView@@VCWindow@ATL@@U?$CBoxedDockingWindowTraits@VCVC7LikeExCaption@dockwins@@V?$CTabDockingBox@U?$CDockingBoxTraits@VCVC7LikeExCaption@dockwins@@$0IGMPAAAA@$0IA@@dockwins@@@2@$0JGMPAAAA@$0IA@@dockwins@@@dockwins@@UAEHPAUHWND__@@IIJAAJK@Z 00442b60 f i HydraIRC.obj
 0001:00041c30       ?ProcessWindowMessage@?$CTitleDockingWindowBaseImpl@VCChannelMonitorView@@VCWindow@ATL@@U?$CBoxedDockingWindowTraits@VCVC7LikeExCaption@dockwins@@V?$CTabDockingBox@U?$CDockingBoxTraits@VCVC7LikeExCaption@dockwins@@$0IGMPAAAA@$0IA@@dockwins@@@2@$0JGMPAAAA@$0IA@@dockwins@@@dockwins@@UAEHPAUHWND__@@IIJAAJK@Z 00442c30 f i HydraIRC.obj
 0001:00041fa0       ?DockMe@?$CDockingWindowBaseImpl@VCChannelMonitorView@@VCWindow@ATL@@U?$CBoxedDockingWindowTraits@VCVC7LikeExCaption@dockwins@@V?$CTabDockingBox@U?$CDockingBoxTraits@VCVC7LikeExCaption@dockwins@@$0IGMPAAAA@$0IA@@dockwins@@@2@$0JGMPAAAA@$0IA@@dockwins@@@dockwins@@UAE_NPAUtagDFDOCKRECT@2@@Z 00442fa0 f i HydraIRC.obj
 0001:00041fa0       ?DockMe@?$CDockingWindowBaseImpl@VCTransfersView@@VCWindow@ATL@@U?$CBoxedDockingWindowTraits@VCVC7LikeExCaption@dockwins@@V?$CTabDockingBox@U?$CDockingBoxTraits@VCVC7LikeExCaption@dockwins@@$0IGMPAAAA@$0IA@@dockwins@@@2@$0JGMPAAAA@$0IA@@dockwins@@@dockwins@@UAE_NPAUtagDFDOCKRECT@2@@Z 00442fa0 f i Transfers.obj
 0001:00041fa0       ?DockMe@?$CDockingWindowBaseImpl@VCEventLogView@@VCWindow@ATL@@U?$CBoxedDockingWindowTraits@VCVC7LikeExCaption@dockwins@@V?$CTabDockingBox@U?$CDockingBoxTraits@VCVC7LikeExCaption@dockwins@@$0IGMPAAAA@$0IA@@dockwins@@@2@$0JGMPAAAA@$0IA@@dockwins@@@dockwins@@UAE_NPAUtagDFDOCKRECT@2@@Z 00442fa0 f i EventLogFrm.obj
 0001:00041fa0       ?DockMe@?$CDockingWindowBaseImpl@VCUserListView@@VCWindow@ATL@@U?$CBoxedDockingWindowTraits@UCVC7LikeCaption@dockwins@@V?$CTabDockingBox@U?$CDockingBoxTraits@UCVC7LikeCaption@dockwins@@$0IGMPAAAA@$0IA@@dockwins@@@2@$0JGMPAAAA@$0IA@@dockwins@@@dockwins@@UAE_NPAUtagDFDOCKRECT@2@@Z 00442fa0 f i ChildFrm.obj
 0001:00041fa0       ?DockMe@?$CDockingWindowBaseImpl@VCServerMonitorView@@VCWindow@ATL@@U?$CBoxedDockingWindowTraits@VCVC7LikeExCaption@dockwins@@V?$CTabDockingBox@U?$CDockingBoxTraits@VCVC7LikeExCaption@dockwins@@$0IGMPAAAA@$0IA@@dockwins@@@2@$0JGMPAAAA@$0IA@@dockwins@@@dockwins@@UAE_NPAUtagDFDOCKRECT@2@@Z 00442fa0 f i HydraIRC.obj
 0001:00041fa0       ?DockMe@?$CDockingWindowBaseImpl@VCTextQueueView@@VCWindow@ATL@@U?$CBoxedDockingWindowTraits@VCVC7LikeExCaption@dockwins@@V?$CTabDockingBox@U?$CDockingBoxTraits@VCVC7LikeExCaption@dockwins@@$0IGMPAAAA@$0IA@@dockwins@@@2@$0JGMPAAAA@$0IA@@dockwins@@@dockwins@@UAE_NPAUtagDFDOCKRECT@2@@Z 00442fa0 f i TextQueueFrm.obj
 0001:00041fa0       ?DockMe@?$CDockingWindowBaseImpl@VCServerListView@@VCWindow@ATL@@U?$CBoxedDockingWindowTraits@UCVC7LikeCaption@dockwins@@V?$CTabDockingBox@U?$CDockingBoxTraits@UCVC7LikeCaption@dockwins@@$0IGMPAAAA@$0IA@@dockwins@@@2@$0JGMPAAAA@$0IA@@dockwins@@@dockwins@@UAE_NPAUtagDFDOCKRECT@2@@Z 00442fa0 f i HydraIRC.obj
 0001:00041fa0       ?DockMe@?$CDockingWindowBaseImpl@VCOutputView@@VCWindow@ATL@@U?$CBoxedDockingWindowTraits@VCVC7LikeExCaption@dockwins@@V?$CTabDockingBox@U?$CDockingBoxTraits@VCVC7LikeExCaption@dockwins@@$0IGMPAAAA@$0IA@@dockwins@@@2@$0JGMPAAAA@$0IA@@dockwins@@@dockwins@@UAE_NPAUtagDFDOCKRECT@2@@Z 00442fa0 f i Output.obj
 0001:00041fc0       ?ProcessWindowMessage@?$CDockingWindowBaseImpl@VCChannelMonitorView@@VCWindow@ATL@@U?$CBoxedDockingWindowTraits@VCVC7LikeExCaption@dockwins@@V?$CTabDockingBox@U?$CDockingBoxTraits@VCVC7LikeExCaption@dockwins@@$0IGMPAAAA@$0IA@@dockwins@@@2@$0JGMPAAAA@$0IA@@dockwins@@@dockwins@@UAEHPAUHWND__@@IIJAAJK@Z 00442fc0 f i HydraIRC.obj
 0001:00042150       ?ProcessWindowMessage@?$CBoxedDockingWindowBaseImpl@VCServerMonitorView@@VCWindow@ATL@@U?$CBoxedDockingWindowTraits@VCVC7LikeExCaption@dockwins@@V?$CTabDockingBox@U?$CDockingBoxTraits@VCVC7LikeExCaption@dockwins@@$0IGMPAAAA@$0IA@@dockwins@@@2@$0JGMPAAAA@$0IA@@dockwins@@@dockwins@@UAEHPAUHWND__@@IIJAAJK@Z 00443150 f i HydraIRC.obj
 0001:00042220       ?ProcessWindowMessage@?$CTitleDockingWindowImpl@VCServerMonitorView@@VCWindow@ATL@@U?$CBoxedDockingWindowTraits@VCVC7LikeExCaption@dockwins@@V?$CTabDockingBox@U?$CDockingBoxTraits@VCVC7LikeExCaption@dockwins@@$0IGMPAAAA@$0IA@@dockwins@@@2@$0JGMPAAAA@$0IA@@dockwins@@@dockwins@@UAEHPAUHWND__@@IIJAAJK@Z 00443220 f i HydraIRC.obj
 0001:000422f0       ?ProcessWindowMessage@?$CTitleDockingWindowBaseImpl@VCServerMonitorView@@VCWindow@ATL@@U?$CBoxedDockingWindowTraits@VCVC7LikeExCaption@dockwins@@V?$CTabDockingBox@U?$CDockingBoxTraits@VCVC7LikeExCaption@dockwins@@$0IGMPAAAA@$0IA@@dockwins@@@2@$0JGMPAAAA@$0IA@@dockwins@@@dockwins@@UAEHPAUHWND__@@IIJAAJK@Z 004432f0 f i HydraIRC.obj
 0001:00042660       ?ProcessWindowMessage@?$CDockingWindowBaseImpl@VCServerMonitorView@@VCWindow@ATL@@U?$CBoxedDockingWindowTraits@VCVC7LikeExCaption@dockwins@@V?$CTabDockingBox@U?$CDockingBoxTraits@VCVC7LikeExCaption@dockwins@@$0IGMPAAAA@$0IA@@dockwins@@@2@$0JGMPAAAA@$0IA@@dockwins@@@dockwins@@UAEHPAUHWND__@@IIJAAJK@Z 00443660 f i HydraIRC.obj
 0001:000427f0       ??0?$CSimpleArray@PAVIRCUser@@V?$CSimpleArrayEqualHelper@PAVIRCUser@@@ATL@@@ATL@@QAE@XZ 004437f0 f i Channel.obj
 0001:000427f0       ??0?$CSimpleArray@U_AtlDlgResizeData@?$CDialogResize@VCChannelPropertiesDlg@@@WTL@@V?$CSimpleArrayEqualHelper@U_AtlDlgResizeData@?$CDialogResize@VCChannelPropertiesDlg@@@WTL@@@ATL@@@ATL@@QAE@XZ 004437f0 f i ChannelPropertiesDlg.obj
 0001:000427f0       ??0?$CSimpleArray@U_AtlDlgResizeData@?$CDialogResize@VCPrefsDlg@@@WTL@@V?$CSimpleArrayEqualHelper@U_AtlDlgResizeData@?$CDialogResize@VCPrefsDlg@@@WTL@@@ATL@@@ATL@@QAE@XZ 004437f0 f i MainFrm.obj
 0001:000427f0       ??0?$CSimpleArray@PAVCTimerCommand@@V?$CSimpleArrayEqualHelper@PAVCTimerCommand@@@ATL@@@ATL@@QAE@XZ 004437f0 f i ChildFrm.obj
 0001:000427f0       ??0?$CSimpleArray@PAVIRCServerDetails@@V?$CSimpleArrayEqualHelper@PAVIRCServerDetails@@@ATL@@@ATL@@QAE@XZ 004437f0 f i HydraIRC.obj
 0001:000427f0       ??0?$CSimpleArray@U_AtlUpdateUIElement@CUpdateUIBase@WTL@@V?$CSimpleArrayEqualHelper@U_AtlUpdateUIElement@CUpdateUIBase@WTL@@@ATL@@@ATL@@QAE@XZ 004437f0 f i HydraIRC.obj
 0001:000427f0       ??0?$CSimpleArray@PAUHMENU__@@V?$CSimpleArrayEqualHelper@PAUHMENU__@@@ATL@@@ATL@@QAE@XZ 004437f0 f i HydraIRC.obj
 0001:000427f0       ??0?$CSimpleArray@PAVCChildCommon@@V?$CSimpleArrayEqualHelper@PAVCChildCommon@@@ATL@@@ATL@@QAE@XZ 004437f0 f i HydraIRC.obj
 0001:000427f0       ??0?$CSimpleArray@U_AtlDlgResizeData@?$CDialogResize@VCFavoritesDlg@@@WTL@@V?$CSimpleArrayEqualHelper@U_AtlDlgResizeData@?$CDialogResize@VCFavoritesDlg@@@WTL@@@ATL@@@ATL@@QAE@XZ 004437f0 f i FavoritesDlg.obj
 0001:000427f0       ??0?$CSimpleArray@U_AtlDlgResizeData@?$CDialogResize@VCHighlightingPage@@@WTL@@V?$CSimpleArrayEqualHelper@U_AtlDlgResizeData@?$CDialogResize@VCHighlightingPage@@@WTL@@@ATL@@@ATL@@QAE@XZ 004437f0 f i MainFrm.obj
 0001:000427f0       ??0?$CSimpleArray@PAVEventLogFilterGroup@@V?$CSimpleArrayEqualHelper@PAVEventLogFilterGroup@@@ATL@@@ATL@@QAE@XZ 004437f0 f i EventLogFrm.obj
 0001:000427f0       ??0?$CSimpleArray@PAVIRCQuery@@V?$CSimpleArrayEqualHelper@PAVIRCQuery@@@ATL@@@ATL@@QAE@XZ 004437f0 f i HydraIRC.obj
 0001:000427f0       ??0CNode@@QAE@XZ           004437f0 f i Channel.obj
 0001:000427f0       ??0?$CSimpleArray@PAUHWND__@@V?$CSimpleArrayEqualHelper@PAUHWND__@@@ATL@@@ATL@@QAE@XZ 004437f0 f i HydraIRC.obj
 0001:000427f0       ??0?$CSimpleArray@PAUNotificationPrefInfo_s@@V?$CSimpleArrayEqualHelper@PAUNotificationPrefInfo_s@@@ATL@@@ATL@@QAE@XZ 004437f0 f i Prefs.obj
 0001:000427f0       ??0?$CSimpleArray@U_AtlDlgResizeData@?$CDialogResize@VCChannelListDlg@@@WTL@@V?$CSimpleArrayEqualHelper@U_AtlDlgResizeData@?$CDialogResize@VCChannelListDlg@@@WTL@@@ATL@@@ATL@@QAE@XZ 004437f0 f i Server.obj
 0001:000427f0       ??0?$CSimpleArray@HV?$CSimpleArrayEqualHelper@H@ATL@@@ATL@@QAE@XZ 004437f0 f i EventLogFrm.obj
 0001:000427f0       ??0?$CSimpleArray@U_AtlDlgResizeData@?$CDialogResize@VCLoggingPage@@@WTL@@V?$CSimpleArrayEqualHelper@U_AtlDlgResizeData@?$CDialogResize@VCLoggingPage@@@WTL@@@ATL@@@ATL@@QAE@XZ 004437f0 f i MainFrm.obj
 0001:000427f0       ??0?$CSimpleArray@PAVIgnoreInfo@@V?$CSimpleArrayEqualHelper@PAVIgnoreInfo@@@ATL@@@ATL@@QAE@XZ 004437f0 f i Prefs.obj
 0001:000427f0       ??0?$CSimpleArray@PAVEventLogItem@@V?$CSimpleArrayEqualHelper@PAVEventLogItem@@@ATL@@@ATL@@QAE@XZ 004437f0 f i EventLog.obj
 0001:000427f0       ??0?$CSimpleArray@U_AtlDlgResizeData@?$CDialogResize@VCAddNetworkDlg@@@WTL@@V?$CSimpleArrayEqualHelper@U_AtlDlgResizeData@?$CDialogResize@VCAddNetworkDlg@@@WTL@@@ATL@@@ATL@@QAE@XZ 004437f0 f i ConnectDlg.obj
 0001:000427f0       ??0?$CSimpleArray@U_AtlDlgResizeData@?$CDialogResize@VCMessagesPage@@@WTL@@V?$CSimpleArrayEqualHelper@U_AtlDlgResizeData@?$CDialogResize@VCMessagesPage@@@WTL@@@ATL@@@ATL@@QAE@XZ 004437f0 f i MainFrm.obj
 0001:000427f0       ??0?$CSimpleArray@PAVCDCCTransfer@@V?$CSimpleArrayEqualHelper@PAVCDCCTransfer@@@ATL@@@ATL@@QAE@XZ 004437f0 f i Transfers.obj
 0001:000427f0       ??0?$CSimpleArray@U_AtlDlgResizeData@?$CDialogResize@VCIdentitiesPage@@@WTL@@V?$CSimpleArrayEqualHelper@U_AtlDlgResizeData@?$CDialogResize@VCIdentitiesPage@@@WTL@@@ATL@@@ATL@@QAE@XZ 004437f0 f i MainFrm.obj
 0001:000427f0       ??0?$CSimpleArray@PAVCChannelProperties@@V?$CSimpleArrayEqualHelper@PAVCChannelProperties@@@ATL@@@ATL@@QAE@XZ 004437f0 f i Server.obj
 0001:000427f0       ??0?$CSimpleArray@U_AtlDlgResizeData@?$CDialogResize@VCNotImplementedPage@@@WTL@@V?$CSimpleArrayEqualHelper@U_AtlDlgResizeData@?$CDialogResize@VCNotImplementedPage@@@WTL@@@ATL@@@ATL@@QAE@XZ 004437f0 f i MainFrm.obj
 0001:000427f0       ??0?$CSimpleArray@PAVWindowPrefs@@V?$CSimpleArrayEqualHelper@PAVWindowPrefs@@@ATL@@@ATL@@QAE@XZ 004437f0 f i Prefs.obj
 0001:000427f0       ??0?$CSimpleArray@PAVIRCUserGroup@@V?$CSimpleArrayEqualHelper@PAVIRCUserGroup@@@ATL@@@ATL@@QAE@XZ 004437f0 f i ChildFrm.obj
 0001:000427f0       ??0?$CSimpleArray@U_AtlDlgResizeData@?$CDialogResize@VCConnectDlg@@@WTL@@V?$CSimpleArrayEqualHelper@U_AtlDlgResizeData@?$CDialogResize@VCConnectDlg@@@WTL@@@ATL@@@ATL@@QAE@XZ 004437f0 f i ConnectDlg.obj
 0001:000427f0       ??0?$CSimpleArray@PAVIRCServer@@V?$CSimpleArrayEqualHelper@PAVIRCServer@@@ATL@@@ATL@@QAE@XZ 004437f0 f i HydraIRC.obj
 0001:000427f0       ??0?$CSimpleArray@U_AtlDlgResizeData@?$CDialogResize@VCFavoritesAddDlg@@@WTL@@V?$CSimpleArrayEqualHelper@U_AtlDlgResizeData@?$CDialogResize@VCFavoritesAddDlg@@@WTL@@@ATL@@@ATL@@QAE@XZ 004437f0 f i FavoritesDlg.obj
 0001:000427f0       ??0?$CSimpleArray@U_AtlDlgResizeData@?$CDialogResize@VCSelectChildPage@@@WTL@@V?$CSimpleArrayEqualHelper@U_AtlDlgResizeData@?$CDialogResize@VCSelectChildPage@@@WTL@@@ATL@@@ATL@@QAE@XZ 004437f0 f i MainFrm.obj
 0001:000427f0       ??0?$CSimpleArray@U_AtlDlgResizeData@?$CDialogResize@VCEditServerDetailsDlg@@@WTL@@V?$CSimpleArrayEqualHelper@U_AtlDlgResizeData@?$CDialogResize@VCEditServerDetailsDlg@@@WTL@@@ATL@@@ATL@@QAE@XZ 004437f0 f i ConnectDlg.obj
 0001:000427f0       ??0?$CSimpleArray@PAVIRCChannel@@V?$CSimpleArrayEqualHelper@PAVIRCChannel@@@ATL@@@ATL@@QAE@XZ 004437f0 f i HydraIRC.obj
 0001:000427f0       ??0?$CSimpleArray@PAVBufferItem@@V?$CSimpleArrayEqualHelper@PAVBufferItem@@@ATL@@@ATL@@QAE@XZ 004437f0 f i Channel.obj
 0001:000427f0       ??0?$CSimpleMap@PADPA_WVCExpansionVectorEqualHelper@ATL@@@ATL@@QAE@XZ 004437f0 f i HydraIRC.obj
 0001:000427f0       ??0?$CSimpleArray@PADV?$CSimpleArrayEqualHelper@PAD@ATL@@@ATL@@QAE@XZ 004437f0 f i ChildFrm.obj
 0001:000427f0       ??0?$CSimpleArray@PAVCCommandProfile@@V?$CSimpleArrayEqualHelper@PAVCCommandProfile@@@ATL@@@ATL@@QAE@XZ 004437f0 f i Prefs.obj
 0001:000427f0       ??0?$CSimpleArray@PAVCIdleHandler@WTL@@V?$CSimpleArrayEqualHelper@PAVCIdleHandler@WTL@@@ATL@@@ATL@@QAE@XZ 004437f0 f i HydraIRC.obj
 0001:000427f0       ??0?$CSimpleArray@GV?$CSimpleArrayEqualHelper@G@ATL@@@ATL@@QAE@XZ 004437f0 f i HydraIRC.obj
 0001:000427f0       ??0?$CSimpleArray@U_AtlDlgResizeData@?$CDialogResize@VCMiscPage@@@WTL@@V?$CSimpleArrayEqualHelper@U_AtlDlgResizeData@?$CDialogResize@VCMiscPage@@@WTL@@@ATL@@@ATL@@QAE@XZ 004437f0 f i MainFrm.obj
 0001:000427f0       ??0?$CSimpleArray@VCComBSTR@ATL@@V?$CSimpleArrayEqualHelper@VCComBSTR@ATL@@@2@@ATL@@QAE@XZ 004437f0 f i Prefs_MiscPage.obj
 0001:000427f0       ??0?$CSimpleArray@PAVUserIdentity@@V?$CSimpleArrayEqualHelper@PAVUserIdentity@@@ATL@@@ATL@@QAE@XZ 004437f0 f i Prefs.obj
 0001:000427f0       ??0?$CSimpleMap@KPAVCMessageLoop@WTL@@V?$CSimpleMapEqualHelper@KPAVCMessageLoop@WTL@@@ATL@@@ATL@@QAE@XZ 004437f0 f i HydraIRC.obj
 0001:000427f0       ??0?$CSimpleArray@U_AtlDlgResizeData@?$CDialogResize@VCEditBuddyGroupDlg@@@WTL@@V?$CSimpleArrayEqualHelper@U_AtlDlgResizeData@?$CDialogResize@VCEditBuddyGroupDlg@@@WTL@@@ATL@@@ATL@@QAE@XZ 004437f0 f i Prefs_BuddyGroupsPage.obj
 0001:000427f0       ??0?$CSimpleArray@PAUNotificationEvent_s@@V?$CSimpleArrayEqualHelper@PAUNotificationEvent_s@@@ATL@@@ATL@@QAE@XZ 004437f0 f i HydraIRC.obj
 0001:000427f0       ??0?$CSimpleArray@PAVCMessageFilter@WTL@@V?$CSimpleArrayEqualHelper@PAVCMessageFilter@WTL@@@ATL@@@ATL@@QAE@XZ 004437f0 f i HydraIRC.obj
 0001:000427f0       ??0?$CSimpleArray@PAVCPrefsPage@@V?$CSimpleArrayEqualHelper@PAVCPrefsPage@@@ATL@@@ATL@@QAE@XZ 004437f0 f i MainFrm.obj
 0001:000427f0       ??0?$CSimpleArray@PAVTextQueueItem@@V?$CSimpleArrayEqualHelper@PAVTextQueueItem@@@ATL@@@ATL@@QAE@XZ 004437f0 f i TextQueue.obj
 0001:000427f0       ??0?$CSimpleMap@KPAU_MsgHookData@CCommandBarCtrlBase@WTL@@V?$CSimpleMapEqualHelper@KPAU_MsgHookData@CCommandBarCtrlBase@WTL@@@ATL@@@ATL@@QAE@XZ 004437f0 f i HydraIRC.obj
 0001:000427f0       ??0?$CSimpleArray@U_AtlDlgResizeData@?$CDialogResize@VCCommandProfilesPage@@@WTL@@V?$CSimpleArrayEqualHelper@U_AtlDlgResizeData@?$CDialogResize@VCCommandProfilesPage@@@WTL@@@ATL@@@ATL@@QAE@XZ 004437f0 f i MainFrm.obj
 0001:000427f0       ??0?$CSimpleArray@U_AtlDlgResizeData@?$CDialogResize@VCEditNotificationDlg@@@WTL@@V?$CSimpleArrayEqualHelper@U_AtlDlgResizeData@?$CDialogResize@VCEditNotificationDlg@@@WTL@@@ATL@@@ATL@@QAE@XZ 004437f0 f i Prefs_NotificationsPage.obj
 0001:000427f0       ??0?$CSimpleArray@U_AtlDlgResizeData@?$CDialogResize@VCBuddyGroupsPage@@@WTL@@V?$CSimpleArrayEqualHelper@U_AtlDlgResizeData@?$CDialogResize@VCBuddyGroupsPage@@@WTL@@@ATL@@@ATL@@QAE@XZ 004437f0 f i MainFrm.obj
 0001:000427f0       ??0?$CSimpleArray@PAVIRCNetworkDetails@@V?$CSimpleArrayEqualHelper@PAVIRCNetworkDetails@@@ATL@@@ATL@@QAE@XZ 004437f0 f i HydraIRC.obj
 0001:000427f0       ??0?$CSimpleArray@PAVTreeItemInfo@@V?$CSimpleArrayEqualHelper@PAVTreeItemInfo@@@ATL@@@ATL@@QAE@XZ 004437f0 f i ChildFrm.obj
 0001:000427f0       ??0?$CSimpleArray@PAVIProperty@@V?$CSimpleArrayEqualHelper@PAVIProperty@@@ATL@@@ATL@@QAE@XZ 004437f0 f i Prefs_MiscPage.obj
 0001:000427f0       ??0?$CSimpleArray@U_AtlDlgResizeData@?$CDialogResize@VCNotificationsPage@@@WTL@@V?$CSimpleArrayEqualHelper@U_AtlDlgResizeData@?$CDialogResize@VCNotificationsPage@@@WTL@@@ATL@@@ATL@@QAE@XZ 004437f0 f i MainFrm.obj
 0001:000427f0       ??0?$CSimpleArray@PAVCListener@@V?$CSimpleArrayEqualHelper@PAVCListener@@@ATL@@@ATL@@QAE@XZ 004437f0 f i EventManager.obj
 0001:000427f0       ??0?$CSimpleArray@PAVThemeHandle@@V?$CSimpleArrayEqualHelper@PAVThemeHandle@@@ATL@@@ATL@@QAE@XZ 004437f0 f i HydraIRC.obj
 0001:00042820       ?ProcessWindowMessage@?$CBoxedDockingWindowBaseImpl@VCServerListView@@VCWindow@ATL@@U?$CBoxedDockingWindowTraits@UCVC7LikeCaption@dockwins@@V?$CTabDockingBox@U?$CDockingBoxTraits@UCVC7LikeCaption@dockwins@@$0IGMPAAAA@$0IA@@dockwins@@@2@$0JGMPAAAA@$0IA@@dockwins@@@dockwins@@UAEHPAUHWND__@@IIJAAJK@Z 00443820 f i HydraIRC.obj
 0001:000428f0       ??0?$CTitleDockingWindowImpl@VCServerListView@@VCWindow@ATL@@U?$CBoxedDockingWindowTraits@UCVC7LikeCaption@dockwins@@V?$CTabDockingBox@U?$CDockingBoxTraits@UCVC7LikeCaption@dockwins@@$0IGMPAAAA@$0IA@@dockwins@@@2@$0JGMPAAAA@$0IA@@dockwins@@@dockwins@@QAE@XZ 004438f0 f i HydraIRC.obj
 0001:000428f0       ??0?$CTitleDockingWindowImpl@V?$CTabDockingBox@U?$CDockingBoxTraits@UCVC7LikeCaption@dockwins@@$0IGMPAAAA@$0IA@@dockwins@@@dockwins@@VCWindow@ATL@@U?$CDockingBoxTraits@UCVC7LikeCaption@dockwins@@$0IGMPAAAA@$0IA@@2@@dockwins@@QAE@XZ 004438f0 f i ChildFrm.obj
 0001:000428f0       ??0?$CTitleDockingWindowImpl@VCUserListView@@VCWindow@ATL@@U?$CBoxedDockingWindowTraits@UCVC7LikeCaption@dockwins@@V?$CTabDockingBox@U?$CDockingBoxTraits@UCVC7LikeCaption@dockwins@@$0IGMPAAAA@$0IA@@dockwins@@@2@$0JGMPAAAA@$0IA@@dockwins@@@dockwins@@QAE@XZ 004438f0 f i ChildFrm.obj
 0001:00042930       ?Hide@?$CTitleDockingWindowImpl@VCServerListView@@VCWindow@ATL@@U?$CBoxedDockingWindowTraits@UCVC7LikeCaption@dockwins@@V?$CTabDockingBox@U?$CDockingBoxTraits@UCVC7LikeCaption@dockwins@@$0IGMPAAAA@$0IA@@dockwins@@@2@$0JGMPAAAA@$0IA@@dockwins@@@dockwins@@UAE_NXZ 00443930 f i HydraIRC.obj
 0001:00042930       ?Hide@?$CTitleDockingWindowImpl@VCUserListView@@VCWindow@ATL@@U?$CBoxedDockingWindowTraits@UCVC7LikeCaption@dockwins@@V?$CTabDockingBox@U?$CDockingBoxTraits@UCVC7LikeCaption@dockwins@@$0IGMPAAAA@$0IA@@dockwins@@@2@$0JGMPAAAA@$0IA@@dockwins@@@dockwins@@UAE_NXZ 00443930 f i ChildFrm.obj
 0001:00042930       ?Hide@?$CTitleDockingWindowImpl@V?$CTabDockingBox@U?$CDockingBoxTraits@VCVC7LikeExCaption@dockwins@@$0IGMPAAAA@$0IA@@dockwins@@@dockwins@@VCWindow@ATL@@U?$CDockingBoxTraits@VCVC7LikeExCaption@dockwins@@$0IGMPAAAA@$0IA@@2@@dockwins@@UAE_NXZ 00443930 f i EventLogFrm.obj
 0001:00042930       ?Hide@?$CTitleDockingWindowImpl@VCTransfersView@@VCWindow@ATL@@U?$CBoxedDockingWindowTraits@VCVC7LikeExCaption@dockwins@@V?$CTabDockingBox@U?$CDockingBoxTraits@VCVC7LikeExCaption@dockwins@@$0IGMPAAAA@$0IA@@dockwins@@@2@$0JGMPAAAA@$0IA@@dockwins@@@dockwins@@UAE_NXZ 00443930 f i Transfers.obj
 0001:00042930       ?Hide@?$CTitleDockingWindowImpl@VCOutputView@@VCWindow@ATL@@U?$CBoxedDockingWindowTraits@VCVC7LikeExCaption@dockwins@@V?$CTabDockingBox@U?$CDockingBoxTraits@VCVC7LikeExCaption@dockwins@@$0IGMPAAAA@$0IA@@dockwins@@@2@$0JGMPAAAA@$0IA@@dockwins@@@dockwins@@UAE_NXZ 00443930 f i Output.obj
 0001:00042930       ?Hide@?$CTitleDockingWindowImpl@VCTextQueueView@@VCWindow@ATL@@U?$CBoxedDockingWindowTraits@VCVC7LikeExCaption@dockwins@@V?$CTabDockingBox@U?$CDockingBoxTraits@VCVC7LikeExCaption@dockwins@@$0IGMPAAAA@$0IA@@dockwins@@@2@$0JGMPAAAA@$0IA@@dockwins@@@dockwins@@UAE_NXZ 00443930 f i TextQueueFrm.obj
 0001:00042930       ?Hide@?$CTitleDockingWindowImpl@VCChannelMonitorView@@VCWindow@ATL@@U?$CBoxedDockingWindowTraits@VCVC7LikeExCaption@dockwins@@V?$CTabDockingBox@U?$CDockingBoxTraits@VCVC7LikeExCaption@dockwins@@$0IGMPAAAA@$0IA@@dockwins@@@2@$0JGMPAAAA@$0IA@@dockwins@@@dockwins@@UAE_NXZ 00443930 f i HydraIRC.obj
 0001:00042930       ?Hide@?$CTitleDockingWindowImpl@VCServerMonitorView@@VCWindow@ATL@@U?$CBoxedDockingWindowTraits@VCVC7LikeExCaption@dockwins@@V?$CTabDockingBox@U?$CDockingBoxTraits@VCVC7LikeExCaption@dockwins@@$0IGMPAAAA@$0IA@@dockwins@@@2@$0JGMPAAAA@$0IA@@dockwins@@@dockwins@@UAE_NXZ 00443930 f i HydraIRC.obj
 0001:00042930       ?Hide@?$CTitleDockingWindowImpl@V?$CTabDockingBox@U?$CDockingBoxTraits@UCVC7LikeCaption@dockwins@@$0IGMPAAAA@$0IA@@dockwins@@@dockwins@@VCWindow@ATL@@U?$CDockingBoxTraits@UCVC7LikeCaption@dockwins@@$0IGMPAAAA@$0IA@@2@@dockwins@@UAE_NXZ 00443930 f i ChildFrm.obj
 0001:00042930       ?Hide@?$CTitleDockingWindowImpl@VCEventLogView@@VCWindow@ATL@@U?$CBoxedDockingWindowTraits@VCVC7LikeExCaption@dockwins@@V?$CTabDockingBox@U?$CDockingBoxTraits@VCVC7LikeExCaption@dockwins@@$0IGMPAAAA@$0IA@@dockwins@@@2@$0JGMPAAAA@$0IA@@dockwins@@@dockwins@@UAE_NXZ 00443930 f i EventLogFrm.obj
 0001:000429d0       ?Toggle@?$CTitleDockingWindowImpl@VCUserListView@@VCWindow@ATL@@U?$CBoxedDockingWindowTraits@UCVC7LikeCaption@dockwins@@V?$CTabDockingBox@U?$CDockingBoxTraits@UCVC7LikeCaption@dockwins@@$0IGMPAAAA@$0IA@@dockwins@@@2@$0JGMPAAAA@$0IA@@dockwins@@@dockwins@@QAE_NXZ 004439d0 f i HydraIRC.obj
 0001:000429d0       ?Toggle@?$CTitleDockingWindowImpl@VCServerListView@@VCWindow@ATL@@U?$CBoxedDockingWindowTraits@UCVC7LikeCaption@dockwins@@V?$CTabDockingBox@U?$CDockingBoxTraits@UCVC7LikeCaption@dockwins@@$0IGMPAAAA@$0IA@@dockwins@@@2@$0JGMPAAAA@$0IA@@dockwins@@@dockwins@@QAE_NXZ 004439d0 f i HydraIRC.obj
 0001:000429d0       ?Toggle@?$CTitleDockingWindowImpl@VCChannelMonitorView@@VCWindow@ATL@@U?$CBoxedDockingWindowTraits@VCVC7LikeExCaption@dockwins@@V?$CTabDockingBox@U?$CDockingBoxTraits@VCVC7LikeExCaption@dockwins@@$0IGMPAAAA@$0IA@@dockwins@@@2@$0JGMPAAAA@$0IA@@dockwins@@@dockwins@@QAE_NXZ 004439d0 f i HydraIRC.obj
 0001:000429d0       ?Toggle@?$CTitleDockingWindowImpl@VCServerMonitorView@@VCWindow@ATL@@U?$CBoxedDockingWindowTraits@VCVC7LikeExCaption@dockwins@@V?$CTabDockingBox@U?$CDockingBoxTraits@VCVC7LikeExCaption@dockwins@@$0IGMPAAAA@$0IA@@dockwins@@@2@$0JGMPAAAA@$0IA@@dockwins@@@dockwins@@QAE_NXZ 004439d0 f i HydraIRC.obj
 0001:000429d0       ?Toggle@?$CTitleDockingWindowImpl@VCEventLogView@@VCWindow@ATL@@U?$CBoxedDockingWindowTraits@VCVC7LikeExCaption@dockwins@@V?$CTabDockingBox@U?$CDockingBoxTraits@VCVC7LikeExCaption@dockwins@@$0IGMPAAAA@$0IA@@dockwins@@@2@$0JGMPAAAA@$0IA@@dockwins@@@dockwins@@QAE_NXZ 004439d0 f i HydraIRC.obj
 0001:000429d0       ?Toggle@?$CTitleDockingWindowImpl@VCOutputView@@VCWindow@ATL@@U?$CBoxedDockingWindowTraits@VCVC7LikeExCaption@dockwins@@V?$CTabDockingBox@U?$CDockingBoxTraits@VCVC7LikeExCaption@dockwins@@$0IGMPAAAA@$0IA@@dockwins@@@2@$0JGMPAAAA@$0IA@@dockwins@@@dockwins@@QAE_NXZ 004439d0 f i HydraIRC.obj
 0001:000429d0       ?Toggle@?$CTitleDockingWindowImpl@VCTextQueueView@@VCWindow@ATL@@U?$CBoxedDockingWindowTraits@VCVC7LikeExCaption@dockwins@@V?$CTabDockingBox@U?$CDockingBoxTraits@VCVC7LikeExCaption@dockwins@@$0IGMPAAAA@$0IA@@dockwins@@@2@$0JGMPAAAA@$0IA@@dockwins@@@dockwins@@QAE_NXZ 004439d0 f i HydraIRC.obj
 0001:000429d0       ?Toggle@?$CTitleDockingWindowImpl@VCTransfersView@@VCWindow@ATL@@U?$CBoxedDockingWindowTraits@VCVC7LikeExCaption@dockwins@@V?$CTabDockingBox@U?$CDockingBoxTraits@VCVC7LikeExCaption@dockwins@@$0IGMPAAAA@$0IA@@dockwins@@@2@$0JGMPAAAA@$0IA@@dockwins@@@dockwins@@QAE_NXZ 004439d0 f i HydraIRC.obj
 0001:00042a30       ?ProcessWindowMessage@?$CTitleDockingWindowImpl@VCServerListView@@VCWindow@ATL@@U?$CBoxedDockingWindowTraits@UCVC7LikeCaption@dockwins@@V?$CTabDockingBox@U?$CDockingBoxTraits@UCVC7LikeCaption@dockwins@@$0IGMPAAAA@$0IA@@dockwins@@@2@$0JGMPAAAA@$0IA@@dockwins@@@dockwins@@UAEHPAUHWND__@@IIJAAJK@Z 00443a30 f i HydraIRC.obj
 0001:00042b00       ?ProcessWindowMessage@?$CTitleDockingWindowBaseImpl@VCServerListView@@VCWindow@ATL@@U?$CBoxedDockingWindowTraits@UCVC7LikeCaption@dockwins@@V?$CTabDockingBox@U?$CDockingBoxTraits@UCVC7LikeCaption@dockwins@@$0IGMPAAAA@$0IA@@dockwins@@@2@$0JGMPAAAA@$0IA@@dockwins@@@dockwins@@UAEHPAUHWND__@@IIJAAJK@Z 00443b00 f i HydraIRC.obj
 0001:00042e70       ?ProcessWindowMessage@?$CDockingWindowBaseImpl@VCServerListView@@VCWindow@ATL@@U?$CBoxedDockingWindowTraits@UCVC7LikeCaption@dockwins@@V?$CTabDockingBox@U?$CDockingBoxTraits@UCVC7LikeCaption@dockwins@@$0IGMPAAAA@$0IA@@dockwins@@@2@$0JGMPAAAA@$0IA@@dockwins@@@dockwins@@UAEHPAUHWND__@@IIJAAJK@Z 00443e70 f i HydraIRC.obj
 0001:00043000       ??0?$CDockingFrameImplBase@VCMainFrame@@V?$CMDIFrameWindowImpl@VCMainFrame@@VCHidingMDIWindow@@U?$CDockingFrameTraitsT@U?$CDockingWindowTraits@UCVC7LikeCaption@dockwins@@$0EGMAAAAA@$0IA@@dockwins@@V?$CSimpleSplitterBar@$02@2@$0GMPAAAA@$0EABAA@@dockwins@@@WTL@@U?$CDockingFrameTraitsT@U?$CDockingWindowTraits@UCVC7LikeCaption@dockwins@@$0EGMAAAAA@$0IA@@dockwins@@V?$CSimpleSplitterBar@$02@2@$0GMPAAAA@$0EABAA@@dockwins@@U?$CDockingWindowTraits@UCVC7LikeCaption@dockwins@@$0EGMAAAAA@$0IA@@5@@dockwins@@QAE@XZ 00444000 f i HydraIRC.obj
 0001:000430b0       ?ProcessWindowMessage@?$CDockingFrameImplBase@VCMainFrame@@V?$CMDIFrameWindowImpl@VCMainFrame@@VCHidingMDIWindow@@U?$CDockingFrameTraitsT@U?$CDockingWindowTraits@UCVC7LikeCaption@dockwins@@$0EGMAAAAA@$0IA@@dockwins@@V?$CSimpleSplitterBar@$02@2@$0GMPAAAA@$0EABAA@@dockwins@@@WTL@@U?$CDockingFrameTraitsT@U?$CDockingWindowTraits@UCVC7LikeCaption@dockwins@@$0EGMAAAAA@$0IA@@dockwins@@V?$CSimpleSplitterBar@$02@2@$0GMPAAAA@$0EABAA@@dockwins@@U?$CDockingWindowTraits@UCVC7LikeCaption@dockwins@@$0EGMAAAAA@$0IA@@5@@dockwins@@UAEHPAUHWND__@@IIJAAJK@Z 004440b0 f i HydraIRC.obj
 0001:00043400       ?CreateEx@?$CMDIFrameWindowImpl@VCMainFrame@@VCHidingMDIWindow@@U?$CDockingFrameTraitsT@U?$CDockingWindowTraits@UCVC7LikeCaption@dockwins@@$0EGMAAAAA@$0IA@@dockwins@@V?$CSimpleSplitterBar@$02@2@$0GMPAAAA@$0EABAA@@dockwins@@@WTL@@QAEPAUHWND__@@PAU3@V_U_RECT@ATL@@KKPAX@Z 00444400 f i HydraIRC.obj
 0001:000434d0       ?GetWndClassInfo@CMainFrame@@SAAAVCFrameWndClassInfo@WTL@@XZ 004444d0 f i HydraIRC.obj
 0001:000434e0       ?GetWindowProc@?$CMDIFrameWindowImpl@VCMainFrame@@VCHidingMDIWindow@@U?$CDockingFrameTraitsT@U?$CDockingWindowTraits@UCVC7LikeCaption@dockwins@@$0EGMAAAAA@$0IA@@dockwins@@V?$CSimpleSplitterBar@$02@2@$0GMPAAAA@$0EABAA@@dockwins@@@WTL@@UAEP6GJPAUHWND__@@IIJ@ZXZ 004444e0 f i HydraIRC.obj
 0001:000434f0       ?ProcessWindowMessage@?$CMDIFrameWindowImpl@VCMainFrame@@VCHidingMDIWindow@@U?$CDockingFrameTraitsT@U?$CDockingWindowTraits@UCVC7LikeCaption@dockwins@@$0EGMAAAAA@$0IA@@dockwins@@V?$CSimpleSplitterBar@$02@2@$0GMPAAAA@$0EABAA@@dockwins@@@WTL@@UAEHPAUHWND__@@IIJAAJK@Z 004444f0 f i HydraIRC.obj
 0001:00043680       ??1?$CWindowImplRoot@VCHidingMDIWindow@@@ATL@@UAE@XZ 00444680 f i HydraIRC.obj
 0001:00043680       ??1?$CWindowImplRoot@VCMDIWindow@WTL@@@ATL@@UAE@XZ 00444680 f i ChildFrm.obj
 0001:000436a0       ??1?$deque@V?$CPtrFrame@UIFrame@dockwins@@@dockwins@@V?$allocator@V?$CPtrFrame@UIFrame@dockwins@@@dockwins@@@std@@@std@@QAE@XZ 004446a0 f i HydraIRC.obj
 0001:00043700       ??0?$CUpdateUI@VCMainFrame@@@WTL@@QAE@XZ 00444700 f i HydraIRC.obj
 0001:00043820       ?GetUpdateUIMap@CMainFrame@@SAPBU_AtlUpdateUIMap@CUpdateUIBase@WTL@@XZ 00444820 f i HydraIRC.obj
 0001:00043830       ??0?$CTabbedMDIClient@V?$CDotNetTabCtrl@VCTabViewTabItem@@@@V?$CMDITabOwner@V?$CDotNetTabCtrl@VCTabViewTabItem@@@@@@@@QAE@XZ 00444830 f i HydraIRC.obj
 0001:000438f0       ??1?$CTabbedMDIClient@V?$CDotNetTabCtrl@VCTabViewTabItem@@@@V?$CMDITabOwner@V?$CDotNetTabCtrl@VCTabViewTabItem@@@@@@@@UAE@XZ 004448f0 f i HydraIRC.obj
 0001:00043980       ?ProcessWindowMessage@?$CTabbedMDIClient@V?$CDotNetTabCtrl@VCTabViewTabItem@@@@V?$CMDITabOwner@V?$CDotNetTabCtrl@VCTabViewTabItem@@@@@@@@UAEHPAUHWND__@@IIJAAJK@Z 00444980 f i HydraIRC.obj
 0001:00043c80       ??0?$CTitleDockingWindowBaseImpl@V?$CTabDockingBox@U?$CDockingBoxTraits@UCVC7LikeCaption@dockwins@@$0IGMPAAAA@$0IA@@dockwins@@@dockwins@@VCWindow@ATL@@U?$CDockingBoxTraits@UCVC7LikeCaption@dockwins@@$0IGMPAAAA@$0IA@@2@@dockwins@@QAE@XZ 00444c80 f i ChildFrm.obj
 0001:00043c80       ??0?$CTitleDockingWindowBaseImpl@VCServerListView@@VCWindow@ATL@@U?$CBoxedDockingWindowTraits@UCVC7LikeCaption@dockwins@@V?$CTabDockingBox@U?$CDockingBoxTraits@UCVC7LikeCaption@dockwins@@$0IGMPAAAA@$0IA@@dockwins@@@2@$0JGMPAAAA@$0IA@@dockwins@@@dockwins@@QAE@XZ 00444c80 f i HydraIRC.obj
 0001:00043c80       ??0?$CTitleDockingWindowBaseImpl@VCUserListView@@VCWindow@ATL@@U?$CBoxedDockingWindowTraits@UCVC7LikeCaption@dockwins@@V?$CTabDockingBox@U?$CDockingBoxTraits@UCVC7LikeCaption@dockwins@@$0IGMPAAAA@$0IA@@dockwins@@@2@$0JGMPAAAA@$0IA@@dockwins@@@dockwins@@QAE@XZ 00444c80 f i ChildFrm.obj
 0001:00043ce0       ??0?$CMDIFrameWindowImpl@VCMainFrame@@VCHidingMDIWindow@@U?$CDockingFrameTraitsT@U?$CDockingWindowTraits@UCVC7LikeCaption@dockwins@@$0EGMAAAAA@$0IA@@dockwins@@V?$CSimpleSplitterBar@$02@2@$0GMPAAAA@$0EABAA@@dockwins@@@WTL@@QAE@XZ 00444ce0 f i HydraIRC.obj
 0001:00043d00       ??_E?$CTabbedMDIClient@V?$CDotNetTabCtrl@VCTabViewTabItem@@@@V?$CMDITabOwner@V?$CDotNetTabCtrl@VCTabViewTabItem@@@@@@@@UAEPAXI@Z 00444d00 f i HydraIRC.obj
 0001:00043d00       ??_G?$CTabbedMDIClient@V?$CDotNetTabCtrl@VCTabViewTabItem@@@@V?$CMDITabOwner@V?$CDotNetTabCtrl@VCTabViewTabItem@@@@@@@@UAEPAXI@Z 00444d00 f i HydraIRC.obj
 0001:00043d30       ??0?$CWindowImpl@V?$CTabbedMDIClient@V?$CDotNetTabCtrl@VCTabViewTabItem@@@@V?$CMDITabOwner@V?$CDotNetTabCtrl@VCTabViewTabItem@@@@@@@@VCWindow@ATL@@V?$CWinTraits@$0FGAAAAAA@$0A@@3@@ATL@@QAE@XZ 00444d30 f i HydraIRC.obj
 0001:00043d30       ??0?$CWindowImpl@V?$CTabDockingBox@U?$CDockingBoxTraits@UCVC7LikeCaption@dockwins@@$0IGMPAAAA@$0IA@@dockwins@@@dockwins@@VCWindow@ATL@@U?$CDockingBoxTraits@UCVC7LikeCaption@dockwins@@$0IGMPAAAA@$0IA@@2@@ATL@@QAE@XZ 00444d30 f i ChildFrm.obj
 0001:00043d30       ??0?$CWindowImpl@VCServerMonitorView@@VCWindow@ATL@@U?$CBoxedDockingWindowTraits@VCVC7LikeExCaption@dockwins@@V?$CTabDockingBox@U?$CDockingBoxTraits@VCVC7LikeExCaption@dockwins@@$0IGMPAAAA@$0IA@@dockwins@@@2@$0JGMPAAAA@$0IA@@dockwins@@@ATL@@QAE@XZ 00444d30 f i HydraIRC.obj
 0001:00043d30       ??0?$CWindowImpl@VCDlgContainerCtrl@@VCWindow@ATL@@V?$CWinTraits@$0FGAAAAAA@$0A@@3@@ATL@@QAE@XZ 00444d30 f i MainFrm.obj
 0001:00043d30       ??0CCommonDialogImplBase@WTL@@QAE@XZ 00444d30 f i EditNotificationDlg.obj
 0001:00043d30       ??0?$CWindowImpl@VCTextQueueView@@VCWindow@ATL@@U?$CBoxedDockingWindowTraits@VCVC7LikeExCaption@dockwins@@V?$CTabDockingBox@U?$CDockingBoxTraits@VCVC7LikeExCaption@dockwins@@$0IGMPAAAA@$0IA@@dockwins@@@2@$0JGMPAAAA@$0IA@@dockwins@@@ATL@@QAE@XZ 00444d30 f i TextQueueFrm.obj
 0001:00043d30       ??0?$CWindowImpl@V?$CHydraSplitterWindowT@$00@@VCWindow@ATL@@V?$CWinTraits@$0FGAAAAAA@$0A@@3@@ATL@@QAE@XZ 00444d30 f i ChildFrm.obj
 0001:00043d30       ??0?$CWindowImpl@V?$CHydraSplitterWindowT@$0A@@@VCWindow@ATL@@V?$CWinTraits@$0FGAAAAAA@$0A@@3@@ATL@@QAE@XZ 00444d30 f i ChildFrm.obj
 0001:00043d30       ??0?$CWindowImpl@VCFlyingTabCtrl@dockwins@@VCWindow@ATL@@V?$CWinTraits@$0FGAAEAAA@$0A@@4@@ATL@@QAE@XZ 00444d30 f i ChildFrm.obj
 0001:00043d30       ??0?$CWindowImpl@VCUserListView@@VCWindow@ATL@@U?$CBoxedDockingWindowTraits@UCVC7LikeCaption@dockwins@@V?$CTabDockingBox@U?$CDockingBoxTraits@UCVC7LikeCaption@dockwins@@$0IGMPAAAA@$0IA@@dockwins@@@2@$0JGMPAAAA@$0IA@@dockwins@@@ATL@@QAE@XZ 00444d30 f i ChildFrm.obj
 0001:00043d30       ??0?$CWindowImpl@VCServerListView@@VCWindow@ATL@@U?$CBoxedDockingWindowTraits@UCVC7LikeCaption@dockwins@@V?$CTabDockingBox@U?$CDockingBoxTraits@UCVC7LikeCaption@dockwins@@$0IGMPAAAA@$0IA@@dockwins@@@2@$0JGMPAAAA@$0IA@@dockwins@@@ATL@@QAE@XZ 00444d30 f i HydraIRC.obj
 0001:00043d30       ??0?$CWindowImpl@V?$CAutoHideManager@U?$CDockingWindowTraits@UCVC7LikeCaption@dockwins@@$0EGMAAAAA@$0IA@@dockwins@@@dockwins@@VCWindow@ATL@@U?$CDockingWindowTraits@UCVC7LikeCaption@dockwins@@$0EGMAAAAA@$0IA@@2@@ATL@@QAE@XZ 00444d30 f i HydraIRC.obj
 0001:00043d30       ??0?$CWindowImpl@V?$CMDITabOwner@V?$CDotNetTabCtrl@VCTabViewTabItem@@@@@@VCWindow@ATL@@V?$CWinTraits@$0FGAAAAAA@$0A@@3@@ATL@@QAE@XZ 00444d30 f i HydraIRC.obj
 0001:00043d30       ??0?$CWindowImpl@VCTransfersView@@VCWindow@ATL@@U?$CBoxedDockingWindowTraits@VCVC7LikeExCaption@dockwins@@V?$CTabDockingBox@U?$CDockingBoxTraits@VCVC7LikeExCaption@dockwins@@$0IGMPAAAA@$0IA@@dockwins@@@2@$0JGMPAAAA@$0IA@@dockwins@@@ATL@@QAE@XZ 00444d30 f i Transfers.obj
 0001:00043d30       ??0?$CWindowImpl@U?$CPackageWindowT@U?$CDockingFrameTraitsT@U?$CDockingWindowTraits@UCVC7LikeCaption@dockwins@@$0EGMAAAAA@$0IA@@dockwins@@V?$CSimpleSplitterBar@$02@2@$0GMPAAAA@$0EABAA@@dockwins@@@?$CPackageWindowFrame@U?$CDockingFrameTraitsT@U?$CDockingWindowTraits@UCVC7LikeCaption@dockwins@@$0EGMAAAAA@$0IA@@dockwins@@V?$CSimpleSplitterBar@$02@2@$0GMPAAAA@$0EABAA@@dockwins@@@dockwins@@VCWindow@ATL@@V?$CWinTraits@$0FGAAAAAA@$0A@@5@@ATL@@QAE@XZ 00444d30 f i HydraIRC.obj
 0001:00043d30       ??0?$CWindowImpl@VCHeaderView@@VCWindow@ATL@@V?$CWinTraits@$0FGAAAAAA@$0A@@3@@ATL@@QAE@XZ 00444d30 f i HeaderView.obj
 0001:00043d30       ??0?$CWindowImpl@VCChannelMonitorView@@VCWindow@ATL@@U?$CBoxedDockingWindowTraits@VCVC7LikeExCaption@dockwins@@V?$CTabDockingBox@U?$CDockingBoxTraits@VCVC7LikeExCaption@dockwins@@$0IGMPAAAA@$0IA@@dockwins@@@2@$0JGMPAAAA@$0IA@@dockwins@@@ATL@@QAE@XZ 00444d30 f i HydraIRC.obj
 0001:00043d30       ??0?$CWindowImpl@VCEventLogView@@VCWindow@ATL@@U?$CBoxedDockingWindowTraits@VCVC7LikeExCaption@dockwins@@V?$CTabDockingBox@U?$CDockingBoxTraits@VCVC7LikeExCaption@dockwins@@$0IGMPAAAA@$0IA@@dockwins@@@2@$0JGMPAAAA@$0IA@@dockwins@@@ATL@@QAE@XZ 00444d30 f i EventLogFrm.obj
 0001:00043d30       ??0?$CWindowImpl@V?$CTabDockingBox@U?$CDockingBoxTraits@VCVC7LikeExCaption@dockwins@@$0IGMPAAAA@$0IA@@dockwins@@@dockwins@@VCWindow@ATL@@U?$CDockingBoxTraits@VCVC7LikeExCaption@dockwins@@$0IGMPAAAA@$0IA@@2@@ATL@@QAE@XZ 00444d30 f i EventLogFrm.obj
 0001:00043d30       ??0?$CWindowImpl@V?$CDotNetTabCtrl@VCTabViewTabItem@@@@VCWindow@ATL@@V?$CWinTraits@$0FGAAEAAA@$0A@@3@@ATL@@QAE@XZ 00444d30 f i HydraIRC.obj
 0001:00043d30       ??0?$CWindowImpl@VCOutputView@@VCWindow@ATL@@U?$CBoxedDockingWindowTraits@VCVC7LikeExCaption@dockwins@@V?$CTabDockingBox@U?$CDockingBoxTraits@VCVC7LikeExCaption@dockwins@@$0IGMPAAAA@$0IA@@dockwins@@@2@$0JGMPAAAA@$0IA@@dockwins@@@ATL@@QAE@XZ 00444d30 f i Output.obj
 0001:00043d30       ??0?$CWindowImpl@VCHydraPaneContainer@@VCWindow@ATL@@V?$CWinTraits@$0FGAAAAAA@$0A@@3@@ATL@@QAE@XZ 00444d30 f i ChildFrm.obj
 0001:00043d50       ??0?$CMDITabOwner@V?$CDotNetTabCtrl@VCTabViewTabItem@@@@@@QAE@XZ 00444d50 f i HydraIRC.obj
 0001:00043d70       ?ProcessWindowMessage@?$CMDITabOwnerImpl@V?$CMDITabOwner@V?$CDotNetTabCtrl@VCTabViewTabItem@@@@@@V?$CDotNetTabCtrl@VCTabViewTabItem@@@@@@UAEHPAUHWND__@@IIJAAJK@Z 00444d70 f i HydraIRC.obj
 0001:00044080       ??1?$CMDITabOwner@V?$CDotNetTabCtrl@VCTabViewTabItem@@@@@@UAE@XZ 00445080 f i HydraIRC.obj
 0001:000440a0       ??_G?$CMDITabOwner@V?$CDotNetTabCtrl@VCTabViewTabItem@@@@@@UAEPAXI@Z 004450a0 f i HydraIRC.obj
 0001:000440a0       ??_E?$CMDITabOwner@V?$CDotNetTabCtrl@VCTabViewTabItem@@@@@@UAEPAXI@Z 004450a0 f i HydraIRC.obj
 0001:000440d0       ??1?$CMDITabOwnerImpl@V?$CMDITabOwner@V?$CDotNetTabCtrl@VCTabViewTabItem@@@@@@V?$CDotNetTabCtrl@VCTabViewTabItem@@@@@@UAE@XZ 004450d0 f i HydraIRC.obj
 0001:00044130       ??1?$CCustomTabOwnerImpl@V?$CMDITabOwner@V?$CDotNetTabCtrl@VCTabViewTabItem@@@@@@V?$CDotNetTabCtrl@VCTabViewTabItem@@@@@@QAE@XZ 00445130 f i HydraIRC.obj
 0001:00044150       ??0?$CMDICommandBarCtrlImpl@VCTabbedMDICommandBarCtrl@@VCCommandBarCtrlBase@WTL@@V?$CWinTraits@$0FGAAAAAA@$0A@@ATL@@@WTL@@QAE@XZ 00445150 f i HydraIRC.obj
 0001:00044280       ??0CUpdateUIBase@WTL@@QAE@XZ 00445280 f i HydraIRC.obj
 0001:000442c0       ??1CUpdateUIBase@WTL@@QAE@XZ 004452c0 f i HydraIRC.obj
 0001:00044360       ?ProcessWindowMessage@CUpdateUIBase@WTL@@QAEHPAUHWND__@@IIJAAJK@Z 00445360 f i HydraIRC.obj
 0001:00044400       ?OnInitMenuPopup@CUpdateUIBase@WTL@@QAEJIIJAAH@Z 00445400 f i HydraIRC.obj
 0001:000444a0       ?OnCommand@CUpdateUIBase@WTL@@QAEJIIJAAH@Z 004454a0 f i HydraIRC.obj
 0001:00044510       ?UIGetState@CUpdateUIBase@WTL@@QAEKH@Z 00445510 f i HydraIRC.obj
 0001:00044580       ?IsWindowVisible@?$CBoxedDockingWindowImpl@VCTransfersView@@VCWindow@ATL@@U?$CBoxedDockingWindowTraits@VCVC7LikeExCaption@dockwins@@V?$CTabDockingBox@U?$CDockingBoxTraits@VCVC7LikeExCaption@dockwins@@$0IGMPAAAA@$0IA@@dockwins@@@2@$0JGMPAAAA@$0IA@@dockwins@@@dockwins@@QBEHXZ 00445580 f i HydraIRC.obj
 0001:00044580       ?IsWindowVisible@?$CBoxedDockingWindowImpl@VCServerMonitorView@@VCWindow@ATL@@U?$CBoxedDockingWindowTraits@VCVC7LikeExCaption@dockwins@@V?$CTabDockingBox@U?$CDockingBoxTraits@VCVC7LikeExCaption@dockwins@@$0IGMPAAAA@$0IA@@dockwins@@@2@$0JGMPAAAA@$0IA@@dockwins@@@dockwins@@QBEHXZ 00445580 f i HydraIRC.obj
 0001:00044580       ?IsWindowVisible@?$CBoxedDockingWindowImpl@VCOutputView@@VCWindow@ATL@@U?$CBoxedDockingWindowTraits@VCVC7LikeExCaption@dockwins@@V?$CTabDockingBox@U?$CDockingBoxTraits@VCVC7LikeExCaption@dockwins@@$0IGMPAAAA@$0IA@@dockwins@@@2@$0JGMPAAAA@$0IA@@dockwins@@@dockwins@@QBEHXZ 00445580 f i HydraIRC.obj
 0001:00044580       ?IsWindowVisible@?$CBoxedDockingWindowImpl@VCUserListView@@VCWindow@ATL@@U?$CBoxedDockingWindowTraits@UCVC7LikeCaption@dockwins@@V?$CTabDockingBox@U?$CDockingBoxTraits@UCVC7LikeCaption@dockwins@@$0IGMPAAAA@$0IA@@dockwins@@@2@$0JGMPAAAA@$0IA@@dockwins@@@dockwins@@QBEHXZ 00445580 f i HydraIRC.obj
 0001:00044580       ?IsWindowVisible@?$CBoxedDockingWindowImpl@VCServerListView@@VCWindow@ATL@@U?$CBoxedDockingWindowTraits@UCVC7LikeCaption@dockwins@@V?$CTabDockingBox@U?$CDockingBoxTraits@UCVC7LikeCaption@dockwins@@$0IGMPAAAA@$0IA@@dockwins@@@2@$0JGMPAAAA@$0IA@@dockwins@@@dockwins@@QBEHXZ 00445580 f i HydraIRC.obj
 0001:00044580       ?IsWindowVisible@?$CBoxedDockingWindowImpl@VCEventLogView@@VCWindow@ATL@@U?$CBoxedDockingWindowTraits@VCVC7LikeExCaption@dockwins@@V?$CTabDockingBox@U?$CDockingBoxTraits@VCVC7LikeExCaption@dockwins@@$0IGMPAAAA@$0IA@@dockwins@@@2@$0JGMPAAAA@$0IA@@dockwins@@@dockwins@@QBEHXZ 00445580 f i HydraIRC.obj
 0001:00044580       ?IsWindowVisible@?$CBoxedDockingWindowImpl@VCTextQueueView@@VCWindow@ATL@@U?$CBoxedDockingWindowTraits@VCVC7LikeExCaption@dockwins@@V?$CTabDockingBox@U?$CDockingBoxTraits@VCVC7LikeExCaption@dockwins@@$0IGMPAAAA@$0IA@@dockwins@@@2@$0JGMPAAAA@$0IA@@dockwins@@@dockwins@@QBEHXZ 00445580 f i HydraIRC.obj
 0001:00044580       ?IsWindowVisible@?$CBoxedDockingWindowImpl@VCChannelMonitorView@@VCWindow@ATL@@U?$CBoxedDockingWindowTraits@VCVC7LikeExCaption@dockwins@@V?$CTabDockingBox@U?$CDockingBoxTraits@VCVC7LikeExCaption@dockwins@@$0IGMPAAAA@$0IA@@dockwins@@@2@$0JGMPAAAA@$0IA@@dockwins@@@dockwins@@QBEHXZ 00445580 f i HydraIRC.obj
 0001:000445d0       ?OnSettingChange@?$CTitleDockingWindowBaseImpl@VCOutputView@@VCWindow@ATL@@U?$CBoxedDockingWindowTraits@VCVC7LikeExCaption@dockwins@@V?$CTabDockingBox@U?$CDockingBoxTraits@VCVC7LikeExCaption@dockwins@@$0IGMPAAAA@$0IA@@dockwins@@@2@$0JGMPAAAA@$0IA@@dockwins@@@dockwins@@QAEJIIJAAH@Z 004455d0 f i Output.obj
 0001:000445d0       ?OnSysColorChange@?$CTitleDockingWindowBaseImpl@VCUserListView@@VCWindow@ATL@@U?$CBoxedDockingWindowTraits@UCVC7LikeCaption@dockwins@@V?$CTabDockingBox@U?$CDockingBoxTraits@UCVC7LikeCaption@dockwins@@$0IGMPAAAA@$0IA@@dockwins@@@2@$0JGMPAAAA@$0IA@@dockwins@@@dockwins@@QAEJIIJAAH@Z 004455d0 f i ChildFrm.obj
 0001:000445d0       ?OnSettingChange@?$CTitleDockingWindowBaseImpl@VCChannelMonitorView@@VCWindow@ATL@@U?$CBoxedDockingWindowTraits@VCVC7LikeExCaption@dockwins@@V?$CTabDockingBox@U?$CDockingBoxTraits@VCVC7LikeExCaption@dockwins@@$0IGMPAAAA@$0IA@@dockwins@@@2@$0JGMPAAAA@$0IA@@dockwins@@@dockwins@@QAEJIIJAAH@Z 004455d0 f i HydraIRC.obj
 0001:000445d0       ?OnSysColorChange@?$CTitleDockingWindowBaseImpl@VCChannelMonitorView@@VCWindow@ATL@@U?$CBoxedDockingWindowTraits@VCVC7LikeExCaption@dockwins@@V?$CTabDockingBox@U?$CDockingBoxTraits@VCVC7LikeExCaption@dockwins@@$0IGMPAAAA@$0IA@@dockwins@@@2@$0JGMPAAAA@$0IA@@dockwins@@@dockwins@@QAEJIIJAAH@Z 004455d0 f i HydraIRC.obj
 0001:000445d0       ?OnSettingChange@?$CTitleDockingWindowBaseImpl@VCServerListView@@VCWindow@ATL@@U?$CBoxedDockingWindowTraits@UCVC7LikeCaption@dockwins@@V?$CTabDockingBox@U?$CDockingBoxTraits@UCVC7LikeCaption@dockwins@@$0IGMPAAAA@$0IA@@dockwins@@@2@$0JGMPAAAA@$0IA@@dockwins@@@dockwins@@QAEJIIJAAH@Z 004455d0 f i HydraIRC.obj
 0001:000445d0       ?OnSysColorChange@?$CTitleDockingWindowBaseImpl@VCTransfersView@@VCWindow@ATL@@U?$CBoxedDockingWindowTraits@VCVC7LikeExCaption@dockwins@@V?$CTabDockingBox@U?$CDockingBoxTraits@VCVC7LikeExCaption@dockwins@@$0IGMPAAAA@$0IA@@dockwins@@@2@$0JGMPAAAA@$0IA@@dockwins@@@dockwins@@QAEJIIJAAH@Z 004455d0 f i Transfers.obj
 0001:000445d0       ?OnSettingChange@?$CTitleDockingWindowBaseImpl@VCUserListView@@VCWindow@ATL@@U?$CBoxedDockingWindowTraits@UCVC7LikeCaption@dockwins@@V?$CTabDockingBox@U?$CDockingBoxTraits@UCVC7LikeCaption@dockwins@@$0IGMPAAAA@$0IA@@dockwins@@@2@$0JGMPAAAA@$0IA@@dockwins@@@dockwins@@QAEJIIJAAH@Z 004455d0 f i ChildFrm.obj
 0001:000445d0       ?OnSettingChange@?$CTitleDockingWindowBaseImpl@VCServerMonitorView@@VCWindow@ATL@@U?$CBoxedDockingWindowTraits@VCVC7LikeExCaption@dockwins@@V?$CTabDockingBox@U?$CDockingBoxTraits@VCVC7LikeExCaption@dockwins@@$0IGMPAAAA@$0IA@@dockwins@@@2@$0JGMPAAAA@$0IA@@dockwins@@@dockwins@@QAEJIIJAAH@Z 004455d0 f i HydraIRC.obj
 0001:000445d0       ?OnSysColorChange@?$CTitleDockingWindowBaseImpl@VCOutputView@@VCWindow@ATL@@U?$CBoxedDockingWindowTraits@VCVC7LikeExCaption@dockwins@@V?$CTabDockingBox@U?$CDockingBoxTraits@VCVC7LikeExCaption@dockwins@@$0IGMPAAAA@$0IA@@dockwins@@@2@$0JGMPAAAA@$0IA@@dockwins@@@dockwins@@QAEJIIJAAH@Z 004455d0 f i Output.obj
 0001:000445d0       ?OnSysColorChange@?$CTitleDockingWindowBaseImpl@VCServerMonitorView@@VCWindow@ATL@@U?$CBoxedDockingWindowTraits@VCVC7LikeExCaption@dockwins@@V?$CTabDockingBox@U?$CDockingBoxTraits@VCVC7LikeExCaption@dockwins@@$0IGMPAAAA@$0IA@@dockwins@@@2@$0JGMPAAAA@$0IA@@dockwins@@@dockwins@@QAEJIIJAAH@Z 004455d0 f i HydraIRC.obj
 0001:000445d0       ?OnSysColorChange@?$CTitleDockingWindowBaseImpl@VCTextQueueView@@VCWindow@ATL@@U?$CBoxedDockingWindowTraits@VCVC7LikeExCaption@dockwins@@V?$CTabDockingBox@U?$CDockingBoxTraits@VCVC7LikeExCaption@dockwins@@$0IGMPAAAA@$0IA@@dockwins@@@2@$0JGMPAAAA@$0IA@@dockwins@@@dockwins@@QAEJIIJAAH@Z 004455d0 f i TextQueueFrm.obj
 0001:000445d0       ?OnSysColorChange@?$CTitleDockingWindowBaseImpl@VCEventLogView@@VCWindow@ATL@@U?$CBoxedDockingWindowTraits@VCVC7LikeExCaption@dockwins@@V?$CTabDockingBox@U?$CDockingBoxTraits@VCVC7LikeExCaption@dockwins@@$0IGMPAAAA@$0IA@@dockwins@@@2@$0JGMPAAAA@$0IA@@dockwins@@@dockwins@@QAEJIIJAAH@Z 004455d0 f i EventLogFrm.obj
 0001:000445d0       ?OnSysColorChange@?$CTitleDockingWindowBaseImpl@VCServerListView@@VCWindow@ATL@@U?$CBoxedDockingWindowTraits@UCVC7LikeCaption@dockwins@@V?$CTabDockingBox@U?$CDockingBoxTraits@UCVC7LikeCaption@dockwins@@$0IGMPAAAA@$0IA@@dockwins@@@2@$0JGMPAAAA@$0IA@@dockwins@@@dockwins@@QAEJIIJAAH@Z 004455d0 f i HydraIRC.obj
 0001:000445d0       ?OnSettingChange@?$CTitleDockingWindowBaseImpl@VCEventLogView@@VCWindow@ATL@@U?$CBoxedDockingWindowTraits@VCVC7LikeExCaption@dockwins@@V?$CTabDockingBox@U?$CDockingBoxTraits@VCVC7LikeExCaption@dockwins@@$0IGMPAAAA@$0IA@@dockwins@@@2@$0JGMPAAAA@$0IA@@dockwins@@@dockwins@@QAEJIIJAAH@Z 004455d0 f i EventLogFrm.obj
 0001:000445d0       ?OnSettingChange@?$CTitleDockingWindowBaseImpl@VCTransfersView@@VCWindow@ATL@@U?$CBoxedDockingWindowTraits@VCVC7LikeExCaption@dockwins@@V?$CTabDockingBox@U?$CDockingBoxTraits@VCVC7LikeExCaption@dockwins@@$0IGMPAAAA@$0IA@@dockwins@@@2@$0JGMPAAAA@$0IA@@dockwins@@@dockwins@@QAEJIIJAAH@Z 004455d0 f i Transfers.obj
 0001:000445d0       ?OnSettingChange@?$CTitleDockingWindowBaseImpl@VCTextQueueView@@VCWindow@ATL@@U?$CBoxedDockingWindowTraits@VCVC7LikeExCaption@dockwins@@V?$CTabDockingBox@U?$CDockingBoxTraits@VCVC7LikeExCaption@dockwins@@$0IGMPAAAA@$0IA@@dockwins@@@2@$0JGMPAAAA@$0IA@@dockwins@@@dockwins@@QAEJIIJAAH@Z 004455d0 f i TextQueueFrm.obj
 0001:00044660       ?UIUpdateMenuBarElement@CUpdateUIBase@WTL@@SAXHPAU_AtlUpdateUIData@12@PAUHMENU__@@@Z 00445660 f i HydraIRC.obj
 0001:00044780       ?OnNcHitTest@?$CTitleDockingWindowBaseImpl@VCUserListView@@VCWindow@ATL@@U?$CBoxedDockingWindowTraits@UCVC7LikeCaption@dockwins@@V?$CTabDockingBox@U?$CDockingBoxTraits@UCVC7LikeCaption@dockwins@@$0IGMPAAAA@$0IA@@dockwins@@@2@$0JGMPAAAA@$0IA@@dockwins@@@dockwins@@QAEJIIJAAH@Z 00445780 f i ChildFrm.obj
 0001:00044780       ?OnNcHitTest@?$CTitleDockingWindowBaseImpl@VCTransfersView@@VCWindow@ATL@@U?$CBoxedDockingWindowTraits@VCVC7LikeExCaption@dockwins@@V?$CTabDockingBox@U?$CDockingBoxTraits@VCVC7LikeExCaption@dockwins@@$0IGMPAAAA@$0IA@@dockwins@@@2@$0JGMPAAAA@$0IA@@dockwins@@@dockwins@@QAEJIIJAAH@Z 00445780 f i Transfers.obj
 0001:00044780       ?OnNcHitTest@?$CTitleDockingWindowBaseImpl@VCTextQueueView@@VCWindow@ATL@@U?$CBoxedDockingWindowTraits@VCVC7LikeExCaption@dockwins@@V?$CTabDockingBox@U?$CDockingBoxTraits@VCVC7LikeExCaption@dockwins@@$0IGMPAAAA@$0IA@@dockwins@@@2@$0JGMPAAAA@$0IA@@dockwins@@@dockwins@@QAEJIIJAAH@Z 00445780 f i TextQueueFrm.obj
 0001:00044780       ?OnNcHitTest@?$CTitleDockingWindowBaseImpl@VCOutputView@@VCWindow@ATL@@U?$CBoxedDockingWindowTraits@VCVC7LikeExCaption@dockwins@@V?$CTabDockingBox@U?$CDockingBoxTraits@VCVC7LikeExCaption@dockwins@@$0IGMPAAAA@$0IA@@dockwins@@@2@$0JGMPAAAA@$0IA@@dockwins@@@dockwins@@QAEJIIJAAH@Z 00445780 f i Output.obj
 0001:00044780       ?OnNcHitTest@?$CTitleDockingWindowBaseImpl@VCChannelMonitorView@@VCWindow@ATL@@U?$CBoxedDockingWindowTraits@VCVC7LikeExCaption@dockwins@@V?$CTabDockingBox@U?$CDockingBoxTraits@VCVC7LikeExCaption@dockwins@@$0IGMPAAAA@$0IA@@dockwins@@@2@$0JGMPAAAA@$0IA@@dockwins@@@dockwins@@QAEJIIJAAH@Z 00445780 f i HydraIRC.obj
 0001:00044780       ?OnNcHitTest@?$CTitleDockingWindowBaseImpl@VCServerMonitorView@@VCWindow@ATL@@U?$CBoxedDockingWindowTraits@VCVC7LikeExCaption@dockwins@@V?$CTabDockingBox@U?$CDockingBoxTraits@VCVC7LikeExCaption@dockwins@@$0IGMPAAAA@$0IA@@dockwins@@@2@$0JGMPAAAA@$0IA@@dockwins@@@dockwins@@QAEJIIJAAH@Z 00445780 f i HydraIRC.obj
 0001:00044780       ?OnNcHitTest@?$CTitleDockingWindowBaseImpl@VCEventLogView@@VCWindow@ATL@@U?$CBoxedDockingWindowTraits@VCVC7LikeExCaption@dockwins@@V?$CTabDockingBox@U?$CDockingBoxTraits@VCVC7LikeExCaption@dockwins@@$0IGMPAAAA@$0IA@@dockwins@@@2@$0JGMPAAAA@$0IA@@dockwins@@@dockwins@@QAEJIIJAAH@Z 00445780 f i EventLogFrm.obj
 0001:00044780       ?OnNcHitTest@?$CTitleDockingWindowBaseImpl@VCServerListView@@VCWindow@ATL@@U?$CBoxedDockingWindowTraits@UCVC7LikeCaption@dockwins@@V?$CTabDockingBox@U?$CDockingBoxTraits@UCVC7LikeCaption@dockwins@@$0IGMPAAAA@$0IA@@dockwins@@@2@$0JGMPAAAA@$0IA@@dockwins@@@dockwins@@QAEJIIJAAH@Z 00445780 f i HydraIRC.obj
 0001:00044820       ?OnNcPaint@?$CTitleDockingWindowBaseImpl@VCServerMonitorView@@VCWindow@ATL@@U?$CBoxedDockingWindowTraits@VCVC7LikeExCaption@dockwins@@V?$CTabDockingBox@U?$CDockingBoxTraits@VCVC7LikeExCaption@dockwins@@$0IGMPAAAA@$0IA@@dockwins@@@2@$0JGMPAAAA@$0IA@@dockwins@@@dockwins@@QAEJIIJAAH@Z 00445820 f i HydraIRC.obj
 0001:00044820       ?OnNcPaint@?$CTitleDockingWindowBaseImpl@VCTextQueueView@@VCWindow@ATL@@U?$CBoxedDockingWindowTraits@VCVC7LikeExCaption@dockwins@@V?$CTabDockingBox@U?$CDockingBoxTraits@VCVC7LikeExCaption@dockwins@@$0IGMPAAAA@$0IA@@dockwins@@@2@$0JGMPAAAA@$0IA@@dockwins@@@dockwins@@QAEJIIJAAH@Z 00445820 f i TextQueueFrm.obj
 0001:00044820       ?OnNcPaint@?$CTitleDockingWindowBaseImpl@VCUserListView@@VCWindow@ATL@@U?$CBoxedDockingWindowTraits@UCVC7LikeCaption@dockwins@@V?$CTabDockingBox@U?$CDockingBoxTraits@UCVC7LikeCaption@dockwins@@$0IGMPAAAA@$0IA@@dockwins@@@2@$0JGMPAAAA@$0IA@@dockwins@@@dockwins@@QAEJIIJAAH@Z 00445820 f i ChildFrm.obj
 0001:00044820       ?OnNcPaint@?$CTitleDockingWindowBaseImpl@VCTransfersView@@VCWindow@ATL@@U?$CBoxedDockingWindowTraits@VCVC7LikeExCaption@dockwins@@V?$CTabDockingBox@U?$CDockingBoxTraits@VCVC7LikeExCaption@dockwins@@$0IGMPAAAA@$0IA@@dockwins@@@2@$0JGMPAAAA@$0IA@@dockwins@@@dockwins@@QAEJIIJAAH@Z 00445820 f i Transfers.obj
 0001:00044820       ?OnNcPaint@?$CTitleDockingWindowBaseImpl@VCOutputView@@VCWindow@ATL@@U?$CBoxedDockingWindowTraits@VCVC7LikeExCaption@dockwins@@V?$CTabDockingBox@U?$CDockingBoxTraits@VCVC7LikeExCaption@dockwins@@$0IGMPAAAA@$0IA@@dockwins@@@2@$0JGMPAAAA@$0IA@@dockwins@@@dockwins@@QAEJIIJAAH@Z 00445820 f i Output.obj
 0001:00044820       ?OnNcPaint@?$CTitleDockingWindowBaseImpl@VCEventLogView@@VCWindow@ATL@@U?$CBoxedDockingWindowTraits@VCVC7LikeExCaption@dockwins@@V?$CTabDockingBox@U?$CDockingBoxTraits@VCVC7LikeExCaption@dockwins@@$0IGMPAAAA@$0IA@@dockwins@@@2@$0JGMPAAAA@$0IA@@dockwins@@@dockwins@@QAEJIIJAAH@Z 00445820 f i EventLogFrm.obj
 0001:00044820       ?OnNcPaint@?$CTitleDockingWindowBaseImpl@VCChannelMonitorView@@VCWindow@ATL@@U?$CBoxedDockingWindowTraits@VCVC7LikeExCaption@dockwins@@V?$CTabDockingBox@U?$CDockingBoxTraits@VCVC7LikeExCaption@dockwins@@$0IGMPAAAA@$0IA@@dockwins@@@2@$0JGMPAAAA@$0IA@@dockwins@@@dockwins@@QAEJIIJAAH@Z 00445820 f i HydraIRC.obj
 0001:00044820       ?OnNcPaint@?$CTitleDockingWindowBaseImpl@VCServerListView@@VCWindow@ATL@@U?$CBoxedDockingWindowTraits@UCVC7LikeCaption@dockwins@@V?$CTabDockingBox@U?$CDockingBoxTraits@UCVC7LikeCaption@dockwins@@$0IGMPAAAA@$0IA@@dockwins@@@2@$0JGMPAAAA@$0IA@@dockwins@@@dockwins@@QAEJIIJAAH@Z 00445820 f i HydraIRC.obj
 0001:000448c0       ?OnNcLButtonUp@?$CTitleDockingWindowBaseImpl@VCServerListView@@VCWindow@ATL@@U?$CBoxedDockingWindowTraits@UCVC7LikeCaption@dockwins@@V?$CTabDockingBox@U?$CDockingBoxTraits@UCVC7LikeCaption@dockwins@@$0IGMPAAAA@$0IA@@dockwins@@@2@$0JGMPAAAA@$0IA@@dockwins@@@dockwins@@QAEJIIJAAH@Z 004458c0 f i HydraIRC.obj
 0001:000448c0       ?OnNcLButtonUp@?$CTitleDockingWindowBaseImpl@VCUserListView@@VCWindow@ATL@@U?$CBoxedDockingWindowTraits@UCVC7LikeCaption@dockwins@@V?$CTabDockingBox@U?$CDockingBoxTraits@UCVC7LikeCaption@dockwins@@$0IGMPAAAA@$0IA@@dockwins@@@2@$0JGMPAAAA@$0IA@@dockwins@@@dockwins@@QAEJIIJAAH@Z 004458c0 f i ChildFrm.obj
 0001:000448c0       ?OnNcLButtonUp@?$CTitleDockingWindowBaseImpl@VCServerMonitorView@@VCWindow@ATL@@U?$CBoxedDockingWindowTraits@VCVC7LikeExCaption@dockwins@@V?$CTabDockingBox@U?$CDockingBoxTraits@VCVC7LikeExCaption@dockwins@@$0IGMPAAAA@$0IA@@dockwins@@@2@$0JGMPAAAA@$0IA@@dockwins@@@dockwins@@QAEJIIJAAH@Z 004458c0 f i HydraIRC.obj
 0001:000448c0       ?OnNcLButtonUp@?$CTitleDockingWindowBaseImpl@VCEventLogView@@VCWindow@ATL@@U?$CBoxedDockingWindowTraits@VCVC7LikeExCaption@dockwins@@V?$CTabDockingBox@U?$CDockingBoxTraits@VCVC7LikeExCaption@dockwins@@$0IGMPAAAA@$0IA@@dockwins@@@2@$0JGMPAAAA@$0IA@@dockwins@@@dockwins@@QAEJIIJAAH@Z 004458c0 f i EventLogFrm.obj
 0001:000448c0       ?OnNcLButtonUp@?$CTitleDockingWindowBaseImpl@VCTextQueueView@@VCWindow@ATL@@U?$CBoxedDockingWindowTraits@VCVC7LikeExCaption@dockwins@@V?$CTabDockingBox@U?$CDockingBoxTraits@VCVC7LikeExCaption@dockwins@@$0IGMPAAAA@$0IA@@dockwins@@@2@$0JGMPAAAA@$0IA@@dockwins@@@dockwins@@QAEJIIJAAH@Z 004458c0 f i TextQueueFrm.obj
 0001:000448c0       ?OnNcLButtonUp@?$CTitleDockingWindowBaseImpl@VCChannelMonitorView@@VCWindow@ATL@@U?$CBoxedDockingWindowTraits@VCVC7LikeExCaption@dockwins@@V?$CTabDockingBox@U?$CDockingBoxTraits@VCVC7LikeExCaption@dockwins@@$0IGMPAAAA@$0IA@@dockwins@@@2@$0JGMPAAAA@$0IA@@dockwins@@@dockwins@@QAEJIIJAAH@Z 004458c0 f i HydraIRC.obj
 0001:000448c0       ?OnNcLButtonUp@?$CTitleDockingWindowBaseImpl@VCOutputView@@VCWindow@ATL@@U?$CBoxedDockingWindowTraits@VCVC7LikeExCaption@dockwins@@V?$CTabDockingBox@U?$CDockingBoxTraits@VCVC7LikeExCaption@dockwins@@$0IGMPAAAA@$0IA@@dockwins@@@2@$0JGMPAAAA@$0IA@@dockwins@@@dockwins@@QAEJIIJAAH@Z 004458c0 f i Output.obj
 0001:000448c0       ?OnNcLButtonUp@?$CTitleDockingWindowBaseImpl@VCTransfersView@@VCWindow@ATL@@U?$CBoxedDockingWindowTraits@VCVC7LikeExCaption@dockwins@@V?$CTabDockingBox@U?$CDockingBoxTraits@VCVC7LikeExCaption@dockwins@@$0IGMPAAAA@$0IA@@dockwins@@@2@$0JGMPAAAA@$0IA@@dockwins@@@dockwins@@QAEJIIJAAH@Z 004458c0 f i Transfers.obj
 0001:000449a0       ?GetDockingPosition@?$CDockingWindowBaseImpl@VCOutputView@@VCWindow@ATL@@U?$CBoxedDockingWindowTraits@VCVC7LikeExCaption@dockwins@@V?$CTabDockingBox@U?$CDockingBoxTraits@VCVC7LikeExCaption@dockwins@@$0IGMPAAAA@$0IA@@dockwins@@@2@$0JGMPAAAA@$0IA@@dockwins@@@dockwins@@QBE_NPAUtagDFDOCKPOS@2@@Z 004459a0 f i MainFrm.obj
 0001:000449a0       ?GetDockingPosition@?$CDockingWindowBaseImpl@VCEventLogView@@VCWindow@ATL@@U?$CBoxedDockingWindowTraits@VCVC7LikeExCaption@dockwins@@V?$CTabDockingBox@U?$CDockingBoxTraits@VCVC7LikeExCaption@dockwins@@$0IGMPAAAA@$0IA@@dockwins@@@2@$0JGMPAAAA@$0IA@@dockwins@@@dockwins@@QBE_NPAUtagDFDOCKPOS@2@@Z 004459a0 f i EventLogFrm.obj
 0001:000449a0       ?GetDockingPosition@?$CDockingWindowBaseImpl@VCChannelMonitorView@@VCWindow@ATL@@U?$CBoxedDockingWindowTraits@VCVC7LikeExCaption@dockwins@@V?$CTabDockingBox@U?$CDockingBoxTraits@VCVC7LikeExCaption@dockwins@@$0IGMPAAAA@$0IA@@dockwins@@@2@$0JGMPAAAA@$0IA@@dockwins@@@dockwins@@QBE_NPAUtagDFDOCKPOS@2@@Z 004459a0 f i HydraIRC.obj
 0001:000449a0       ?GetDockingPosition@?$CDockingWindowBaseImpl@VCServerListView@@VCWindow@ATL@@U?$CBoxedDockingWindowTraits@UCVC7LikeCaption@dockwins@@V?$CTabDockingBox@U?$CDockingBoxTraits@UCVC7LikeCaption@dockwins@@$0IGMPAAAA@$0IA@@dockwins@@@2@$0JGMPAAAA@$0IA@@dockwins@@@dockwins@@QBE_NPAUtagDFDOCKPOS@2@@Z 004459a0 f i HydraIRC.obj
 0001:000449a0       ?GetDockingPosition@?$CDockingWindowBaseImpl@V?$CTabDockingBox@U?$CDockingBoxTraits@VCVC7LikeExCaption@dockwins@@$0IGMPAAAA@$0IA@@dockwins@@@dockwins@@VCWindow@ATL@@U?$CDockingBoxTraits@VCVC7LikeExCaption@dockwins@@$0IGMPAAAA@$0IA@@2@@dockwins@@QBE_NPAUtagDFDOCKPOS@2@@Z 004459a0 f i EventLogFrm.obj
 0001:000449a0       ?GetDockingPosition@?$CDockingWindowBaseImpl@VCServerMonitorView@@VCWindow@ATL@@U?$CBoxedDockingWindowTraits@VCVC7LikeExCaption@dockwins@@V?$CTabDockingBox@U?$CDockingBoxTraits@VCVC7LikeExCaption@dockwins@@$0IGMPAAAA@$0IA@@dockwins@@@2@$0JGMPAAAA@$0IA@@dockwins@@@dockwins@@QBE_NPAUtagDFDOCKPOS@2@@Z 004459a0 f i HydraIRC.obj
 0001:000449a0       ?GetDockingPosition@?$CDockingWindowBaseImpl@V?$CTabDockingBox@U?$CDockingBoxTraits@UCVC7LikeCaption@dockwins@@$0IGMPAAAA@$0IA@@dockwins@@@dockwins@@VCWindow@ATL@@U?$CDockingBoxTraits@UCVC7LikeCaption@dockwins@@$0IGMPAAAA@$0IA@@2@@dockwins@@QBE_NPAUtagDFDOCKPOS@2@@Z 004459a0 f i ChildFrm.obj
 0001:000449a0       ?GetDockingPosition@?$CDockingWindowBaseImpl@VCUserListView@@VCWindow@ATL@@U?$CBoxedDockingWindowTraits@UCVC7LikeCaption@dockwins@@V?$CTabDockingBox@U?$CDockingBoxTraits@UCVC7LikeCaption@dockwins@@$0IGMPAAAA@$0IA@@dockwins@@@2@$0JGMPAAAA@$0IA@@dockwins@@@dockwins@@QBE_NPAUtagDFDOCKPOS@2@@Z 004459a0 f i ChildFrm.obj
 0001:000449a0       ?GetDockingPosition@?$CDockingWindowBaseImpl@VCTransfersView@@VCWindow@ATL@@U?$CBoxedDockingWindowTraits@VCVC7LikeExCaption@dockwins@@V?$CTabDockingBox@U?$CDockingBoxTraits@VCVC7LikeExCaption@dockwins@@$0IGMPAAAA@$0IA@@dockwins@@@2@$0JGMPAAAA@$0IA@@dockwins@@@dockwins@@QBE_NPAUtagDFDOCKPOS@2@@Z 004459a0 f i MainFrm.obj
 0001:000449a0       ?GetDockingPosition@?$CDockingWindowBaseImpl@VCTextQueueView@@VCWindow@ATL@@U?$CBoxedDockingWindowTraits@VCVC7LikeExCaption@dockwins@@V?$CTabDockingBox@U?$CDockingBoxTraits@VCVC7LikeExCaption@dockwins@@$0IGMPAAAA@$0IA@@dockwins@@@2@$0JGMPAAAA@$0IA@@dockwins@@@dockwins@@QBE_NPAUtagDFDOCKPOS@2@@Z 004459a0 f i MainFrm.obj
 0001:000449f0       ?GetIcon@CImageList@WTL@@QBEPAUHICON__@@HI@Z 004459f0 f i HydraIRC.obj
 0001:00044a20       ?Float@?$CDockingWindowBaseImpl@V?$CTabDockingBox@U?$CDockingBoxTraits@UCVC7LikeCaption@dockwins@@$0IGMPAAAA@$0IA@@dockwins@@@dockwins@@VCWindow@ATL@@U?$CDockingBoxTraits@UCVC7LikeCaption@dockwins@@$0IGMPAAAA@$0IA@@2@@dockwins@@QAE_NPBUtagRECT@@IPAUHWND__@@@Z 00445a20 f i ChildFrm.obj
 0001:00044a20       ?Float@?$CDockingWindowBaseImpl@VCEventLogView@@VCWindow@ATL@@U?$CBoxedDockingWindowTraits@VCVC7LikeExCaption@dockwins@@V?$CTabDockingBox@U?$CDockingBoxTraits@VCVC7LikeExCaption@dockwins@@$0IGMPAAAA@$0IA@@dockwins@@@2@$0JGMPAAAA@$0IA@@dockwins@@@dockwins@@QAE_NPBUtagRECT@@IPAUHWND__@@@Z 00445a20 f i EventLogFrm.obj
 0001:00044a20       ?Float@?$CDockingWindowBaseImpl@VCServerMonitorView@@VCWindow@ATL@@U?$CBoxedDockingWindowTraits@VCVC7LikeExCaption@dockwins@@V?$CTabDockingBox@U?$CDockingBoxTraits@VCVC7LikeExCaption@dockwins@@$0IGMPAAAA@$0IA@@dockwins@@@2@$0JGMPAAAA@$0IA@@dockwins@@@dockwins@@QAE_NPBUtagRECT@@IPAUHWND__@@@Z 00445a20 f i HydraIRC.obj
 0001:00044a20       ?Float@?$CDockingWindowBaseImpl@VCTransfersView@@VCWindow@ATL@@U?$CBoxedDockingWindowTraits@VCVC7LikeExCaption@dockwins@@V?$CTabDockingBox@U?$CDockingBoxTraits@VCVC7LikeExCaption@dockwins@@$0IGMPAAAA@$0IA@@dockwins@@@2@$0JGMPAAAA@$0IA@@dockwins@@@dockwins@@QAE_NPBUtagRECT@@IPAUHWND__@@@Z 00445a20 f i Transfers.obj
 0001:00044a20       ?Float@?$CDockingWindowBaseImpl@VCTextQueueView@@VCWindow@ATL@@U?$CBoxedDockingWindowTraits@VCVC7LikeExCaption@dockwins@@V?$CTabDockingBox@U?$CDockingBoxTraits@VCVC7LikeExCaption@dockwins@@$0IGMPAAAA@$0IA@@dockwins@@@2@$0JGMPAAAA@$0IA@@dockwins@@@dockwins@@QAE_NPBUtagRECT@@IPAUHWND__@@@Z 00445a20 f i TextQueueFrm.obj
 0001:00044a20       ?Float@?$CDockingWindowBaseImpl@VCChannelMonitorView@@VCWindow@ATL@@U?$CBoxedDockingWindowTraits@VCVC7LikeExCaption@dockwins@@V?$CTabDockingBox@U?$CDockingBoxTraits@VCVC7LikeExCaption@dockwins@@$0IGMPAAAA@$0IA@@dockwins@@@2@$0JGMPAAAA@$0IA@@dockwins@@@dockwins@@QAE_NPBUtagRECT@@IPAUHWND__@@@Z 00445a20 f i HydraIRC.obj
 0001:00044a20       ?Float@?$CDockingWindowBaseImpl@VCUserListView@@VCWindow@ATL@@U?$CBoxedDockingWindowTraits@UCVC7LikeCaption@dockwins@@V?$CTabDockingBox@U?$CDockingBoxTraits@UCVC7LikeCaption@dockwins@@$0IGMPAAAA@$0IA@@dockwins@@@2@$0JGMPAAAA@$0IA@@dockwins@@@dockwins@@QAE_NPBUtagRECT@@IPAUHWND__@@@Z 00445a20 f i ChildFrm.obj
 0001:00044a20       ?Float@?$CDockingWindowBaseImpl@VCServerListView@@VCWindow@ATL@@U?$CBoxedDockingWindowTraits@UCVC7LikeCaption@dockwins@@V?$CTabDockingBox@U?$CDockingBoxTraits@UCVC7LikeCaption@dockwins@@$0IGMPAAAA@$0IA@@dockwins@@@2@$0JGMPAAAA@$0IA@@dockwins@@@dockwins@@QAE_NPBUtagRECT@@IPAUHWND__@@@Z 00445a20 f i HydraIRC.obj
 0001:00044a20       ?Float@?$CDockingWindowBaseImpl@VCOutputView@@VCWindow@ATL@@U?$CBoxedDockingWindowTraits@VCVC7LikeExCaption@dockwins@@V?$CTabDockingBox@U?$CDockingBoxTraits@VCVC7LikeExCaption@dockwins@@$0IGMPAAAA@$0IA@@dockwins@@@2@$0JGMPAAAA@$0IA@@dockwins@@@dockwins@@QAE_NPBUtagRECT@@IPAUHWND__@@@Z 00445a20 f i Output.obj
 0001:00044a20       ?Float@?$CDockingWindowBaseImpl@V?$CTabDockingBox@U?$CDockingBoxTraits@VCVC7LikeExCaption@dockwins@@$0IGMPAAAA@$0IA@@dockwins@@@dockwins@@VCWindow@ATL@@U?$CDockingBoxTraits@VCVC7LikeExCaption@dockwins@@$0IGMPAAAA@$0IA@@2@@dockwins@@QAE_NPBUtagRECT@@IPAUHWND__@@@Z 00445a20 f i EventLogFrm.obj
 0001:00044a80       ?OnEraseBackground@?$CDockingWindowBaseImpl@VCOutputView@@VCWindow@ATL@@U?$CBoxedDockingWindowTraits@VCVC7LikeExCaption@dockwins@@V?$CTabDockingBox@U?$CDockingBoxTraits@VCVC7LikeExCaption@dockwins@@$0IGMPAAAA@$0IA@@dockwins@@@2@$0JGMPAAAA@$0IA@@dockwins@@@dockwins@@QAEJIIJAAH@Z 00445a80 f i Output.obj
 0001:00044a80       ?OnEraseBackground@?$COffscreenDrawRect@V?$CDotNetTabCtrl@VCTabViewTabItem@@@@@WTL@@QAEJIIJAAH@Z 00445a80 f i HydraIRC.obj
 0001:00044a80       ?OnEraseBackground@?$CDockingWindowBaseImpl@VCChannelMonitorView@@VCWindow@ATL@@U?$CBoxedDockingWindowTraits@VCVC7LikeExCaption@dockwins@@V?$CTabDockingBox@U?$CDockingBoxTraits@VCVC7LikeExCaption@dockwins@@$0IGMPAAAA@$0IA@@dockwins@@@2@$0JGMPAAAA@$0IA@@dockwins@@@dockwins@@QAEJIIJAAH@Z 00445a80 f i HydraIRC.obj
 0001:00044a80       ?OnEraseBackground@?$CDockingWindowBaseImpl@VCUserListView@@VCWindow@ATL@@U?$CBoxedDockingWindowTraits@UCVC7LikeCaption@dockwins@@V?$CTabDockingBox@U?$CDockingBoxTraits@UCVC7LikeCaption@dockwins@@$0IGMPAAAA@$0IA@@dockwins@@@2@$0JGMPAAAA@$0IA@@dockwins@@@dockwins@@QAEJIIJAAH@Z 00445a80 f i ChildFrm.obj
 0001:00044a80       ?OnEraseBackground@?$CDockingWindowBaseImpl@VCTransfersView@@VCWindow@ATL@@U?$CBoxedDockingWindowTraits@VCVC7LikeExCaption@dockwins@@V?$CTabDockingBox@U?$CDockingBoxTraits@VCVC7LikeExCaption@dockwins@@$0IGMPAAAA@$0IA@@dockwins@@@2@$0JGMPAAAA@$0IA@@dockwins@@@dockwins@@QAEJIIJAAH@Z 00445a80 f i Transfers.obj
 0001:00044a80       ?OnEraseBackground@?$CPackageWindowImpl@U?$CPackageWindowT@U?$CDockingFrameTraitsT@U?$CDockingWindowTraits@UCVC7LikeCaption@dockwins@@$0EGMAAAAA@$0IA@@dockwins@@V?$CSimpleSplitterBar@$02@2@$0GMPAAAA@$0EABAA@@dockwins@@@?$CPackageWindowFrame@U?$CDockingFrameTraitsT@U?$CDockingWindowTraits@UCVC7LikeCaption@dockwins@@$0EGMAAAAA@$0IA@@dockwins@@V?$CSimpleSplitterBar@$02@2@$0GMPAAAA@$0EABAA@@dockwins@@@dockwins@@V?$CWndFramesPackage@U?$CDockingFrameTraitsT@U?$CDockingWindowTraits@UCVC7LikeCaption@dockwins@@$0EGMAAAAA@$0IA@@dockwins@@V?$CSimpleSplitterBar@$02@2@$0GMPAAAA@$0EABAA@@dockwins@@@3@VCWindow@ATL@@V?$CWinTraits@$0FGAAAAAA@$0A@@6@@dockwins@@QAEJIIJAAH@Z 00445a80 f i HydraIRC.obj
 0001:00044a80       ?OnEraseBackground@?$CSplitterWindowImpl@V?$CHydraSplitterWindowT@$00@@$00VCWindow@ATL@@V?$CWinTraits@$0FGAAAAAA@$0A@@3@@WTL@@QAEJIIJAAH@Z 00445a80 f i ChildFrm.obj
 0001:00044a80       ?OnEraseBackground@?$CSplitterWindowImpl@V?$CHydraSplitterWindowT@$0A@@@$0A@VCWindow@ATL@@V?$CWinTraits@$0FGAAAAAA@$0A@@3@@WTL@@QAEJIIJAAH@Z 00445a80 f i ChildFrm.obj
 0001:00044a80       ?OnEraseBackground@?$CDockingWindowBaseImpl@VCTextQueueView@@VCWindow@ATL@@U?$CBoxedDockingWindowTraits@VCVC7LikeExCaption@dockwins@@V?$CTabDockingBox@U?$CDockingBoxTraits@VCVC7LikeExCaption@dockwins@@$0IGMPAAAA@$0IA@@dockwins@@@2@$0JGMPAAAA@$0IA@@dockwins@@@dockwins@@QAEJIIJAAH@Z 00445a80 f i TextQueueFrm.obj
 0001:00044a80       ?OnEraseBackground@?$CDockingWindowBaseImpl@VCServerMonitorView@@VCWindow@ATL@@U?$CBoxedDockingWindowTraits@VCVC7LikeExCaption@dockwins@@V?$CTabDockingBox@U?$CDockingBoxTraits@VCVC7LikeExCaption@dockwins@@$0IGMPAAAA@$0IA@@dockwins@@@2@$0JGMPAAAA@$0IA@@dockwins@@@dockwins@@QAEJIIJAAH@Z 00445a80 f i HydraIRC.obj
 0001:00044a80       ?OnEraseBackground@?$CDockingWindowBaseImpl@VCServerListView@@VCWindow@ATL@@U?$CBoxedDockingWindowTraits@UCVC7LikeCaption@dockwins@@V?$CTabDockingBox@U?$CDockingBoxTraits@UCVC7LikeCaption@dockwins@@$0IGMPAAAA@$0IA@@dockwins@@@2@$0JGMPAAAA@$0IA@@dockwins@@@dockwins@@QAEJIIJAAH@Z 00445a80 f i HydraIRC.obj
 0001:00044a80       ?OnEraseBackground@?$CDockingWindowBaseImpl@VCEventLogView@@VCWindow@ATL@@U?$CBoxedDockingWindowTraits@VCVC7LikeExCaption@dockwins@@V?$CTabDockingBox@U?$CDockingBoxTraits@VCVC7LikeExCaption@dockwins@@$0IGMPAAAA@$0IA@@dockwins@@@2@$0JGMPAAAA@$0IA@@dockwins@@@dockwins@@QAEJIIJAAH@Z 00445a80 f i EventLogFrm.obj
 0001:00044a80       ?OnEraseBkgnd@?$CDlgContainerImpl@VCDlgContainerCtrl@@VCWindow@ATL@@V?$CWinTraits@$0FGAAAAAA@$0A@@3@@@QAEJIIJAAH@Z 00445a80 f i MainFrm.obj
 0001:00044a80       ?OnEraseBackground@?$CDockingWindowBaseImpl@V?$CTabDockingBox@U?$CDockingBoxTraits@VCVC7LikeExCaption@dockwins@@$0IGMPAAAA@$0IA@@dockwins@@@dockwins@@VCWindow@ATL@@U?$CDockingBoxTraits@VCVC7LikeExCaption@dockwins@@$0IGMPAAAA@$0IA@@2@@dockwins@@QAEJIIJAAH@Z 00445a80 f i EventLogFrm.obj
 0001:00044a80       ?OnEraseBackground@?$COffscreenDrawRect@VCFlyingTabCtrl@dockwins@@@WTL@@QAEJIIJAAH@Z 00445a80 f i ChildFrm.obj
 0001:00044a80       ?OnEraseBackground@?$CPaneContainerImpl@VCHydraPaneContainer@@VCWindow@ATL@@V?$CWinTraits@$0FGAAAAAA@$0A@@3@@WTL@@QAEJIIJAAH@Z 00445a80 f i ChildFrm.obj
 0001:00044a80       ?OnEraseBackground@?$CDockingWindowBaseImpl@V?$CTabDockingBox@U?$CDockingBoxTraits@UCVC7LikeCaption@dockwins@@$0IGMPAAAA@$0IA@@dockwins@@@dockwins@@VCWindow@ATL@@U?$CDockingBoxTraits@UCVC7LikeCaption@dockwins@@$0IGMPAAAA@$0IA@@2@@dockwins@@QAEJIIJAAH@Z 00445a80 f i ChildFrm.obj
 0001:00044aa0       ?OnDockStateChanged@?$CDockingWindowBaseImpl@VCChannelMonitorView@@VCWindow@ATL@@U?$CBoxedDockingWindowTraits@VCVC7LikeExCaption@dockwins@@V?$CTabDockingBox@U?$CDockingBoxTraits@VCVC7LikeExCaption@dockwins@@$0IGMPAAAA@$0IA@@dockwins@@@2@$0JGMPAAAA@$0IA@@dockwins@@@dockwins@@QAEJIIJAAH@Z 00445aa0 f i HydraIRC.obj
 0001:00044b10       ?Add@CImageList@WTL@@QAEHPAUHBITMAP__@@K@Z 00445b10 f i HydraIRC.obj
 0001:00044b40       ?OnDockingBoxMessage@?$CBoxedDockingWindowBaseImpl@VCEventLogView@@VCWindow@ATL@@U?$CBoxedDockingWindowTraits@VCVC7LikeExCaption@dockwins@@V?$CTabDockingBox@U?$CDockingBoxTraits@VCVC7LikeExCaption@dockwins@@$0IGMPAAAA@$0IA@@dockwins@@@2@$0JGMPAAAA@$0IA@@dockwins@@@dockwins@@IAEJIIJAAH@Z 00445b40 f i EventLogFrm.obj
 0001:00044b40       ?OnDockingBoxMessage@?$CBoxedDockingWindowBaseImpl@VCChannelMonitorView@@VCWindow@ATL@@U?$CBoxedDockingWindowTraits@VCVC7LikeExCaption@dockwins@@V?$CTabDockingBox@U?$CDockingBoxTraits@VCVC7LikeExCaption@dockwins@@$0IGMPAAAA@$0IA@@dockwins@@@2@$0JGMPAAAA@$0IA@@dockwins@@@dockwins@@IAEJIIJAAH@Z 00445b40 f i HydraIRC.obj
 0001:00044b40       ?OnDockingBoxMessage@?$CBoxedDockingWindowBaseImpl@VCOutputView@@VCWindow@ATL@@U?$CBoxedDockingWindowTraits@VCVC7LikeExCaption@dockwins@@V?$CTabDockingBox@U?$CDockingBoxTraits@VCVC7LikeExCaption@dockwins@@$0IGMPAAAA@$0IA@@dockwins@@@2@$0JGMPAAAA@$0IA@@dockwins@@@dockwins@@IAEJIIJAAH@Z 00445b40 f i Output.obj
 0001:00044b40       ?OnDockingBoxMessage@?$CBoxedDockingWindowBaseImpl@VCTextQueueView@@VCWindow@ATL@@U?$CBoxedDockingWindowTraits@VCVC7LikeExCaption@dockwins@@V?$CTabDockingBox@U?$CDockingBoxTraits@VCVC7LikeExCaption@dockwins@@$0IGMPAAAA@$0IA@@dockwins@@@2@$0JGMPAAAA@$0IA@@dockwins@@@dockwins@@IAEJIIJAAH@Z 00445b40 f i TextQueueFrm.obj
 0001:00044b40       ?OnDockingBoxMessage@?$CBoxedDockingWindowBaseImpl@VCServerMonitorView@@VCWindow@ATL@@U?$CBoxedDockingWindowTraits@VCVC7LikeExCaption@dockwins@@V?$CTabDockingBox@U?$CDockingBoxTraits@VCVC7LikeExCaption@dockwins@@$0IGMPAAAA@$0IA@@dockwins@@@2@$0JGMPAAAA@$0IA@@dockwins@@@dockwins@@IAEJIIJAAH@Z 00445b40 f i HydraIRC.obj
 0001:00044b40       ?OnDockingBoxMessage@?$CBoxedDockingWindowBaseImpl@VCTransfersView@@VCWindow@ATL@@U?$CBoxedDockingWindowTraits@VCVC7LikeExCaption@dockwins@@V?$CTabDockingBox@U?$CDockingBoxTraits@VCVC7LikeExCaption@dockwins@@$0IGMPAAAA@$0IA@@dockwins@@@2@$0JGMPAAAA@$0IA@@dockwins@@@dockwins@@IAEJIIJAAH@Z 00445b40 f i Transfers.obj
 0001:00044c90       ?GetOwnerDockingBar@?$CDockingWindowBaseImpl@VCServerListView@@VCWindow@ATL@@U?$CBoxedDockingWindowTraits@UCVC7LikeCaption@dockwins@@V?$CTabDockingBox@U?$CDockingBoxTraits@UCVC7LikeCaption@dockwins@@$0IGMPAAAA@$0IA@@dockwins@@@2@$0JGMPAAAA@$0IA@@dockwins@@@dockwins@@QBEPAUHWND__@@XZ 00445c90 f i HydraIRC.obj
 0001:00044c90       ?GetOwnerDockingBar@?$CDockingWindowBaseImpl@VCOutputView@@VCWindow@ATL@@U?$CBoxedDockingWindowTraits@VCVC7LikeExCaption@dockwins@@V?$CTabDockingBox@U?$CDockingBoxTraits@VCVC7LikeExCaption@dockwins@@$0IGMPAAAA@$0IA@@dockwins@@@2@$0JGMPAAAA@$0IA@@dockwins@@@dockwins@@QBEPAUHWND__@@XZ 00445c90 f i HydraIRC.obj
 0001:00044c90       ?rdbuf@?$basic_ios@DU?$char_traits@D@std@@@std@@QBEPAV?$basic_streambuf@DU?$char_traits@D@std@@@2@XZ 00445c90 f i HydraIRC.obj
 0001:00044c90       ?GetOwnerDockingBar@?$CDockingWindowBaseImpl@VCChannelMonitorView@@VCWindow@ATL@@U?$CBoxedDockingWindowTraits@VCVC7LikeExCaption@dockwins@@V?$CTabDockingBox@U?$CDockingBoxTraits@VCVC7LikeExCaption@dockwins@@$0IGMPAAAA@$0IA@@dockwins@@@2@$0JGMPAAAA@$0IA@@dockwins@@@dockwins@@QBEPAUHWND__@@XZ 00445c90 f i ChannelMonitor.obj
 0001:00044c90       ?GetOwnerDockingBar@?$CDockingWindowBaseImpl@V?$CTabDockingBox@U?$CDockingBoxTraits@VCVC7LikeExCaption@dockwins@@$0IGMPAAAA@$0IA@@dockwins@@@dockwins@@VCWindow@ATL@@U?$CDockingBoxTraits@VCVC7LikeExCaption@dockwins@@$0IGMPAAAA@$0IA@@2@@dockwins@@QBEPAUHWND__@@XZ 00445c90 f i EventLogFrm.obj
 0001:00044c90       ?GetOwnerDockingBar@?$CDockingWindowBaseImpl@VCUserListView@@VCWindow@ATL@@U?$CBoxedDockingWindowTraits@UCVC7LikeCaption@dockwins@@V?$CTabDockingBox@U?$CDockingBoxTraits@UCVC7LikeCaption@dockwins@@$0IGMPAAAA@$0IA@@dockwins@@@2@$0JGMPAAAA@$0IA@@dockwins@@@dockwins@@QBEPAUHWND__@@XZ 00445c90 f i ChildFrm.obj
 0001:00044c90       ?GetOwnerDockingBar@?$CDockingWindowBaseImpl@VCServerMonitorView@@VCWindow@ATL@@U?$CBoxedDockingWindowTraits@VCVC7LikeExCaption@dockwins@@V?$CTabDockingBox@U?$CDockingBoxTraits@VCVC7LikeExCaption@dockwins@@$0IGMPAAAA@$0IA@@dockwins@@@2@$0JGMPAAAA@$0IA@@dockwins@@@dockwins@@QBEPAUHWND__@@XZ 00445c90 f i HydraIRC.obj
 0001:00044c90       ?GetOwnerDockingBar@?$CDockingWindowBaseImpl@VCTransfersView@@VCWindow@ATL@@U?$CBoxedDockingWindowTraits@VCVC7LikeExCaption@dockwins@@V?$CTabDockingBox@U?$CDockingBoxTraits@VCVC7LikeExCaption@dockwins@@$0IGMPAAAA@$0IA@@dockwins@@@2@$0JGMPAAAA@$0IA@@dockwins@@@dockwins@@QBEPAUHWND__@@XZ 00445c90 f i HydraIRC.obj
 0001:00044c90       ?GetOwnerDockingBar@?$CDockingWindowBaseImpl@V?$CTabDockingBox@U?$CDockingBoxTraits@UCVC7LikeCaption@dockwins@@$0IGMPAAAA@$0IA@@dockwins@@@dockwins@@VCWindow@ATL@@U?$CDockingBoxTraits@UCVC7LikeCaption@dockwins@@$0IGMPAAAA@$0IA@@2@@dockwins@@QBEPAUHWND__@@XZ 00445c90 f i ChildFrm.obj
 0001:00044c90       ?GetOwnerDockingBar@?$CDockingWindowBaseImpl@VCEventLogView@@VCWindow@ATL@@U?$CBoxedDockingWindowTraits@VCVC7LikeExCaption@dockwins@@V?$CTabDockingBox@U?$CDockingBoxTraits@VCVC7LikeExCaption@dockwins@@$0IGMPAAAA@$0IA@@dockwins@@@2@$0JGMPAAAA@$0IA@@dockwins@@@dockwins@@QBEPAUHWND__@@XZ 00445c90 f i EventLogFrm.obj
 0001:00044c90       ?GetOwnerDockingBar@?$CDockingWindowBaseImpl@VCTextQueueView@@VCWindow@ATL@@U?$CBoxedDockingWindowTraits@VCVC7LikeExCaption@dockwins@@V?$CTabDockingBox@U?$CDockingBoxTraits@VCVC7LikeExCaption@dockwins@@$0IGMPAAAA@$0IA@@dockwins@@@2@$0JGMPAAAA@$0IA@@dockwins@@@dockwins@@QBEPAUHWND__@@XZ 00445c90 f i HydraIRC.obj
 0001:00044cb0       ?OnNcLButtonDown@?$CDockingWindowBaseImpl@VCTextQueueView@@VCWindow@ATL@@U?$CBoxedDockingWindowTraits@VCVC7LikeExCaption@dockwins@@V?$CTabDockingBox@U?$CDockingBoxTraits@VCVC7LikeExCaption@dockwins@@$0IGMPAAAA@$0IA@@dockwins@@@2@$0JGMPAAAA@$0IA@@dockwins@@@dockwins@@QAEJIIJAAH@Z 00445cb0 f i TextQueueFrm.obj
 0001:00044cb0       ?OnNcLButtonDown@?$CDockingWindowBaseImpl@VCEventLogView@@VCWindow@ATL@@U?$CBoxedDockingWindowTraits@VCVC7LikeExCaption@dockwins@@V?$CTabDockingBox@U?$CDockingBoxTraits@VCVC7LikeExCaption@dockwins@@$0IGMPAAAA@$0IA@@dockwins@@@2@$0JGMPAAAA@$0IA@@dockwins@@@dockwins@@QAEJIIJAAH@Z 00445cb0 f i EventLogFrm.obj
 0001:00044cb0       ?OnNcLButtonDown@?$CDockingWindowBaseImpl@VCChannelMonitorView@@VCWindow@ATL@@U?$CBoxedDockingWindowTraits@VCVC7LikeExCaption@dockwins@@V?$CTabDockingBox@U?$CDockingBoxTraits@VCVC7LikeExCaption@dockwins@@$0IGMPAAAA@$0IA@@dockwins@@@2@$0JGMPAAAA@$0IA@@dockwins@@@dockwins@@QAEJIIJAAH@Z 00445cb0 f i HydraIRC.obj
 0001:00044cb0       ?OnNcLButtonDown@?$CDockingWindowBaseImpl@VCTransfersView@@VCWindow@ATL@@U?$CBoxedDockingWindowTraits@VCVC7LikeExCaption@dockwins@@V?$CTabDockingBox@U?$CDockingBoxTraits@VCVC7LikeExCaption@dockwins@@$0IGMPAAAA@$0IA@@dockwins@@@2@$0JGMPAAAA@$0IA@@dockwins@@@dockwins@@QAEJIIJAAH@Z 00445cb0 f i Transfers.obj
 0001:00044cb0       ?OnNcLButtonDown@?$CDockingWindowBaseImpl@VCUserListView@@VCWindow@ATL@@U?$CBoxedDockingWindowTraits@UCVC7LikeCaption@dockwins@@V?$CTabDockingBox@U?$CDockingBoxTraits@UCVC7LikeCaption@dockwins@@$0IGMPAAAA@$0IA@@dockwins@@@2@$0JGMPAAAA@$0IA@@dockwins@@@dockwins@@QAEJIIJAAH@Z 00445cb0 f i ChildFrm.obj
 0001:00044cb0       ?OnNcLButtonDown@?$CDockingWindowBaseImpl@VCServerListView@@VCWindow@ATL@@U?$CBoxedDockingWindowTraits@UCVC7LikeCaption@dockwins@@V?$CTabDockingBox@U?$CDockingBoxTraits@UCVC7LikeCaption@dockwins@@$0IGMPAAAA@$0IA@@dockwins@@@2@$0JGMPAAAA@$0IA@@dockwins@@@dockwins@@QAEJIIJAAH@Z 00445cb0 f i HydraIRC.obj
 0001:00044cb0       ?OnNcLButtonDown@?$CDockingWindowBaseImpl@VCServerMonitorView@@VCWindow@ATL@@U?$CBoxedDockingWindowTraits@VCVC7LikeExCaption@dockwins@@V?$CTabDockingBox@U?$CDockingBoxTraits@VCVC7LikeExCaption@dockwins@@$0IGMPAAAA@$0IA@@dockwins@@@2@$0JGMPAAAA@$0IA@@dockwins@@@dockwins@@QAEJIIJAAH@Z 00445cb0 f i HydraIRC.obj
 0001:00044cb0       ?OnNcLButtonDown@?$CDockingWindowBaseImpl@VCOutputView@@VCWindow@ATL@@U?$CBoxedDockingWindowTraits@VCVC7LikeExCaption@dockwins@@V?$CTabDockingBox@U?$CDockingBoxTraits@VCVC7LikeExCaption@dockwins@@$0IGMPAAAA@$0IA@@dockwins@@@2@$0JGMPAAAA@$0IA@@dockwins@@@dockwins@@QAEJIIJAAH@Z 00445cb0 f i Output.obj
 0001:00044d70       ?OnDockStateChanged@?$CDockingWindowBaseImpl@VCServerMonitorView@@VCWindow@ATL@@U?$CBoxedDockingWindowTraits@VCVC7LikeExCaption@dockwins@@V?$CTabDockingBox@U?$CDockingBoxTraits@VCVC7LikeExCaption@dockwins@@$0IGMPAAAA@$0IA@@dockwins@@@2@$0JGMPAAAA@$0IA@@dockwins@@@dockwins@@QAEJIIJAAH@Z 00445d70 f i HydraIRC.obj
 0001:00044de0       ?IsDocking@?$CDockingWindowBaseImpl@VCTransfersView@@VCWindow@ATL@@U?$CBoxedDockingWindowTraits@VCVC7LikeExCaption@dockwins@@V?$CTabDockingBox@U?$CDockingBoxTraits@VCVC7LikeExCaption@dockwins@@$0IGMPAAAA@$0IA@@dockwins@@@2@$0JGMPAAAA@$0IA@@dockwins@@@dockwins@@QBE_NXZ 00445de0 f i HydraIRC.obj
 0001:00044de0       ?IsDocking@?$CDockingWindowBaseImpl@VCOutputView@@VCWindow@ATL@@U?$CBoxedDockingWindowTraits@VCVC7LikeExCaption@dockwins@@V?$CTabDockingBox@U?$CDockingBoxTraits@VCVC7LikeExCaption@dockwins@@$0IGMPAAAA@$0IA@@dockwins@@@2@$0JGMPAAAA@$0IA@@dockwins@@@dockwins@@QBE_NXZ 00445de0 f i HydraIRC.obj
 0001:00044de0       ?IsDocking@?$CDockingWindowBaseImpl@VCServerListView@@VCWindow@ATL@@U?$CBoxedDockingWindowTraits@UCVC7LikeCaption@dockwins@@V?$CTabDockingBox@U?$CDockingBoxTraits@UCVC7LikeCaption@dockwins@@$0IGMPAAAA@$0IA@@dockwins@@@2@$0JGMPAAAA@$0IA@@dockwins@@@dockwins@@QBE_NXZ 00445de0 f i HydraIRC.obj
 0001:00044de0       ?IsDocking@?$CDockingWindowBaseImpl@V?$CTabDockingBox@U?$CDockingBoxTraits@VCVC7LikeExCaption@dockwins@@$0IGMPAAAA@$0IA@@dockwins@@@dockwins@@VCWindow@ATL@@U?$CDockingBoxTraits@VCVC7LikeExCaption@dockwins@@$0IGMPAAAA@$0IA@@2@@dockwins@@QBE_NXZ 00445de0 f i EventLogFrm.obj
 0001:00044de0       ?IsDocking@?$CDockingWindowBaseImpl@VCTextQueueView@@VCWindow@ATL@@U?$CBoxedDockingWindowTraits@VCVC7LikeExCaption@dockwins@@V?$CTabDockingBox@U?$CDockingBoxTraits@VCVC7LikeExCaption@dockwins@@$0IGMPAAAA@$0IA@@dockwins@@@2@$0JGMPAAAA@$0IA@@dockwins@@@dockwins@@QBE_NXZ 00445de0 f i HydraIRC.obj
 0001:00044de0       ?IsDocking@?$CDockingWindowBaseImpl@VCChannelMonitorView@@VCWindow@ATL@@U?$CBoxedDockingWindowTraits@VCVC7LikeExCaption@dockwins@@V?$CTabDockingBox@U?$CDockingBoxTraits@VCVC7LikeExCaption@dockwins@@$0IGMPAAAA@$0IA@@dockwins@@@2@$0JGMPAAAA@$0IA@@dockwins@@@dockwins@@QBE_NXZ 00445de0 f i ChannelMonitor.obj
 0001:00044de0       ?IsDocking@?$CDockingWindowBaseImpl@VCEventLogView@@VCWindow@ATL@@U?$CBoxedDockingWindowTraits@VCVC7LikeExCaption@dockwins@@V?$CTabDockingBox@U?$CDockingBoxTraits@VCVC7LikeExCaption@dockwins@@$0IGMPAAAA@$0IA@@dockwins@@@2@$0JGMPAAAA@$0IA@@dockwins@@@dockwins@@QBE_NXZ 00445de0 f i EventLogFrm.obj
 0001:00044de0       ?IsDocking@?$CDockingWindowBaseImpl@VCUserListView@@VCWindow@ATL@@U?$CBoxedDockingWindowTraits@UCVC7LikeCaption@dockwins@@V?$CTabDockingBox@U?$CDockingBoxTraits@UCVC7LikeCaption@dockwins@@$0IGMPAAAA@$0IA@@dockwins@@@2@$0JGMPAAAA@$0IA@@dockwins@@@dockwins@@QBE_NXZ 00445de0 f i ChildFrm.obj
 0001:00044de0       ?IsDocking@?$CDockingWindowBaseImpl@VCServerMonitorView@@VCWindow@ATL@@U?$CBoxedDockingWindowTraits@VCVC7LikeExCaption@dockwins@@V?$CTabDockingBox@U?$CDockingBoxTraits@VCVC7LikeExCaption@dockwins@@$0IGMPAAAA@$0IA@@dockwins@@@2@$0JGMPAAAA@$0IA@@dockwins@@@dockwins@@QBE_NXZ 00445de0 f i HydraIRC.obj
 0001:00044de0       ?IsDocking@?$CDockingWindowBaseImpl@V?$CTabDockingBox@U?$CDockingBoxTraits@UCVC7LikeCaption@dockwins@@$0IGMPAAAA@$0IA@@dockwins@@@dockwins@@VCWindow@ATL@@U?$CDockingBoxTraits@UCVC7LikeCaption@dockwins@@$0IGMPAAAA@$0IA@@2@@dockwins@@QBE_NXZ 00445de0 f i ChildFrm.obj
 0001:00044e00       ?OnNcActivate@?$CTitleDockingWindowBaseImpl@V?$CTabDockingBox@U?$CDockingBoxTraits@VCVC7LikeExCaption@dockwins@@$0IGMPAAAA@$0IA@@dockwins@@@dockwins@@VCWindow@ATL@@U?$CDockingBoxTraits@VCVC7LikeExCaption@dockwins@@$0IGMPAAAA@$0IA@@2@@dockwins@@QAEJIIJAAH@Z 00445e00 f i EventLogFrm.obj
 0001:00044e00       ?OnNcActivate@?$CTitleDockingWindowBaseImpl@VCEventLogView@@VCWindow@ATL@@U?$CBoxedDockingWindowTraits@VCVC7LikeExCaption@dockwins@@V?$CTabDockingBox@U?$CDockingBoxTraits@VCVC7LikeExCaption@dockwins@@$0IGMPAAAA@$0IA@@dockwins@@@2@$0JGMPAAAA@$0IA@@dockwins@@@dockwins@@QAEJIIJAAH@Z 00445e00 f i EventLogFrm.obj
 0001:00044e00       ?OnNcActivate@?$CTitleDockingWindowBaseImpl@VCTransfersView@@VCWindow@ATL@@U?$CBoxedDockingWindowTraits@VCVC7LikeExCaption@dockwins@@V?$CTabDockingBox@U?$CDockingBoxTraits@VCVC7LikeExCaption@dockwins@@$0IGMPAAAA@$0IA@@dockwins@@@2@$0JGMPAAAA@$0IA@@dockwins@@@dockwins@@QAEJIIJAAH@Z 00445e00 f i Transfers.obj
 0001:00044e00       ?OnNcActivate@?$CAutoHidePaneImpl@V?$CAutoHideManager@U?$CDockingWindowTraits@UCVC7LikeCaption@dockwins@@$0EGMAAAAA@$0IA@@dockwins@@@dockwins@@VCWindow@ATL@@U?$CDockingWindowTraits@UCVC7LikeCaption@dockwins@@$0EGMAAAAA@$0IA@@2@@dockwins@@QAEJIIJAAH@Z 00445e00 f i HydraIRC.obj
 0001:00044e00       ?OnNcActivate@?$CTitleDockingWindowBaseImpl@VCUserListView@@VCWindow@ATL@@U?$CBoxedDockingWindowTraits@UCVC7LikeCaption@dockwins@@V?$CTabDockingBox@U?$CDockingBoxTraits@UCVC7LikeCaption@dockwins@@$0IGMPAAAA@$0IA@@dockwins@@@2@$0JGMPAAAA@$0IA@@dockwins@@@dockwins@@QAEJIIJAAH@Z 00445e00 f i ChildFrm.obj
 0001:00044e00       ?OnNcActivate@?$CTitleDockingWindowBaseImpl@VCServerListView@@VCWindow@ATL@@U?$CBoxedDockingWindowTraits@UCVC7LikeCaption@dockwins@@V?$CTabDockingBox@U?$CDockingBoxTraits@UCVC7LikeCaption@dockwins@@$0IGMPAAAA@$0IA@@dockwins@@@2@$0JGMPAAAA@$0IA@@dockwins@@@dockwins@@QAEJIIJAAH@Z 00445e00 f i HydraIRC.obj
 0001:00044e00       ?OnNcActivate@?$CTitleDockingWindowBaseImpl@VCTextQueueView@@VCWindow@ATL@@U?$CBoxedDockingWindowTraits@VCVC7LikeExCaption@dockwins@@V?$CTabDockingBox@U?$CDockingBoxTraits@VCVC7LikeExCaption@dockwins@@$0IGMPAAAA@$0IA@@dockwins@@@2@$0JGMPAAAA@$0IA@@dockwins@@@dockwins@@QAEJIIJAAH@Z 00445e00 f i TextQueueFrm.obj
 0001:00044e00       ?OnNcActivate@?$CTitleDockingWindowBaseImpl@VCServerMonitorView@@VCWindow@ATL@@U?$CBoxedDockingWindowTraits@VCVC7LikeExCaption@dockwins@@V?$CTabDockingBox@U?$CDockingBoxTraits@VCVC7LikeExCaption@dockwins@@$0IGMPAAAA@$0IA@@dockwins@@@2@$0JGMPAAAA@$0IA@@dockwins@@@dockwins@@QAEJIIJAAH@Z 00445e00 f i HydraIRC.obj
 0001:00044e00       ?OnNcActivate@?$CTitleDockingWindowBaseImpl@VCOutputView@@VCWindow@ATL@@U?$CBoxedDockingWindowTraits@VCVC7LikeExCaption@dockwins@@V?$CTabDockingBox@U?$CDockingBoxTraits@VCVC7LikeExCaption@dockwins@@$0IGMPAAAA@$0IA@@dockwins@@@2@$0JGMPAAAA@$0IA@@dockwins@@@dockwins@@QAEJIIJAAH@Z 00445e00 f i Output.obj
 0001:00044e00       ?OnNcActivate@?$CTitleDockingWindowBaseImpl@VCChannelMonitorView@@VCWindow@ATL@@U?$CBoxedDockingWindowTraits@VCVC7LikeExCaption@dockwins@@V?$CTabDockingBox@U?$CDockingBoxTraits@VCVC7LikeExCaption@dockwins@@$0IGMPAAAA@$0IA@@dockwins@@@2@$0JGMPAAAA@$0IA@@dockwins@@@dockwins@@QAEJIIJAAH@Z 00445e00 f i HydraIRC.obj
 0001:00044e00       ?OnNcActivate@?$CTitleDockingWindowBaseImpl@V?$CTabDockingBox@U?$CDockingBoxTraits@UCVC7LikeCaption@dockwins@@$0IGMPAAAA@$0IA@@dockwins@@@dockwins@@VCWindow@ATL@@U?$CDockingBoxTraits@UCVC7LikeCaption@dockwins@@$0IGMPAAAA@$0IA@@2@@dockwins@@QAEJIIJAAH@Z 00445e00 f i ChildFrm.obj
 0001:00044e30       ?OnDockStateChanged@?$CDockingWindowBaseImpl@VCServerListView@@VCWindow@ATL@@U?$CBoxedDockingWindowTraits@UCVC7LikeCaption@dockwins@@V?$CTabDockingBox@U?$CDockingBoxTraits@UCVC7LikeCaption@dockwins@@$0IGMPAAAA@$0IA@@dockwins@@@2@$0JGMPAAAA@$0IA@@dockwins@@@dockwins@@QAEJIIJAAH@Z 00445e30 f i HydraIRC.obj
 0001:00044ea0       ?AtlLoadIconImage@WTL@@YAPAUHICON__@@V_U_STRINGorID@ATL@@IHH@Z 00445ea0 f i HydraIRC.obj
 0001:00044ed0       ?OnCreate@?$CDockingFrameImplBase@VCMainFrame@@V?$CMDIFrameWindowImpl@VCMainFrame@@VCHidingMDIWindow@@U?$CDockingFrameTraitsT@U?$CDockingWindowTraits@UCVC7LikeCaption@dockwins@@$0EGMAAAAA@$0IA@@dockwins@@V?$CSimpleSplitterBar@$02@2@$0GMPAAAA@$0EABAA@@dockwins@@@WTL@@U?$CDockingFrameTraitsT@U?$CDockingWindowTraits@UCVC7LikeCaption@dockwins@@$0EGMAAAAA@$0IA@@dockwins@@V?$CSimpleSplitterBar@$02@2@$0GMPAAAA@$0EABAA@@dockwins@@U?$CDockingWindowTraits@UCVC7LikeCaption@dockwins@@$0EGMAAAAA@$0IA@@5@@dockwins@@QAEJIIJAAH@Z 00445ed0 f i HydraIRC.obj
 0001:00044f10       ?OnDestroy@?$CDockingFrameImplBase@VCMainFrame@@V?$CMDIFrameWindowImpl@VCMainFrame@@VCHidingMDIWindow@@U?$CDockingFrameTraitsT@U?$CDockingWindowTraits@UCVC7LikeCaption@dockwins@@$0EGMAAAAA@$0IA@@dockwins@@V?$CSimpleSplitterBar@$02@2@$0GMPAAAA@$0EABAA@@dockwins@@@WTL@@U?$CDockingFrameTraitsT@U?$CDockingWindowTraits@UCVC7LikeCaption@dockwins@@$0EGMAAAAA@$0IA@@dockwins@@V?$CSimpleSplitterBar@$02@2@$0GMPAAAA@$0EABAA@@dockwins@@U?$CDockingWindowTraits@UCVC7LikeCaption@dockwins@@$0EGMAAAAA@$0IA@@5@@dockwins@@QAEJIIJAAH@Z 00445f10 f i HydraIRC.obj
 0001:00044f40       ?OnSysColorChange@?$CDockingFrameImplBase@VCMainFrame@@V?$CMDIFrameWindowImpl@VCMainFrame@@VCHidingMDIWindow@@U?$CDockingFrameTraitsT@U?$CDockingWindowTraits@UCVC7LikeCaption@dockwins@@$0EGMAAAAA@$0IA@@dockwins@@V?$CSimpleSplitterBar@$02@2@$0GMPAAAA@$0EABAA@@dockwins@@@WTL@@U?$CDockingFrameTraitsT@U?$CDockingWindowTraits@UCVC7LikeCaption@dockwins@@$0EGMAAAAA@$0IA@@dockwins@@V?$CSimpleSplitterBar@$02@2@$0GMPAAAA@$0EABAA@@dockwins@@U?$CDockingWindowTraits@UCVC7LikeCaption@dockwins@@$0EGMAAAAA@$0IA@@5@@dockwins@@QAEJIIJAAH@Z 00445f40 f i HydraIRC.obj
 0001:00044f40       ?OnSettingChange@?$CDockingFrameImplBase@VCMainFrame@@V?$CMDIFrameWindowImpl@VCMainFrame@@VCHidingMDIWindow@@U?$CDockingFrameTraitsT@U?$CDockingWindowTraits@UCVC7LikeCaption@dockwins@@$0EGMAAAAA@$0IA@@dockwins@@V?$CSimpleSplitterBar@$02@2@$0GMPAAAA@$0EABAA@@dockwins@@@WTL@@U?$CDockingFrameTraitsT@U?$CDockingWindowTraits@UCVC7LikeCaption@dockwins@@$0EGMAAAAA@$0IA@@dockwins@@V?$CSimpleSplitterBar@$02@2@$0GMPAAAA@$0EABAA@@dockwins@@U?$CDockingWindowTraits@UCVC7LikeCaption@dockwins@@$0EGMAAAAA@$0IA@@5@@dockwins@@QAEJIIJAAH@Z 00445f40 f i HydraIRC.obj
 0001:00044f60       ?OnPaint@?$CDockingFrameImplBase@VCMainFrame@@V?$CMDIFrameWindowImpl@VCMainFrame@@VCHidingMDIWindow@@U?$CDockingFrameTraitsT@U?$CDockingWindowTraits@UCVC7LikeCaption@dockwins@@$0EGMAAAAA@$0IA@@dockwins@@V?$CSimpleSplitterBar@$02@2@$0GMPAAAA@$0EABAA@@dockwins@@@WTL@@U?$CDockingFrameTraitsT@U?$CDockingWindowTraits@UCVC7LikeCaption@dockwins@@$0EGMAAAAA@$0IA@@dockwins@@V?$CSimpleSplitterBar@$02@2@$0GMPAAAA@$0EABAA@@dockwins@@U?$CDockingWindowTraits@UCVC7LikeCaption@dockwins@@$0EGMAAAAA@$0IA@@5@@dockwins@@QAEJIIJAAH@Z 00445f60 f i HydraIRC.obj
 0001:00044ff0       ?OnSetFocus@?$CDockingFrameImplBase@VCMainFrame@@V?$CMDIFrameWindowImpl@VCMainFrame@@VCHidingMDIWindow@@U?$CDockingFrameTraitsT@U?$CDockingWindowTraits@UCVC7LikeCaption@dockwins@@$0EGMAAAAA@$0IA@@dockwins@@V?$CSimpleSplitterBar@$02@2@$0GMPAAAA@$0EABAA@@dockwins@@@WTL@@U?$CDockingFrameTraitsT@U?$CDockingWindowTraits@UCVC7LikeCaption@dockwins@@$0EGMAAAAA@$0IA@@dockwins@@V?$CSimpleSplitterBar@$02@2@$0GMPAAAA@$0EABAA@@dockwins@@U?$CDockingWindowTraits@UCVC7LikeCaption@dockwins@@$0EGMAAAAA@$0IA@@5@@dockwins@@QAEJIIJAAH@Z 00445ff0 f i HydraIRC.obj
 0001:00044ff0       ?OnSetFocus@?$CMDIFrameWindowImpl@VCMainFrame@@VCHidingMDIWindow@@U?$CDockingFrameTraitsT@U?$CDockingWindowTraits@UCVC7LikeCaption@dockwins@@$0EGMAAAAA@$0IA@@dockwins@@V?$CSimpleSplitterBar@$02@2@$0GMPAAAA@$0EABAA@@dockwins@@@WTL@@QAEJIIJAAH@Z 00445ff0 f i HydraIRC.obj
 0001:00045020       ?OnSetCursor@?$CDockingFrameImplBase@VCMainFrame@@V?$CMDIFrameWindowImpl@VCMainFrame@@VCHidingMDIWindow@@U?$CDockingFrameTraitsT@U?$CDockingWindowTraits@UCVC7LikeCaption@dockwins@@$0EGMAAAAA@$0IA@@dockwins@@V?$CSimpleSplitterBar@$02@2@$0GMPAAAA@$0EABAA@@dockwins@@@WTL@@U?$CDockingFrameTraitsT@U?$CDockingWindowTraits@UCVC7LikeCaption@dockwins@@$0EGMAAAAA@$0IA@@dockwins@@V?$CSimpleSplitterBar@$02@2@$0GMPAAAA@$0EABAA@@dockwins@@U?$CDockingWindowTraits@UCVC7LikeCaption@dockwins@@$0EGMAAAAA@$0IA@@5@@dockwins@@QAEJIIJAAH@Z 00446020 f i HydraIRC.obj
 0001:000450e0       ?OnLButtonDown@?$CDockingFrameImplBase@VCMainFrame@@V?$CMDIFrameWindowImpl@VCMainFrame@@VCHidingMDIWindow@@U?$CDockingFrameTraitsT@U?$CDockingWindowTraits@UCVC7LikeCaption@dockwins@@$0EGMAAAAA@$0IA@@dockwins@@V?$CSimpleSplitterBar@$02@2@$0GMPAAAA@$0EABAA@@dockwins@@@WTL@@U?$CDockingFrameTraitsT@U?$CDockingWindowTraits@UCVC7LikeCaption@dockwins@@$0EGMAAAAA@$0IA@@dockwins@@V?$CSimpleSplitterBar@$02@2@$0GMPAAAA@$0EABAA@@dockwins@@U?$CDockingWindowTraits@UCVC7LikeCaption@dockwins@@$0EGMAAAAA@$0IA@@5@@dockwins@@QAEJIIJAAH@Z 004460e0 f i HydraIRC.obj
 0001:00045140       ?OnGetMinMaxInfo@?$CDockingFrameImplBase@VCMainFrame@@V?$CMDIFrameWindowImpl@VCMainFrame@@VCHidingMDIWindow@@U?$CDockingFrameTraitsT@U?$CDockingWindowTraits@UCVC7LikeCaption@dockwins@@$0EGMAAAAA@$0IA@@dockwins@@V?$CSimpleSplitterBar@$02@2@$0GMPAAAA@$0EABAA@@dockwins@@@WTL@@U?$CDockingFrameTraitsT@U?$CDockingWindowTraits@UCVC7LikeCaption@dockwins@@$0EGMAAAAA@$0IA@@dockwins@@V?$CSimpleSplitterBar@$02@2@$0GMPAAAA@$0EABAA@@dockwins@@U?$CDockingWindowTraits@UCVC7LikeCaption@dockwins@@$0EGMAAAAA@$0IA@@5@@dockwins@@QAEJIIJAAH@Z 00446140 f i HydraIRC.obj
 0001:00045180       ?OnMouseMove@?$CDockingFrameImplBase@VCMainFrame@@V?$CMDIFrameWindowImpl@VCMainFrame@@VCHidingMDIWindow@@U?$CDockingFrameTraitsT@U?$CDockingWindowTraits@UCVC7LikeCaption@dockwins@@$0EGMAAAAA@$0IA@@dockwins@@V?$CSimpleSplitterBar@$02@2@$0GMPAAAA@$0EABAA@@dockwins@@@WTL@@U?$CDockingFrameTraitsT@U?$CDockingWindowTraits@UCVC7LikeCaption@dockwins@@$0EGMAAAAA@$0IA@@dockwins@@V?$CSimpleSplitterBar@$02@2@$0GMPAAAA@$0EABAA@@dockwins@@U?$CDockingWindowTraits@UCVC7LikeCaption@dockwins@@$0EGMAAAAA@$0IA@@5@@dockwins@@QAEJIIJAAH@Z 00446180 f i HydraIRC.obj
 0001:000451e0       ?OnMouseHover@?$CDockingFrameImplBase@VCMainFrame@@V?$CMDIFrameWindowImpl@VCMainFrame@@VCHidingMDIWindow@@U?$CDockingFrameTraitsT@U?$CDockingWindowTraits@UCVC7LikeCaption@dockwins@@$0EGMAAAAA@$0IA@@dockwins@@V?$CSimpleSplitterBar@$02@2@$0GMPAAAA@$0EABAA@@dockwins@@@WTL@@U?$CDockingFrameTraitsT@U?$CDockingWindowTraits@UCVC7LikeCaption@dockwins@@$0EGMAAAAA@$0IA@@dockwins@@V?$CSimpleSplitterBar@$02@2@$0GMPAAAA@$0EABAA@@dockwins@@U?$CDockingWindowTraits@UCVC7LikeCaption@dockwins@@$0EGMAAAAA@$0IA@@5@@dockwins@@QAEJIIJAAH@Z 004461e0 f i HydraIRC.obj
 0001:00045240       ?OnDock@?$CDockingFrameImplBase@VCMainFrame@@V?$CMDIFrameWindowImpl@VCMainFrame@@VCHidingMDIWindow@@U?$CDockingFrameTraitsT@U?$CDockingWindowTraits@UCVC7LikeCaption@dockwins@@$0EGMAAAAA@$0IA@@dockwins@@V?$CSimpleSplitterBar@$02@2@$0GMPAAAA@$0EABAA@@dockwins@@@WTL@@U?$CDockingFrameTraitsT@U?$CDockingWindowTraits@UCVC7LikeCaption@dockwins@@$0EGMAAAAA@$0IA@@dockwins@@V?$CSimpleSplitterBar@$02@2@$0GMPAAAA@$0EABAA@@dockwins@@U?$CDockingWindowTraits@UCVC7LikeCaption@dockwins@@$0EGMAAAAA@$0IA@@5@@dockwins@@QAEJIIJAAH@Z 00446240 f i HydraIRC.obj
 0001:00045350       ?Create@?$CMDIFrameWindowImpl@VCMainFrame@@VCHidingMDIWindow@@U?$CDockingFrameTraitsT@U?$CDockingWindowTraits@UCVC7LikeCaption@dockwins@@$0EGMAAAAA@$0IA@@dockwins@@V?$CSimpleSplitterBar@$02@2@$0GMPAAAA@$0EABAA@@dockwins@@@WTL@@QAEPAUHWND__@@PAU3@V_U_RECT@ATL@@PBDKKPAUHMENU__@@PAX@Z 00446350 f i HydraIRC.obj
 0001:000453f0       ?MDIFrameWindowProc@?$CMDIFrameWindowImpl@VCMainFrame@@VCHidingMDIWindow@@U?$CDockingFrameTraitsT@U?$CDockingWindowTraits@UCVC7LikeCaption@dockwins@@$0EGMAAAAA@$0IA@@dockwins@@V?$CSimpleSplitterBar@$02@2@$0GMPAAAA@$0EABAA@@dockwins@@@WTL@@SGJPAUHWND__@@IIJ@Z 004463f0 f i HydraIRC.obj
 0001:00045560       ?OnSize@?$CMDIFrameWindowImpl@VCMainFrame@@VCHidingMDIWindow@@U?$CDockingFrameTraitsT@U?$CDockingWindowTraits@UCVC7LikeCaption@dockwins@@$0EGMAAAAA@$0IA@@dockwins@@V?$CSimpleSplitterBar@$02@2@$0GMPAAAA@$0EABAA@@dockwins@@@WTL@@QAEJIIJAAH@Z 00446560 f i HydraIRC.obj
 0001:00045590       ?OnMDISetMenu@?$CMDIFrameWindowImpl@VCMainFrame@@VCHidingMDIWindow@@U?$CDockingFrameTraitsT@U?$CDockingWindowTraits@UCVC7LikeCaption@dockwins@@$0EGMAAAAA@$0IA@@dockwins@@V?$CSimpleSplitterBar@$02@2@$0GMPAAAA@$0EABAA@@dockwins@@@WTL@@QAEJIIJAAH@Z 00446590 f i HydraIRC.obj
 0001:000455b0       ?OnReBarAutoSize@?$CMDIFrameWindowImpl@VCMainFrame@@VCHidingMDIWindow@@U?$CDockingFrameTraitsT@U?$CDockingWindowTraits@UCVC7LikeCaption@dockwins@@$0EGMAAAAA@$0IA@@dockwins@@V?$CSimpleSplitterBar@$02@2@$0GMPAAAA@$0EABAA@@dockwins@@@WTL@@QAEJHPAUtagNMHDR@@AAH@Z 004465b0 f i HydraIRC.obj
 0001:000455e0       ?OnChevronPushed@?$CMDIFrameWindowImpl@VCMainFrame@@VCHidingMDIWindow@@U?$CDockingFrameTraitsT@U?$CDockingWindowTraits@UCVC7LikeCaption@dockwins@@$0EGMAAAAA@$0IA@@dockwins@@V?$CSimpleSplitterBar@$02@2@$0GMPAAAA@$0EABAA@@dockwins@@@WTL@@QAEJHPAUtagNMHDR@@AAH@Z 004465e0 f i HydraIRC.obj
 0001:000455e0       ?OnChevronPushed@?$CMDIChildWindowImpl@VCChildCommon@@VCMDIWindow@WTL@@V?$CWinTraits@$0FGMPAAAA@$0EA@@ATL@@@WTL@@QAEJHPAUtagNMHDR@@AAH@Z 004465e0 f i ChildFrm.obj
 0001:00045650       ??0?$CFrameWindowImplBase@VCHidingMDIWindow@@U?$CDockingFrameTraitsT@U?$CDockingWindowTraits@UCVC7LikeCaption@dockwins@@$0EGMAAAAA@$0IA@@dockwins@@V?$CSimpleSplitterBar@$02@2@$0GMPAAAA@$0EABAA@@dockwins@@@WTL@@QAE@XZ 00446650 f i HydraIRC.obj
 0001:00045690       ?OnEraseBackground@?$CFrameWindowImplBase@VCHidingMDIWindow@@U?$CDockingFrameTraitsT@U?$CDockingWindowTraits@UCVC7LikeCaption@dockwins@@$0EGMAAAAA@$0IA@@dockwins@@V?$CSimpleSplitterBar@$02@2@$0GMPAAAA@$0EABAA@@dockwins@@@WTL@@QAEJIIJAAH@Z 00446690 f i HydraIRC.obj
 0001:00045690       ?OnEraseBackground@?$CFrameWindowImplBase@VCMDIWindow@WTL@@V?$CWinTraits@$0FGMPAAAA@$0EA@@ATL@@@WTL@@QAEJIIJAAH@Z 00446690 f i ChildFrm.obj
 0001:000456c0       ?OnSetFocus@?$CFrameWindowImplBase@VCMDIWindow@WTL@@V?$CWinTraits@$0FGMPAAAA@$0EA@@ATL@@@WTL@@QAEJIIJAAH@Z 004466c0 f i ChildFrm.obj
 0001:000456c0       ?OnSetFocus@?$CFrameWindowImplBase@VCHidingMDIWindow@@U?$CDockingFrameTraitsT@U?$CDockingWindowTraits@UCVC7LikeCaption@dockwins@@$0EGMAAAAA@$0IA@@dockwins@@V?$CSimpleSplitterBar@$02@2@$0GMPAAAA@$0EABAA@@dockwins@@@WTL@@QAEJIIJAAH@Z 004466c0 f i HydraIRC.obj
 0001:00045700       ?OnToolTipTextW@?$CFrameWindowImplBase@VCMDIWindow@WTL@@V?$CWinTraits@$0FGMPAAAA@$0EA@@ATL@@@WTL@@QAEJHPAUtagNMHDR@@AAH@Z 00446700 f i ChildFrm.obj
 0001:00045700       ?OnToolTipTextW@?$CFrameWindowImplBase@VCHidingMDIWindow@@U?$CDockingFrameTraitsT@U?$CDockingWindowTraits@UCVC7LikeCaption@dockwins@@$0EGMAAAAA@$0IA@@dockwins@@V?$CSimpleSplitterBar@$02@2@$0GMPAAAA@$0EABAA@@dockwins@@@WTL@@QAEJHPAUtagNMHDR@@AAH@Z 00446700 f i HydraIRC.obj
 0001:00045810       ??0?$CSubWndFramesPackage@V?$CPackageWindowFrame@U?$CDockingFrameTraitsT@U?$CDockingWindowTraits@UCVC7LikeCaption@dockwins@@$0EGMAAAAA@$0IA@@dockwins@@V?$CSimpleSplitterBar@$02@2@$0GMPAAAA@$0EABAA@@dockwins@@@dockwins@@U?$CDockingFrameTraitsT@U?$CDockingWindowTraits@UCVC7LikeCaption@dockwins@@$0EGMAAAAA@$0IA@@dockwins@@V?$CSimpleSplitterBar@$02@2@$0GMPAAAA@$0EABAA@@2@@dockwins@@QAE@_N@Z 00446810 f i HydraIRC.obj
 0001:00045890       ?_Tidy@?$deque@V?$CPtrFrame@UIFrame@dockwins@@@dockwins@@V?$allocator@V?$CPtrFrame@UIFrame@dockwins@@@dockwins@@@std@@@std@@IAEXXZ 00446890 f i HydraIRC.obj
 0001:00045950       ??0?$CAutoHideManager@U?$CDockingWindowTraits@UCVC7LikeCaption@dockwins@@$0EGMAAAAA@$0IA@@dockwins@@@dockwins@@QAE@XZ 00446950 f i HydraIRC.obj
 0001:00045a20       ?ProcessWindowMessage@?$CAutoHideManager@U?$CDockingWindowTraits@UCVC7LikeCaption@dockwins@@$0EGMAAAAA@$0IA@@dockwins@@@dockwins@@UAEHPAUHWND__@@IIJAAJK@Z 00446a20 f i HydraIRC.obj
 0001:00045b60       ?ProcessWindowMessage@?$CAutoHidePaneImpl@V?$CAutoHideManager@U?$CDockingWindowTraits@UCVC7LikeCaption@dockwins@@$0EGMAAAAA@$0IA@@dockwins@@@dockwins@@VCWindow@ATL@@U?$CDockingWindowTraits@UCVC7LikeCaption@dockwins@@$0EGMAAAAA@$0IA@@2@@dockwins@@UAEHPAUHWND__@@IIJAAJK@Z 00446b60 f i HydraIRC.obj
 0001:00045e90       ?OnDestroy@?$CAutoHideManager@U?$CDockingWindowTraits@UCVC7LikeCaption@dockwins@@$0EGMAAAAA@$0IA@@dockwins@@@dockwins@@QAEJIIJAAH@Z 00446e90 f i HydraIRC.obj
 0001:00045ec0       ?OnTimer@?$CAutoHideManager@U?$CDockingWindowTraits@UCVC7LikeCaption@dockwins@@$0EGMAAAAA@$0IA@@dockwins@@@dockwins@@QAEJIIJAAH@Z 00446ec0 f i HydraIRC.obj
 0001:00045fa0       ?OnSize@?$CAutoHideManager@U?$CDockingWindowTraits@UCVC7LikeCaption@dockwins@@$0EGMAAAAA@$0IA@@dockwins@@@dockwins@@QAEJIIJAAH@Z 00446fa0 f i HydraIRC.obj
 0001:00046090       ?OnDock@?$CAutoHideManager@U?$CDockingWindowTraits@UCVC7LikeCaption@dockwins@@$0EGMAAAAA@$0IA@@dockwins@@@dockwins@@QAEJIIJAAH@Z 00447090 f i HydraIRC.obj
 0001:000460e0       ?OnGetMinMaxInfo@?$CAutoHidePaneImpl@V?$CAutoHideManager@U?$CDockingWindowTraits@UCVC7LikeCaption@dockwins@@$0EGMAAAAA@$0IA@@dockwins@@@dockwins@@VCWindow@ATL@@U?$CDockingWindowTraits@UCVC7LikeCaption@dockwins@@$0EGMAAAAA@$0IA@@2@@dockwins@@QAEJIIJAAH@Z 004470e0 f i HydraIRC.obj
 0001:00046120       ?OnNcCalcSize@?$CAutoHidePaneImpl@V?$CAutoHideManager@U?$CDockingWindowTraits@UCVC7LikeCaption@dockwins@@$0EGMAAAAA@$0IA@@dockwins@@@dockwins@@VCWindow@ATL@@U?$CDockingWindowTraits@UCVC7LikeCaption@dockwins@@$0EGMAAAAA@$0IA@@2@@dockwins@@QAEJIIJAAH@Z 00447120 f i HydraIRC.obj
 0001:000461a0       ?OnNcHitTest@?$CAutoHidePaneImpl@V?$CAutoHideManager@U?$CDockingWindowTraits@UCVC7LikeCaption@dockwins@@$0EGMAAAAA@$0IA@@dockwins@@@dockwins@@VCWindow@ATL@@U?$CDockingWindowTraits@UCVC7LikeCaption@dockwins@@$0EGMAAAAA@$0IA@@2@@dockwins@@QAEJIIJAAH@Z 004471a0 f i HydraIRC.obj
 0001:00046220       ?OnNcPaint@?$CAutoHidePaneImpl@V?$CAutoHideManager@U?$CDockingWindowTraits@UCVC7LikeCaption@dockwins@@$0EGMAAAAA@$0IA@@dockwins@@@dockwins@@VCWindow@ATL@@U?$CDockingWindowTraits@UCVC7LikeCaption@dockwins@@$0EGMAAAAA@$0IA@@2@@dockwins@@QAEJIIJAAH@Z 00447220 f i HydraIRC.obj
 0001:000462a0       ?OnNcLButtonDown@?$CAutoHidePaneImpl@V?$CAutoHideManager@U?$CDockingWindowTraits@UCVC7LikeCaption@dockwins@@$0EGMAAAAA@$0IA@@dockwins@@@dockwins@@VCWindow@ATL@@U?$CDockingWindowTraits@UCVC7LikeCaption@dockwins@@$0EGMAAAAA@$0IA@@2@@dockwins@@QAEJIIJAAH@Z 004472a0 f i HydraIRC.obj
 0001:00046310       ?OnNcLButtonUp@?$CAutoHidePaneImpl@V?$CAutoHideManager@U?$CDockingWindowTraits@UCVC7LikeCaption@dockwins@@$0EGMAAAAA@$0IA@@dockwins@@@dockwins@@VCWindow@ATL@@U?$CDockingWindowTraits@UCVC7LikeCaption@dockwins@@$0EGMAAAAA@$0IA@@2@@dockwins@@QAEJIIJAAH@Z 00447310 f i HydraIRC.obj
 0001:000463d0       ?OnClose@?$CAutoHidePaneImpl@V?$CAutoHideManager@U?$CDockingWindowTraits@UCVC7LikeCaption@dockwins@@$0EGMAAAAA@$0IA@@dockwins@@@dockwins@@VCWindow@ATL@@U?$CDockingWindowTraits@UCVC7LikeCaption@dockwins@@$0EGMAAAAA@$0IA@@2@@dockwins@@QAEJIIJAAH@Z 004473d0 f i HydraIRC.obj
 0001:00046400       ?OnSettingChange@?$CAutoHidePaneImpl@V?$CAutoHideManager@U?$CDockingWindowTraits@UCVC7LikeCaption@dockwins@@$0EGMAAAAA@$0IA@@dockwins@@@dockwins@@VCWindow@ATL@@U?$CDockingWindowTraits@UCVC7LikeCaption@dockwins@@$0EGMAAAAA@$0IA@@2@@dockwins@@QAEJIIJAAH@Z 00447400 f i HydraIRC.obj
 0001:00046400       ?OnSysColorChange@?$CAutoHidePaneImpl@V?$CAutoHideManager@U?$CDockingWindowTraits@UCVC7LikeCaption@dockwins@@$0EGMAAAAA@$0IA@@dockwins@@@dockwins@@VCWindow@ATL@@U?$CDockingWindowTraits@UCVC7LikeCaption@dockwins@@$0EGMAAAAA@$0IA@@2@@dockwins@@QAEJIIJAAH@Z 00447400 f i HydraIRC.obj
 0001:00046450       ?UnsubclassWindow@?$CTabbedMDIClient@V?$CDotNetTabCtrl@VCTabViewTabItem@@@@V?$CMDITabOwner@V?$CDotNetTabCtrl@VCTabViewTabItem@@@@@@@@QAEPAUHWND__@@H@Z 00447450 f i HydraIRC.obj
 0001:00046480       ?OnChildHidden@?$CTabbedMDIClient@V?$CDotNetTabCtrl@VCTabViewTabItem@@@@V?$CMDITabOwner@V?$CDotNetTabCtrl@VCTabViewTabItem@@@@@@@@QAEJIIJAAH@Z 00447480 f i HydraIRC.obj
 0001:000464b0       ?OnCreate@?$CTabbedMDIClient@V?$CDotNetTabCtrl@VCTabViewTabItem@@@@V?$CMDITabOwner@V?$CDotNetTabCtrl@VCTabViewTabItem@@@@@@@@QAEJIIJAAH@Z 004474b0 f i HydraIRC.obj
 0001:00046500       ?OnSettingChange@?$CTabbedMDIClient@V?$CDotNetTabCtrl@VCTabViewTabItem@@@@V?$CMDITabOwner@V?$CDotNetTabCtrl@VCTabViewTabItem@@@@@@@@QAEJIIJAAH@Z 00447500 f i HydraIRC.obj
 0001:00046550       ?OnWindowPosChanging@?$CTabbedMDIClient@V?$CDotNetTabCtrl@VCTabViewTabItem@@@@V?$CMDITabOwner@V?$CDotNetTabCtrl@VCTabViewTabItem@@@@@@@@QAEJIIJAAH@Z 00447550 f i HydraIRC.obj
 0001:000466d0       ?OnNcPaint@?$CTabbedMDIClient@V?$CDotNetTabCtrl@VCTabViewTabItem@@@@V?$CMDITabOwner@V?$CDotNetTabCtrl@VCTabViewTabItem@@@@@@@@QAEJIIJAAH@Z 004476d0 f i HydraIRC.obj
 0001:000467b0       ?OnMDIDestroy@?$CTabbedMDIClient@V?$CDotNetTabCtrl@VCTabViewTabItem@@@@V?$CMDITabOwner@V?$CDotNetTabCtrl@VCTabViewTabItem@@@@@@@@QAEJIIJAAH@Z 004477b0 f i HydraIRC.obj
 0001:00046800       ?OnChildActivationChange@?$CTabbedMDIClient@V?$CDotNetTabCtrl@VCTabViewTabItem@@@@V?$CMDITabOwner@V?$CDotNetTabCtrl@VCTabViewTabItem@@@@@@@@QAEJIIJAAH@Z 00447800 f i HydraIRC.obj
 0001:00046830       ?OnChildTabTextChange@?$CTabbedMDIClient@V?$CDotNetTabCtrl@VCTabViewTabItem@@@@V?$CMDITabOwner@V?$CDotNetTabCtrl@VCTabViewTabItem@@@@@@@@QAEJIIJAAH@Z 00447830 f i HydraIRC.obj
 0001:00046860       ?OnChildTabToolTipChange@?$CTabbedMDIClient@V?$CDotNetTabCtrl@VCTabViewTabItem@@@@V?$CMDITabOwner@V?$CDotNetTabCtrl@VCTabViewTabItem@@@@@@@@QAEJIIJAAH@Z 00447860 f i HydraIRC.obj
 0001:00046890       ?OnChildMaximized@?$CTabbedMDIClient@V?$CDotNetTabCtrl@VCTabViewTabItem@@@@V?$CMDITabOwner@V?$CDotNetTabCtrl@VCTabViewTabItem@@@@@@@@QAEJIIJAAH@Z 00447890 f i HydraIRC.obj
 0001:000468e0       ?OnChildUnMaximized@?$CTabbedMDIClient@V?$CDotNetTabCtrl@VCTabViewTabItem@@@@V?$CMDITabOwner@V?$CDotNetTabCtrl@VCTabViewTabItem@@@@@@@@QAEJIIJAAH@Z 004478e0 f i HydraIRC.obj
 0001:00046930       ??0?$CMDITabOwnerImpl@V?$CMDITabOwner@V?$CDotNetTabCtrl@VCTabViewTabItem@@@@@@V?$CDotNetTabCtrl@VCTabViewTabItem@@@@@@QAE@XZ 00447930 f i HydraIRC.obj
 0001:000469e0       ?ModifyTabStyles@?$CMDITabOwnerImpl@V?$CMDITabOwner@V?$CDotNetTabCtrl@VCTabViewTabItem@@@@@@V?$CDotNetTabCtrl@VCTabViewTabItem@@@@@@QAEXKK@Z 004479e0 f i HydraIRC.obj
 0001:00046a20       ?OnCreate@?$CMDITabOwnerImpl@V?$CMDITabOwner@V?$CDotNetTabCtrl@VCTabViewTabItem@@@@@@V?$CDotNetTabCtrl@VCTabViewTabItem@@@@@@QAEJIIJAAH@Z 00447a20 f i HydraIRC.obj
 0001:00046aa0       ?OnDestroy@?$CMDITabOwnerImpl@V?$CMDITabOwner@V?$CDotNetTabCtrl@VCTabViewTabItem@@@@@@V?$CDotNetTabCtrl@VCTabViewTabItem@@@@@@QAEJIIJAAH@Z 00447aa0 f i HydraIRC.obj
 0001:00046ad0       ?OnEraseBackground@?$CMDITabOwnerImpl@V?$CMDITabOwner@V?$CDotNetTabCtrl@VCTabViewTabItem@@@@@@V?$CDotNetTabCtrl@VCTabViewTabItem@@@@@@QAEJIIJAAH@Z 00447ad0 f i HydraIRC.obj
 0001:00046b00       ?OnSize@?$CMDITabOwnerImpl@V?$CMDITabOwner@V?$CDotNetTabCtrl@VCTabViewTabItem@@@@@@V?$CDotNetTabCtrl@VCTabViewTabItem@@@@@@QAEJIIJAAH@Z 00447b00 f i HydraIRC.obj
 0001:00046b60       ?OnContextMenu@?$CMDITabOwnerImpl@V?$CMDITabOwner@V?$CDotNetTabCtrl@VCTabViewTabItem@@@@@@V?$CDotNetTabCtrl@VCTabViewTabItem@@@@@@QAEJIIJAAH@Z 00447b60 f i HydraIRC.obj
 0001:00046cc0       ?OnClick@?$CMDITabOwnerImpl@V?$CMDITabOwner@V?$CDotNetTabCtrl@VCTabViewTabItem@@@@@@V?$CDotNetTabCtrl@VCTabViewTabItem@@@@@@QAEJHPAUtagNMHDR@@AAH@Z 00447cc0 f i HydraIRC.obj
 0001:00046d50       ?UsingTabView@CTabViewTabItem@@QBE_NXZ 00447d50 f i HydraIRC.obj
 0001:00046d70       ?OnAcceptItemDrag@?$CMDITabOwnerImpl@V?$CMDITabOwner@V?$CDotNetTabCtrl@VCTabViewTabItem@@@@@@V?$CDotNetTabCtrl@VCTabViewTabItem@@@@@@QAEJHPAUtagNMHDR@@AAH@Z 00447d70 f i HydraIRC.obj
 0001:00046df0       ?OnCancelItemDrag@?$CMDITabOwnerImpl@V?$CMDITabOwner@V?$CDotNetTabCtrl@VCTabViewTabItem@@@@@@V?$CDotNetTabCtrl@VCTabViewTabItem@@@@@@QAEJHPAUtagNMHDR@@AAH@Z 00447df0 f i HydraIRC.obj
 0001:00046e70       ?OnSelChanging@?$CMDITabOwnerImpl@V?$CMDITabOwner@V?$CDotNetTabCtrl@VCTabViewTabItem@@@@@@V?$CDotNetTabCtrl@VCTabViewTabItem@@@@@@QAEJHPAUtagNMHDR@@AAH@Z 00447e70 f i HydraIRC.obj
 0001:00046e70       ?OnDeleteItem@?$CMDITabOwnerImpl@V?$CMDITabOwner@V?$CDotNetTabCtrl@VCTabViewTabItem@@@@@@V?$CDotNetTabCtrl@VCTabViewTabItem@@@@@@QAEJHPAUtagNMHDR@@AAH@Z 00447e70 f i HydraIRC.obj
 0001:00046ea0       ?OnSelChange@?$CMDITabOwnerImpl@V?$CMDITabOwner@V?$CDotNetTabCtrl@VCTabViewTabItem@@@@@@V?$CDotNetTabCtrl@VCTabViewTabItem@@@@@@QAEJHPAUtagNMHDR@@AAH@Z 00447ea0 f i HydraIRC.obj
 0001:00047050       ?OnTabClose@?$CMDITabOwnerImpl@V?$CMDITabOwner@V?$CDotNetTabCtrl@VCTabViewTabItem@@@@@@V?$CDotNetTabCtrl@VCTabViewTabItem@@@@@@QAEJHPAUtagNMHDR@@AAH@Z 00448050 f i HydraIRC.obj
 0001:000470d0       ??_E?$CAutoHideManager@U?$CDockingWindowTraits@UCVC7LikeCaption@dockwins@@$0EGMAAAAA@$0IA@@dockwins@@@dockwins@@UAEPAXI@Z 004480d0 f i HydraIRC.obj
 0001:000470d0       ??_G?$CAutoHideManager@U?$CDockingWindowTraits@UCVC7LikeCaption@dockwins@@$0EGMAAAAA@$0IA@@dockwins@@@dockwins@@UAEPAXI@Z 004480d0 f i HydraIRC.obj
 0001:00047100       ??_E?$CMDITabOwnerImpl@V?$CMDITabOwner@V?$CDotNetTabCtrl@VCTabViewTabItem@@@@@@V?$CDotNetTabCtrl@VCTabViewTabItem@@@@@@UAEPAXI@Z 00448100 f i HydraIRC.obj
 0001:00047100       ??_G?$CMDITabOwnerImpl@V?$CMDITabOwner@V?$CDotNetTabCtrl@VCTabViewTabItem@@@@@@V?$CDotNetTabCtrl@VCTabViewTabItem@@@@@@UAEPAXI@Z 00448100 f i HydraIRC.obj
 0001:00047130       ??0?$CContainedWindowT@VCWindow@ATL@@V?$CWinTraits@$0FGAAAAAA@$0A@@2@@ATL@@QAE@PAVCMessageMap@1@K@Z 00448130 f i HydraIRC.obj
 0001:00047190       ??0CDockingFocusHandler@dockwins@@QAE@XZ 00448190 f i HydraIRC.obj
 0001:00047230       ?RemoveHook@CDockingFocusHandler@dockwins@@QAEJPAUHWND__@@@Z 00448230 f i HydraIRC.obj
 0001:00047280       _HRESULT_FROM_WIN32        00448280 f i HydraIRC.obj
 0001:000472c0       ?GetThickness@?$CSimpleSplitterBar@$04@dockwins@@SAJXZ 004482c0 f i HydraIRC.obj
 0001:000472d0       ??0?$CCommandBarCtrlImpl@VCTabbedMDICommandBarCtrl@@VCCommandBarCtrlBase@WTL@@V?$CWinTraits@$0FGAAAAAA@$0A@@ATL@@@WTL@@QAE@XZ 004482d0 f i HydraIRC.obj
 0001:00047540       ?ProcessWindowMessage@CDockingFocusHandler@dockwins@@UAEHPAUHWND__@@IIJAAJK@Z 00448540 f i HydraIRC.obj
 0001:000475e0       ?OnMouseActivate@CDockingFocusHandler@dockwins@@QAEJIIJAAH@Z 004485e0 f i HydraIRC.obj
 0001:00047600       ?OnActivate@CDockingFocusHandler@dockwins@@QAEJIIJAAH@Z 00448600 f i HydraIRC.obj
 0001:00047680       ?This@CDockingFocusHandler@dockwins@@SAPAV12@PAV12@@Z 00448680 f i HydraIRC.obj
 0001:000476a0       ?SetFocusEx@CDockingFocusHandler@dockwins@@SAPAUHWND__@@PAU3@@Z 004486a0 f i HydraIRC.obj
 0001:00047740       ?GotoDlgCtrl@CWindow@ATL@@QBEXPAUHWND__@@@Z 00448740 f i HydraIRC.obj
 0001:00047770       ?InvalidateCaption@CDockingFocusHandler@dockwins@@AAEXPAUHWND__@@@Z 00448770 f i HydraIRC.obj
 0001:000477d0       ?TimerProc@CDockingFocusHandler@dockwins@@CGXPAUHWND__@@IIK@Z 004487d0 f i HydraIRC.obj
 0001:00047840       ?GetDockingParent@CDockingFocusHandler@dockwins@@CAPAUHWND__@@PAU3@@Z 00448840 f i HydraIRC.obj
 0001:000478d0       ?GetModuleInstance@CComModule@ATL@@QAEPAUHINSTANCE__@@XZ 004488d0 f i HydraIRC.obj
 0001:000478e0       ?SetFocusIfWindowFound@CDockingFocusHandler@dockwins@@AAE_NPAUHWND__@@@Z 004488e0 f i HydraIRC.obj
 0001:00047980       ??1?$queue@PAUHWND__@@V?$deque@PAUHWND__@@V?$allocator@PAUHWND__@@@std@@@std@@@std@@QAE@XZ 00448980 f i HydraIRC.obj
 0001:00047980       ??1?$priority_queue@JV?$deque@JV?$allocator@J@std@@@std@@U?$greater@J@2@@std@@QAE@XZ 00448980 f i HydraIRC.obj
 0001:000479a0       ??1?$map@PAUHWND__@@PAU1@U?$less@PAUHWND__@@@std@@V?$allocator@U?$pair@QAUHWND__@@PAU1@@std@@@3@@std@@QAE@XZ 004489a0 f i HydraIRC.obj
 0001:000479c0       ?IsWindowVisible@?$CDockingWindowBaseImpl@VCServerMonitorView@@VCWindow@ATL@@U?$CBoxedDockingWindowTraits@VCVC7LikeExCaption@dockwins@@V?$CTabDockingBox@U?$CDockingBoxTraits@VCVC7LikeExCaption@dockwins@@$0IGMPAAAA@$0IA@@dockwins@@@2@$0JGMPAAAA@$0IA@@dockwins@@@dockwins@@QBEHXZ 004489c0 f i HydraIRC.obj
 0001:000479c0       ?IsWindowVisible@?$CDockingWindowBaseImpl@VCServerListView@@VCWindow@ATL@@U?$CBoxedDockingWindowTraits@UCVC7LikeCaption@dockwins@@V?$CTabDockingBox@U?$CDockingBoxTraits@UCVC7LikeCaption@dockwins@@$0IGMPAAAA@$0IA@@dockwins@@@2@$0JGMPAAAA@$0IA@@dockwins@@@dockwins@@QBEHXZ 004489c0 f i HydraIRC.obj
 0001:000479c0       ?IsWindowVisible@?$CDockingWindowBaseImpl@VCTransfersView@@VCWindow@ATL@@U?$CBoxedDockingWindowTraits@VCVC7LikeExCaption@dockwins@@V?$CTabDockingBox@U?$CDockingBoxTraits@VCVC7LikeExCaption@dockwins@@$0IGMPAAAA@$0IA@@dockwins@@@2@$0JGMPAAAA@$0IA@@dockwins@@@dockwins@@QBEHXZ 004489c0 f i HydraIRC.obj
 0001:000479c0       ?IsWindowVisible@?$CDockingWindowBaseImpl@VCUserListView@@VCWindow@ATL@@U?$CBoxedDockingWindowTraits@UCVC7LikeCaption@dockwins@@V?$CTabDockingBox@U?$CDockingBoxTraits@UCVC7LikeCaption@dockwins@@$0IGMPAAAA@$0IA@@dockwins@@@2@$0JGMPAAAA@$0IA@@dockwins@@@dockwins@@QBEHXZ 004489c0 f i ChildFrm.obj
 0001:000479c0       ?IsWindowVisible@?$CDockingWindowBaseImpl@VCOutputView@@VCWindow@ATL@@U?$CBoxedDockingWindowTraits@VCVC7LikeExCaption@dockwins@@V?$CTabDockingBox@U?$CDockingBoxTraits@VCVC7LikeExCaption@dockwins@@$0IGMPAAAA@$0IA@@dockwins@@@2@$0JGMPAAAA@$0IA@@dockwins@@@dockwins@@QBEHXZ 004489c0 f i HydraIRC.obj
 0001:000479c0       ?IsWindowVisible@?$CDockingWindowBaseImpl@VCTextQueueView@@VCWindow@ATL@@U?$CBoxedDockingWindowTraits@VCVC7LikeExCaption@dockwins@@V?$CTabDockingBox@U?$CDockingBoxTraits@VCVC7LikeExCaption@dockwins@@$0IGMPAAAA@$0IA@@dockwins@@@2@$0JGMPAAAA@$0IA@@dockwins@@@dockwins@@QBEHXZ 004489c0 f i HydraIRC.obj
 0001:000479c0       ?IsWindowVisible@?$CDockingWindowBaseImpl@VCEventLogView@@VCWindow@ATL@@U?$CBoxedDockingWindowTraits@VCVC7LikeExCaption@dockwins@@V?$CTabDockingBox@U?$CDockingBoxTraits@VCVC7LikeExCaption@dockwins@@$0IGMPAAAA@$0IA@@dockwins@@@2@$0JGMPAAAA@$0IA@@dockwins@@@dockwins@@QBEHXZ 004489c0 f i EventLogFrm.obj
 0001:000479c0       ?IsWindowVisible@?$CDockingWindowBaseImpl@VCChannelMonitorView@@VCWindow@ATL@@U?$CBoxedDockingWindowTraits@VCVC7LikeExCaption@dockwins@@V?$CTabDockingBox@U?$CDockingBoxTraits@VCVC7LikeExCaption@dockwins@@$0IGMPAAAA@$0IA@@dockwins@@@2@$0JGMPAAAA@$0IA@@dockwins@@@dockwins@@QBEHXZ 004489c0 f i HydraIRC.obj
 0001:000479c0       ?IsWindowVisible@?$CDockingWindowBaseImpl@V?$CTabDockingBox@U?$CDockingBoxTraits@VCVC7LikeExCaption@dockwins@@$0IGMPAAAA@$0IA@@dockwins@@@dockwins@@VCWindow@ATL@@U?$CDockingBoxTraits@VCVC7LikeExCaption@dockwins@@$0IGMPAAAA@$0IA@@2@@dockwins@@QBEHXZ 004489c0 f i EventLogFrm.obj
 0001:000479c0       ?IsWindowVisible@?$CDockingWindowBaseImpl@V?$CTabDockingBox@U?$CDockingBoxTraits@UCVC7LikeCaption@dockwins@@$0IGMPAAAA@$0IA@@dockwins@@@dockwins@@VCWindow@ATL@@U?$CDockingBoxTraits@UCVC7LikeCaption@dockwins@@$0IGMPAAAA@$0IA@@2@@dockwins@@QBEHXZ 004489c0 f i ChildFrm.obj
 0001:00047a00       ?Float@?$CDockingWindowBaseImpl@VCTextQueueView@@VCWindow@ATL@@U?$CBoxedDockingWindowTraits@VCVC7LikeExCaption@dockwins@@V?$CTabDockingBox@U?$CDockingBoxTraits@VCVC7LikeExCaption@dockwins@@$0IGMPAAAA@$0IA@@dockwins@@@2@$0JGMPAAAA@$0IA@@dockwins@@@dockwins@@QAE_NXZ 00448a00 f i TextQueueFrm.obj
 0001:00047a00       ?Float@?$CDockingWindowBaseImpl@VCTransfersView@@VCWindow@ATL@@U?$CBoxedDockingWindowTraits@VCVC7LikeExCaption@dockwins@@V?$CTabDockingBox@U?$CDockingBoxTraits@VCVC7LikeExCaption@dockwins@@$0IGMPAAAA@$0IA@@dockwins@@@2@$0JGMPAAAA@$0IA@@dockwins@@@dockwins@@QAE_NXZ 00448a00 f i Transfers.obj
 0001:00047a00       ?Float@?$CDockingWindowBaseImpl@V?$CTabDockingBox@U?$CDockingBoxTraits@UCVC7LikeCaption@dockwins@@$0IGMPAAAA@$0IA@@dockwins@@@dockwins@@VCWindow@ATL@@U?$CDockingBoxTraits@UCVC7LikeCaption@dockwins@@$0IGMPAAAA@$0IA@@2@@dockwins@@QAE_NXZ 00448a00 f i ChildFrm.obj
 0001:00047a00       ?Float@?$CDockingWindowBaseImpl@VCChannelMonitorView@@VCWindow@ATL@@U?$CBoxedDockingWindowTraits@VCVC7LikeExCaption@dockwins@@V?$CTabDockingBox@U?$CDockingBoxTraits@VCVC7LikeExCaption@dockwins@@$0IGMPAAAA@$0IA@@dockwins@@@2@$0JGMPAAAA@$0IA@@dockwins@@@dockwins@@QAE_NXZ 00448a00 f i HydraIRC.obj
 0001:00047a00       ?Float@?$CDockingWindowBaseImpl@VCUserListView@@VCWindow@ATL@@U?$CBoxedDockingWindowTraits@UCVC7LikeCaption@dockwins@@V?$CTabDockingBox@U?$CDockingBoxTraits@UCVC7LikeCaption@dockwins@@$0IGMPAAAA@$0IA@@dockwins@@@2@$0JGMPAAAA@$0IA@@dockwins@@@dockwins@@QAE_NXZ 00448a00 f i ChildFrm.obj
 0001:00047a00       ?Float@?$CDockingWindowBaseImpl@VCServerMonitorView@@VCWindow@ATL@@U?$CBoxedDockingWindowTraits@VCVC7LikeExCaption@dockwins@@V?$CTabDockingBox@U?$CDockingBoxTraits@VCVC7LikeExCaption@dockwins@@$0IGMPAAAA@$0IA@@dockwins@@@2@$0JGMPAAAA@$0IA@@dockwins@@@dockwins@@QAE_NXZ 00448a00 f i HydraIRC.obj
 0001:00047a00       ?Float@?$CDockingWindowBaseImpl@VCOutputView@@VCWindow@ATL@@U?$CBoxedDockingWindowTraits@VCVC7LikeExCaption@dockwins@@V?$CTabDockingBox@U?$CDockingBoxTraits@VCVC7LikeExCaption@dockwins@@$0IGMPAAAA@$0IA@@dockwins@@@2@$0JGMPAAAA@$0IA@@dockwins@@@dockwins@@QAE_NXZ 00448a00 f i Output.obj
 0001:00047a00       ?Float@?$CDockingWindowBaseImpl@VCEventLogView@@VCWindow@ATL@@U?$CBoxedDockingWindowTraits@VCVC7LikeExCaption@dockwins@@V?$CTabDockingBox@U?$CDockingBoxTraits@VCVC7LikeExCaption@dockwins@@$0IGMPAAAA@$0IA@@dockwins@@@2@$0JGMPAAAA@$0IA@@dockwins@@@dockwins@@QAE_NXZ 00448a00 f i EventLogFrm.obj
 0001:00047a00       ?Float@?$CDockingWindowBaseImpl@VCServerListView@@VCWindow@ATL@@U?$CBoxedDockingWindowTraits@UCVC7LikeCaption@dockwins@@V?$CTabDockingBox@U?$CDockingBoxTraits@UCVC7LikeCaption@dockwins@@$0IGMPAAAA@$0IA@@dockwins@@@2@$0JGMPAAAA@$0IA@@dockwins@@@dockwins@@QAE_NXZ 00448a00 f i HydraIRC.obj
 0001:00047a00       ?Float@?$CDockingWindowBaseImpl@V?$CTabDockingBox@U?$CDockingBoxTraits@VCVC7LikeExCaption@dockwins@@$0IGMPAAAA@$0IA@@dockwins@@@dockwins@@VCWindow@ATL@@U?$CDockingBoxTraits@VCVC7LikeExCaption@dockwins@@$0IGMPAAAA@$0IA@@2@@dockwins@@QAE_NXZ 00448a00 f i EventLogFrm.obj
 0001:00047a50       ?SetLastParseError@?$CAtlRegExp@VCAtlRECharTraitsA@ATL@@@ATL@@IAEXW4REParseError@2@@Z 00448a50 f i Utility.obj
 0001:00047a50       ?Width@CPinnedWindow@IPinnedLabel@dockwins@@QAEXK@Z 00448a50 f i HydraIRC.obj
 0001:00047a70       ?OnSetDockingPosition@?$CBoxedDockingWindowImpl@VCChannelMonitorView@@VCWindow@ATL@@U?$CBoxedDockingWindowTraits@VCVC7LikeExCaption@dockwins@@V?$CTabDockingBox@U?$CDockingBoxTraits@VCVC7LikeExCaption@dockwins@@$0IGMPAAAA@$0IA@@dockwins@@@2@$0JGMPAAAA@$0IA@@dockwins@@@dockwins@@QAE_NPAUtagDFDOCKPOS@2@@Z 00448a70 f i HydraIRC.obj
 0001:00047a70       ?OnSetDockingPosition@?$CBoxedDockingWindowImpl@VCOutputView@@VCWindow@ATL@@U?$CBoxedDockingWindowTraits@VCVC7LikeExCaption@dockwins@@V?$CTabDockingBox@U?$CDockingBoxTraits@VCVC7LikeExCaption@dockwins@@$0IGMPAAAA@$0IA@@dockwins@@@2@$0JGMPAAAA@$0IA@@dockwins@@@dockwins@@QAE_NPAUtagDFDOCKPOS@2@@Z 00448a70 f i Output.obj
 0001:00047a70       ?OnSetDockingPosition@?$CBoxedDockingWindowImpl@VCServerMonitorView@@VCWindow@ATL@@U?$CBoxedDockingWindowTraits@VCVC7LikeExCaption@dockwins@@V?$CTabDockingBox@U?$CDockingBoxTraits@VCVC7LikeExCaption@dockwins@@$0IGMPAAAA@$0IA@@dockwins@@@2@$0JGMPAAAA@$0IA@@dockwins@@@dockwins@@QAE_NPAUtagDFDOCKPOS@2@@Z 00448a70 f i HydraIRC.obj
 0001:00047a70       ?OnSetDockingPosition@?$CBoxedDockingWindowImpl@VCTextQueueView@@VCWindow@ATL@@U?$CBoxedDockingWindowTraits@VCVC7LikeExCaption@dockwins@@V?$CTabDockingBox@U?$CDockingBoxTraits@VCVC7LikeExCaption@dockwins@@$0IGMPAAAA@$0IA@@dockwins@@@2@$0JGMPAAAA@$0IA@@dockwins@@@dockwins@@QAE_NPAUtagDFDOCKPOS@2@@Z 00448a70 f i TextQueueFrm.obj
 0001:00047a70       ?OnSetDockingPosition@?$CBoxedDockingWindowImpl@VCEventLogView@@VCWindow@ATL@@U?$CBoxedDockingWindowTraits@VCVC7LikeExCaption@dockwins@@V?$CTabDockingBox@U?$CDockingBoxTraits@VCVC7LikeExCaption@dockwins@@$0IGMPAAAA@$0IA@@dockwins@@@2@$0JGMPAAAA@$0IA@@dockwins@@@dockwins@@QAE_NPAUtagDFDOCKPOS@2@@Z 00448a70 f i EventLogFrm.obj
 0001:00047a70       ?OnSetDockingPosition@?$CBoxedDockingWindowImpl@VCTransfersView@@VCWindow@ATL@@U?$CBoxedDockingWindowTraits@VCVC7LikeExCaption@dockwins@@V?$CTabDockingBox@U?$CDockingBoxTraits@VCVC7LikeExCaption@dockwins@@$0IGMPAAAA@$0IA@@dockwins@@@2@$0JGMPAAAA@$0IA@@dockwins@@@dockwins@@QAE_NPAUtagDFDOCKPOS@2@@Z 00448a70 f i Transfers.obj
 0001:00047b40       ?OnPinBtnPress@?$CBoxedDockingWindowBaseImpl@VCChannelMonitorView@@VCWindow@ATL@@U?$CBoxedDockingWindowTraits@VCVC7LikeExCaption@dockwins@@V?$CTabDockingBox@U?$CDockingBoxTraits@VCVC7LikeExCaption@dockwins@@$0IGMPAAAA@$0IA@@dockwins@@@2@$0JGMPAAAA@$0IA@@dockwins@@@dockwins@@QAEJPAUtagDFPINBTNPRESS@2@@Z 00448b40 f i HydraIRC.obj
 0001:00047b40       ?OnPinBtnPress@?$CBoxedDockingWindowBaseImpl@VCUserListView@@VCWindow@ATL@@U?$CBoxedDockingWindowTraits@UCVC7LikeCaption@dockwins@@V?$CTabDockingBox@U?$CDockingBoxTraits@UCVC7LikeCaption@dockwins@@$0IGMPAAAA@$0IA@@dockwins@@@2@$0JGMPAAAA@$0IA@@dockwins@@@dockwins@@QAEJPAUtagDFPINBTNPRESS@2@@Z 00448b40 f i ChildFrm.obj
 0001:00047b40       ?OnPinBtnPress@?$CBoxedDockingWindowBaseImpl@VCServerListView@@VCWindow@ATL@@U?$CBoxedDockingWindowTraits@UCVC7LikeCaption@dockwins@@V?$CTabDockingBox@U?$CDockingBoxTraits@UCVC7LikeCaption@dockwins@@$0IGMPAAAA@$0IA@@dockwins@@@2@$0JGMPAAAA@$0IA@@dockwins@@@dockwins@@QAEJPAUtagDFPINBTNPRESS@2@@Z 00448b40 f i HydraIRC.obj
 0001:00047b40       ?OnPinBtnPress@?$CBoxedDockingWindowBaseImpl@VCServerMonitorView@@VCWindow@ATL@@U?$CBoxedDockingWindowTraits@VCVC7LikeExCaption@dockwins@@V?$CTabDockingBox@U?$CDockingBoxTraits@VCVC7LikeExCaption@dockwins@@$0IGMPAAAA@$0IA@@dockwins@@@2@$0JGMPAAAA@$0IA@@dockwins@@@dockwins@@QAEJPAUtagDFPINBTNPRESS@2@@Z 00448b40 f i HydraIRC.obj
 0001:00047b40       ?OnPinBtnPress@?$CBoxedDockingWindowBaseImpl@VCTextQueueView@@VCWindow@ATL@@U?$CBoxedDockingWindowTraits@VCVC7LikeExCaption@dockwins@@V?$CTabDockingBox@U?$CDockingBoxTraits@VCVC7LikeExCaption@dockwins@@$0IGMPAAAA@$0IA@@dockwins@@@2@$0JGMPAAAA@$0IA@@dockwins@@@dockwins@@QAEJPAUtagDFPINBTNPRESS@2@@Z 00448b40 f i TextQueueFrm.obj
 0001:00047b40       ?OnPinBtnPress@?$CBoxedDockingWindowBaseImpl@VCTransfersView@@VCWindow@ATL@@U?$CBoxedDockingWindowTraits@VCVC7LikeExCaption@dockwins@@V?$CTabDockingBox@U?$CDockingBoxTraits@VCVC7LikeExCaption@dockwins@@$0IGMPAAAA@$0IA@@dockwins@@@2@$0JGMPAAAA@$0IA@@dockwins@@@dockwins@@QAEJPAUtagDFPINBTNPRESS@2@@Z 00448b40 f i Transfers.obj
 0001:00047b40       ?OnPinBtnPress@?$CBoxedDockingWindowBaseImpl@VCEventLogView@@VCWindow@ATL@@U?$CBoxedDockingWindowTraits@VCVC7LikeExCaption@dockwins@@V?$CTabDockingBox@U?$CDockingBoxTraits@VCVC7LikeExCaption@dockwins@@$0IGMPAAAA@$0IA@@dockwins@@@2@$0JGMPAAAA@$0IA@@dockwins@@@dockwins@@QAEJPAUtagDFPINBTNPRESS@2@@Z 00448b40 f i EventLogFrm.obj
 0001:00047b40       ?OnPinBtnPress@?$CBoxedDockingWindowBaseImpl@VCOutputView@@VCWindow@ATL@@U?$CBoxedDockingWindowTraits@VCVC7LikeExCaption@dockwins@@V?$CTabDockingBox@U?$CDockingBoxTraits@VCVC7LikeExCaption@dockwins@@$0IGMPAAAA@$0IA@@dockwins@@@2@$0JGMPAAAA@$0IA@@dockwins@@@dockwins@@QAEJPAUtagDFPINBTNPRESS@2@@Z 00448b40 f i Output.obj
 0001:00047b90       ?NcDraw@?$CTitleDockingWindowBaseImpl@VCUserListView@@VCWindow@ATL@@U?$CBoxedDockingWindowTraits@UCVC7LikeCaption@dockwins@@V?$CTabDockingBox@U?$CDockingBoxTraits@UCVC7LikeCaption@dockwins@@$0IGMPAAAA@$0IA@@dockwins@@@2@$0JGMPAAAA@$0IA@@dockwins@@@dockwins@@QAEXAAV?$CDCT@$00@WTL@@@Z 00448b90 f i ChildFrm.obj
 0001:00047b90       ?NcDraw@?$CTitleDockingWindowBaseImpl@VCOutputView@@VCWindow@ATL@@U?$CBoxedDockingWindowTraits@VCVC7LikeExCaption@dockwins@@V?$CTabDockingBox@U?$CDockingBoxTraits@VCVC7LikeExCaption@dockwins@@$0IGMPAAAA@$0IA@@dockwins@@@2@$0JGMPAAAA@$0IA@@dockwins@@@dockwins@@QAEXAAV?$CDCT@$00@WTL@@@Z 00448b90 f i Output.obj
 0001:00047b90       ?NcDraw@?$CTitleDockingWindowBaseImpl@VCTextQueueView@@VCWindow@ATL@@U?$CBoxedDockingWindowTraits@VCVC7LikeExCaption@dockwins@@V?$CTabDockingBox@U?$CDockingBoxTraits@VCVC7LikeExCaption@dockwins@@$0IGMPAAAA@$0IA@@dockwins@@@2@$0JGMPAAAA@$0IA@@dockwins@@@dockwins@@QAEXAAV?$CDCT@$00@WTL@@@Z 00448b90 f i TextQueueFrm.obj
 0001:00047b90       ?NcDraw@?$CTitleDockingWindowBaseImpl@VCServerListView@@VCWindow@ATL@@U?$CBoxedDockingWindowTraits@UCVC7LikeCaption@dockwins@@V?$CTabDockingBox@U?$CDockingBoxTraits@UCVC7LikeCaption@dockwins@@$0IGMPAAAA@$0IA@@dockwins@@@2@$0JGMPAAAA@$0IA@@dockwins@@@dockwins@@QAEXAAV?$CDCT@$00@WTL@@@Z 00448b90 f i HydraIRC.obj
 0001:00047b90       ?NcDraw@?$CTitleDockingWindowBaseImpl@V?$CTabDockingBox@U?$CDockingBoxTraits@UCVC7LikeCaption@dockwins@@$0IGMPAAAA@$0IA@@dockwins@@@dockwins@@VCWindow@ATL@@U?$CDockingBoxTraits@UCVC7LikeCaption@dockwins@@$0IGMPAAAA@$0IA@@2@@dockwins@@QAEXAAV?$CDCT@$00@WTL@@@Z 00448b90 f i ChildFrm.obj
 0001:00047b90       ?NcDraw@?$CTitleDockingWindowBaseImpl@VCEventLogView@@VCWindow@ATL@@U?$CBoxedDockingWindowTraits@VCVC7LikeExCaption@dockwins@@V?$CTabDockingBox@U?$CDockingBoxTraits@VCVC7LikeExCaption@dockwins@@$0IGMPAAAA@$0IA@@dockwins@@@2@$0JGMPAAAA@$0IA@@dockwins@@@dockwins@@QAEXAAV?$CDCT@$00@WTL@@@Z 00448b90 f i EventLogFrm.obj
 0001:00047b90       ?NcDraw@?$CTitleDockingWindowBaseImpl@V?$CTabDockingBox@U?$CDockingBoxTraits@VCVC7LikeExCaption@dockwins@@$0IGMPAAAA@$0IA@@dockwins@@@dockwins@@VCWindow@ATL@@U?$CDockingBoxTraits@VCVC7LikeExCaption@dockwins@@$0IGMPAAAA@$0IA@@2@@dockwins@@QAEXAAV?$CDCT@$00@WTL@@@Z 00448b90 f i EventLogFrm.obj
 0001:00047b90       ?NcDraw@?$CTitleDockingWindowBaseImpl@VCServerMonitorView@@VCWindow@ATL@@U?$CBoxedDockingWindowTraits@VCVC7LikeExCaption@dockwins@@V?$CTabDockingBox@U?$CDockingBoxTraits@VCVC7LikeExCaption@dockwins@@$0IGMPAAAA@$0IA@@dockwins@@@2@$0JGMPAAAA@$0IA@@dockwins@@@dockwins@@QAEXAAV?$CDCT@$00@WTL@@@Z 00448b90 f i HydraIRC.obj
 0001:00047b90       ?NcDraw@?$CTitleDockingWindowBaseImpl@VCChannelMonitorView@@VCWindow@ATL@@U?$CBoxedDockingWindowTraits@VCVC7LikeExCaption@dockwins@@V?$CTabDockingBox@U?$CDockingBoxTraits@VCVC7LikeExCaption@dockwins@@$0IGMPAAAA@$0IA@@dockwins@@@2@$0JGMPAAAA@$0IA@@dockwins@@@dockwins@@QAEXAAV?$CDCT@$00@WTL@@@Z 00448b90 f i HydraIRC.obj
 0001:00047b90       ?NcDraw@?$CTitleDockingWindowBaseImpl@VCTransfersView@@VCWindow@ATL@@U?$CBoxedDockingWindowTraits@VCVC7LikeExCaption@dockwins@@V?$CTabDockingBox@U?$CDockingBoxTraits@VCVC7LikeExCaption@dockwins@@$0IGMPAAAA@$0IA@@dockwins@@@2@$0JGMPAAAA@$0IA@@dockwins@@@dockwins@@QAEXAAV?$CDCT@$00@WTL@@@Z 00448b90 f i Transfers.obj
 0001:00047bd0       ?PinBtnPress@?$CTitleDockingWindowBaseImpl@VCEventLogView@@VCWindow@ATL@@U?$CBoxedDockingWindowTraits@VCVC7LikeExCaption@dockwins@@V?$CTabDockingBox@U?$CDockingBoxTraits@VCVC7LikeExCaption@dockwins@@$0IGMPAAAA@$0IA@@dockwins@@@2@$0JGMPAAAA@$0IA@@dockwins@@@dockwins@@QAE_N_N@Z 00448bd0 f i EventLogFrm.obj
 0001:00047bd0       ?PinBtnPress@?$CTitleDockingWindowBaseImpl@VCChannelMonitorView@@VCWindow@ATL@@U?$CBoxedDockingWindowTraits@VCVC7LikeExCaption@dockwins@@V?$CTabDockingBox@U?$CDockingBoxTraits@VCVC7LikeExCaption@dockwins@@$0IGMPAAAA@$0IA@@dockwins@@@2@$0JGMPAAAA@$0IA@@dockwins@@@dockwins@@QAE_N_N@Z 00448bd0 f i HydraIRC.obj
 0001:00047bd0       ?PinBtnPress@?$CTitleDockingWindowBaseImpl@VCUserListView@@VCWindow@ATL@@U?$CBoxedDockingWindowTraits@UCVC7LikeCaption@dockwins@@V?$CTabDockingBox@U?$CDockingBoxTraits@UCVC7LikeCaption@dockwins@@$0IGMPAAAA@$0IA@@dockwins@@@2@$0JGMPAAAA@$0IA@@dockwins@@@dockwins@@QAE_N_N@Z 00448bd0 f i ChildFrm.obj
 0001:00047bd0       ?PinBtnPress@?$CTitleDockingWindowBaseImpl@VCTextQueueView@@VCWindow@ATL@@U?$CBoxedDockingWindowTraits@VCVC7LikeExCaption@dockwins@@V?$CTabDockingBox@U?$CDockingBoxTraits@VCVC7LikeExCaption@dockwins@@$0IGMPAAAA@$0IA@@dockwins@@@2@$0JGMPAAAA@$0IA@@dockwins@@@dockwins@@QAE_N_N@Z 00448bd0 f i TextQueueFrm.obj
 0001:00047bd0       ?PinBtnPress@?$CTitleDockingWindowBaseImpl@VCServerListView@@VCWindow@ATL@@U?$CBoxedDockingWindowTraits@UCVC7LikeCaption@dockwins@@V?$CTabDockingBox@U?$CDockingBoxTraits@UCVC7LikeCaption@dockwins@@$0IGMPAAAA@$0IA@@dockwins@@@2@$0JGMPAAAA@$0IA@@dockwins@@@dockwins@@QAE_N_N@Z 00448bd0 f i HydraIRC.obj
 0001:00047bd0       ?PinBtnPress@?$CTitleDockingWindowBaseImpl@VCOutputView@@VCWindow@ATL@@U?$CBoxedDockingWindowTraits@VCVC7LikeExCaption@dockwins@@V?$CTabDockingBox@U?$CDockingBoxTraits@VCVC7LikeExCaption@dockwins@@$0IGMPAAAA@$0IA@@dockwins@@@2@$0JGMPAAAA@$0IA@@dockwins@@@dockwins@@QAE_N_N@Z 00448bd0 f i Output.obj
 0001:00047bd0       ?PinBtnPress@?$CTitleDockingWindowBaseImpl@VCTransfersView@@VCWindow@ATL@@U?$CBoxedDockingWindowTraits@VCVC7LikeExCaption@dockwins@@V?$CTabDockingBox@U?$CDockingBoxTraits@VCVC7LikeExCaption@dockwins@@$0IGMPAAAA@$0IA@@dockwins@@@2@$0JGMPAAAA@$0IA@@dockwins@@@dockwins@@QAE_N_N@Z 00448bd0 f i Transfers.obj
 0001:00047bd0       ?PinBtnPress@?$CTitleDockingWindowBaseImpl@VCServerMonitorView@@VCWindow@ATL@@U?$CBoxedDockingWindowTraits@VCVC7LikeExCaption@dockwins@@V?$CTabDockingBox@U?$CDockingBoxTraits@VCVC7LikeExCaption@dockwins@@$0IGMPAAAA@$0IA@@dockwins@@@2@$0JGMPAAAA@$0IA@@dockwins@@@dockwins@@QAE_N_N@Z 00448bd0 f i HydraIRC.obj
 0001:00047c90       ?BeginMoving@?$CDockingWindowBaseImpl@VCEventLogView@@VCWindow@ATL@@U?$CBoxedDockingWindowTraits@VCVC7LikeExCaption@dockwins@@V?$CTabDockingBox@U?$CDockingBoxTraits@VCVC7LikeExCaption@dockwins@@$0IGMPAAAA@$0IA@@dockwins@@@2@$0JGMPAAAA@$0IA@@dockwins@@@dockwins@@QAE_NABUtagPOINT@@@Z 00448c90 f i EventLogFrm.obj
 0001:00047c90       ?BeginMoving@?$CDockingWindowBaseImpl@VCTextQueueView@@VCWindow@ATL@@U?$CBoxedDockingWindowTraits@VCVC7LikeExCaption@dockwins@@V?$CTabDockingBox@U?$CDockingBoxTraits@VCVC7LikeExCaption@dockwins@@$0IGMPAAAA@$0IA@@dockwins@@@2@$0JGMPAAAA@$0IA@@dockwins@@@dockwins@@QAE_NABUtagPOINT@@@Z 00448c90 f i TextQueueFrm.obj
 0001:00047c90       ?BeginMoving@?$CDockingWindowBaseImpl@VCOutputView@@VCWindow@ATL@@U?$CBoxedDockingWindowTraits@VCVC7LikeExCaption@dockwins@@V?$CTabDockingBox@U?$CDockingBoxTraits@VCVC7LikeExCaption@dockwins@@$0IGMPAAAA@$0IA@@dockwins@@@2@$0JGMPAAAA@$0IA@@dockwins@@@dockwins@@QAE_NABUtagPOINT@@@Z 00448c90 f i Output.obj
 0001:00047c90       ?BeginMoving@?$CDockingWindowBaseImpl@V?$CTabDockingBox@U?$CDockingBoxTraits@VCVC7LikeExCaption@dockwins@@$0IGMPAAAA@$0IA@@dockwins@@@dockwins@@VCWindow@ATL@@U?$CDockingBoxTraits@VCVC7LikeExCaption@dockwins@@$0IGMPAAAA@$0IA@@2@@dockwins@@QAE_NABUtagPOINT@@@Z 00448c90 f i EventLogFrm.obj
 0001:00047c90       ?BeginMoving@?$CDockingWindowBaseImpl@V?$CTabDockingBox@U?$CDockingBoxTraits@UCVC7LikeCaption@dockwins@@$0IGMPAAAA@$0IA@@dockwins@@@dockwins@@VCWindow@ATL@@U?$CDockingBoxTraits@UCVC7LikeCaption@dockwins@@$0IGMPAAAA@$0IA@@2@@dockwins@@QAE_NABUtagPOINT@@@Z 00448c90 f i ChildFrm.obj
 0001:00047c90       ?BeginMoving@?$CDockingWindowBaseImpl@VCServerListView@@VCWindow@ATL@@U?$CBoxedDockingWindowTraits@UCVC7LikeCaption@dockwins@@V?$CTabDockingBox@U?$CDockingBoxTraits@UCVC7LikeCaption@dockwins@@$0IGMPAAAA@$0IA@@dockwins@@@2@$0JGMPAAAA@$0IA@@dockwins@@@dockwins@@QAE_NABUtagPOINT@@@Z 00448c90 f i HydraIRC.obj
 0001:00047c90       ?BeginMoving@?$CDockingWindowBaseImpl@VCTransfersView@@VCWindow@ATL@@U?$CBoxedDockingWindowTraits@VCVC7LikeExCaption@dockwins@@V?$CTabDockingBox@U?$CDockingBoxTraits@VCVC7LikeExCaption@dockwins@@$0IGMPAAAA@$0IA@@dockwins@@@2@$0JGMPAAAA@$0IA@@dockwins@@@dockwins@@QAE_NABUtagPOINT@@@Z 00448c90 f i Transfers.obj
 0001:00047c90       ?BeginMoving@?$CDockingWindowBaseImpl@VCChannelMonitorView@@VCWindow@ATL@@U?$CBoxedDockingWindowTraits@VCVC7LikeExCaption@dockwins@@V?$CTabDockingBox@U?$CDockingBoxTraits@VCVC7LikeExCaption@dockwins@@$0IGMPAAAA@$0IA@@dockwins@@@2@$0JGMPAAAA@$0IA@@dockwins@@@dockwins@@QAE_NABUtagPOINT@@@Z 00448c90 f i HydraIRC.obj
 0001:00047c90       ?BeginMoving@?$CDockingWindowBaseImpl@VCUserListView@@VCWindow@ATL@@U?$CBoxedDockingWindowTraits@UCVC7LikeCaption@dockwins@@V?$CTabDockingBox@U?$CDockingBoxTraits@UCVC7LikeCaption@dockwins@@$0IGMPAAAA@$0IA@@dockwins@@@2@$0JGMPAAAA@$0IA@@dockwins@@@dockwins@@QAE_NABUtagPOINT@@@Z 00448c90 f i ChildFrm.obj
 0001:00047c90       ?BeginMoving@?$CDockingWindowBaseImpl@VCServerMonitorView@@VCWindow@ATL@@U?$CBoxedDockingWindowTraits@VCVC7LikeExCaption@dockwins@@V?$CTabDockingBox@U?$CDockingBoxTraits@VCVC7LikeExCaption@dockwins@@$0IGMPAAAA@$0IA@@dockwins@@@2@$0JGMPAAAA@$0IA@@dockwins@@@dockwins@@QAE_NABUtagPOINT@@@Z 00448c90 f i HydraIRC.obj
 0001:00047ea0       ??0CAutoHideBar@dockwins@@QAE@XZ 00448ea0 f i HydraIRC.obj
 0001:00047f10       ??1CAutoHideBar@dockwins@@QAE@XZ 00448f10 f i HydraIRC.obj
 0001:00047fd0       ?OnGetDockingPosition@?$CBoxedDockingWindowBaseImpl@VCServerListView@@VCWindow@ATL@@U?$CBoxedDockingWindowTraits@UCVC7LikeCaption@dockwins@@V?$CTabDockingBox@U?$CDockingBoxTraits@UCVC7LikeCaption@dockwins@@$0IGMPAAAA@$0IA@@dockwins@@@2@$0JGMPAAAA@$0IA@@dockwins@@@dockwins@@QBE_NPAUtagDFDOCKPOS@2@@Z 00448fd0 f i HydraIRC.obj
 0001:00047fd0       ?OnGetDockingPosition@?$CBoxedDockingWindowBaseImpl@V?$CTabDockingBox@U?$CDockingBoxTraits@VCVC7LikeExCaption@dockwins@@$0IGMPAAAA@$0IA@@dockwins@@@dockwins@@VCWindow@ATL@@U?$CDockingBoxTraits@VCVC7LikeExCaption@dockwins@@$0IGMPAAAA@$0IA@@2@@dockwins@@QBE_NPAUtagDFDOCKPOS@2@@Z 00448fd0 f i EventLogFrm.obj
 0001:00047fd0       ?OnGetDockingPosition@?$CBoxedDockingWindowBaseImpl@VCOutputView@@VCWindow@ATL@@U?$CBoxedDockingWindowTraits@VCVC7LikeExCaption@dockwins@@V?$CTabDockingBox@U?$CDockingBoxTraits@VCVC7LikeExCaption@dockwins@@$0IGMPAAAA@$0IA@@dockwins@@@2@$0JGMPAAAA@$0IA@@dockwins@@@dockwins@@QBE_NPAUtagDFDOCKPOS@2@@Z 00448fd0 f i Output.obj
 0001:00047fd0       ?OnGetDockingPosition@?$CBoxedDockingWindowBaseImpl@VCChannelMonitorView@@VCWindow@ATL@@U?$CBoxedDockingWindowTraits@VCVC7LikeExCaption@dockwins@@V?$CTabDockingBox@U?$CDockingBoxTraits@VCVC7LikeExCaption@dockwins@@$0IGMPAAAA@$0IA@@dockwins@@@2@$0JGMPAAAA@$0IA@@dockwins@@@dockwins@@QBE_NPAUtagDFDOCKPOS@2@@Z 00448fd0 f i HydraIRC.obj
 0001:00047fd0       ?OnGetDockingPosition@?$CBoxedDockingWindowBaseImpl@VCUserListView@@VCWindow@ATL@@U?$CBoxedDockingWindowTraits@UCVC7LikeCaption@dockwins@@V?$CTabDockingBox@U?$CDockingBoxTraits@UCVC7LikeCaption@dockwins@@$0IGMPAAAA@$0IA@@dockwins@@@2@$0JGMPAAAA@$0IA@@dockwins@@@dockwins@@QBE_NPAUtagDFDOCKPOS@2@@Z 00448fd0 f i ChildFrm.obj
 0001:00047fd0       ?OnGetDockingPosition@?$CBoxedDockingWindowBaseImpl@VCEventLogView@@VCWindow@ATL@@U?$CBoxedDockingWindowTraits@VCVC7LikeExCaption@dockwins@@V?$CTabDockingBox@U?$CDockingBoxTraits@VCVC7LikeExCaption@dockwins@@$0IGMPAAAA@$0IA@@dockwins@@@2@$0JGMPAAAA@$0IA@@dockwins@@@dockwins@@QBE_NPAUtagDFDOCKPOS@2@@Z 00448fd0 f i EventLogFrm.obj
 0001:00047fd0       ?OnGetDockingPosition@?$CBoxedDockingWindowBaseImpl@V?$CTabDockingBox@U?$CDockingBoxTraits@UCVC7LikeCaption@dockwins@@$0IGMPAAAA@$0IA@@dockwins@@@dockwins@@VCWindow@ATL@@U?$CDockingBoxTraits@UCVC7LikeCaption@dockwins@@$0IGMPAAAA@$0IA@@2@@dockwins@@QBE_NPAUtagDFDOCKPOS@2@@Z 00448fd0 f i ChildFrm.obj
 0001:00047fd0       ?OnGetDockingPosition@?$CBoxedDockingWindowBaseImpl@VCTransfersView@@VCWindow@ATL@@U?$CBoxedDockingWindowTraits@VCVC7LikeExCaption@dockwins@@V?$CTabDockingBox@U?$CDockingBoxTraits@VCVC7LikeExCaption@dockwins@@$0IGMPAAAA@$0IA@@dockwins@@@2@$0JGMPAAAA@$0IA@@dockwins@@@dockwins@@QBE_NPAUtagDFDOCKPOS@2@@Z 00448fd0 f i Transfers.obj
 0001:00047fd0       ?OnGetDockingPosition@?$CBoxedDockingWindowBaseImpl@VCServerMonitorView@@VCWindow@ATL@@U?$CBoxedDockingWindowTraits@VCVC7LikeExCaption@dockwins@@V?$CTabDockingBox@U?$CDockingBoxTraits@VCVC7LikeExCaption@dockwins@@$0IGMPAAAA@$0IA@@dockwins@@@2@$0JGMPAAAA@$0IA@@dockwins@@@dockwins@@QBE_NPAUtagDFDOCKPOS@2@@Z 00448fd0 f i HydraIRC.obj
 0001:00047fd0       ?OnGetDockingPosition@?$CBoxedDockingWindowBaseImpl@VCTextQueueView@@VCWindow@ATL@@U?$CBoxedDockingWindowTraits@VCVC7LikeExCaption@dockwins@@V?$CTabDockingBox@U?$CDockingBoxTraits@VCVC7LikeExCaption@dockwins@@$0IGMPAAAA@$0IA@@dockwins@@@2@$0JGMPAAAA@$0IA@@dockwins@@@dockwins@@QBE_NPAUtagDFDOCKPOS@2@@Z 00448fd0 f i TextQueueFrm.obj
 0001:00048080       ?NcCalcSize@?$CTitleDockingWindowBaseImpl@VCTransfersView@@VCWindow@ATL@@U?$CBoxedDockingWindowTraits@VCVC7LikeExCaption@dockwins@@V?$CTabDockingBox@U?$CDockingBoxTraits@VCVC7LikeExCaption@dockwins@@$0IGMPAAAA@$0IA@@dockwins@@@2@$0JGMPAAAA@$0IA@@dockwins@@@dockwins@@QAEXPAVCRect@WTL@@@Z 00449080 f i Transfers.obj
 0001:00048080       ?NcCalcSize@?$CTitleDockingWindowBaseImpl@VCChannelMonitorView@@VCWindow@ATL@@U?$CBoxedDockingWindowTraits@VCVC7LikeExCaption@dockwins@@V?$CTabDockingBox@U?$CDockingBoxTraits@VCVC7LikeExCaption@dockwins@@$0IGMPAAAA@$0IA@@dockwins@@@2@$0JGMPAAAA@$0IA@@dockwins@@@dockwins@@QAEXPAVCRect@WTL@@@Z 00449080 f i HydraIRC.obj
 0001:00048080       ?NcCalcSize@?$CTitleDockingWindowBaseImpl@VCServerListView@@VCWindow@ATL@@U?$CBoxedDockingWindowTraits@UCVC7LikeCaption@dockwins@@V?$CTabDockingBox@U?$CDockingBoxTraits@UCVC7LikeCaption@dockwins@@$0IGMPAAAA@$0IA@@dockwins@@@2@$0JGMPAAAA@$0IA@@dockwins@@@dockwins@@QAEXPAVCRect@WTL@@@Z 00449080 f i HydraIRC.obj
 0001:00048080       ?NcCalcSize@?$CTitleDockingWindowBaseImpl@VCOutputView@@VCWindow@ATL@@U?$CBoxedDockingWindowTraits@VCVC7LikeExCaption@dockwins@@V?$CTabDockingBox@U?$CDockingBoxTraits@VCVC7LikeExCaption@dockwins@@$0IGMPAAAA@$0IA@@dockwins@@@2@$0JGMPAAAA@$0IA@@dockwins@@@dockwins@@QAEXPAVCRect@WTL@@@Z 00449080 f i Output.obj
 0001:00048080       ?NcCalcSize@?$CTitleDockingWindowBaseImpl@V?$CTabDockingBox@U?$CDockingBoxTraits@UCVC7LikeCaption@dockwins@@$0IGMPAAAA@$0IA@@dockwins@@@dockwins@@VCWindow@ATL@@U?$CDockingBoxTraits@UCVC7LikeCaption@dockwins@@$0IGMPAAAA@$0IA@@2@@dockwins@@QAEXPAVCRect@WTL@@@Z 00449080 f i ChildFrm.obj
 0001:00048080       ?NcCalcSize@?$CTitleDockingWindowBaseImpl@VCUserListView@@VCWindow@ATL@@U?$CBoxedDockingWindowTraits@UCVC7LikeCaption@dockwins@@V?$CTabDockingBox@U?$CDockingBoxTraits@UCVC7LikeCaption@dockwins@@$0IGMPAAAA@$0IA@@dockwins@@@2@$0JGMPAAAA@$0IA@@dockwins@@@dockwins@@QAEXPAVCRect@WTL@@@Z 00449080 f i ChildFrm.obj
 0001:00048080       ?NcCalcSize@?$CTitleDockingWindowBaseImpl@VCServerMonitorView@@VCWindow@ATL@@U?$CBoxedDockingWindowTraits@VCVC7LikeExCaption@dockwins@@V?$CTabDockingBox@U?$CDockingBoxTraits@VCVC7LikeExCaption@dockwins@@$0IGMPAAAA@$0IA@@dockwins@@@2@$0JGMPAAAA@$0IA@@dockwins@@@dockwins@@QAEXPAVCRect@WTL@@@Z 00449080 f i HydraIRC.obj
 0001:00048080       ?NcCalcSize@?$CTitleDockingWindowBaseImpl@V?$CTabDockingBox@U?$CDockingBoxTraits@VCVC7LikeExCaption@dockwins@@$0IGMPAAAA@$0IA@@dockwins@@@dockwins@@VCWindow@ATL@@U?$CDockingBoxTraits@VCVC7LikeExCaption@dockwins@@$0IGMPAAAA@$0IA@@2@@dockwins@@QAEXPAVCRect@WTL@@@Z 00449080 f i EventLogFrm.obj
 0001:00048080       ?NcCalcSize@?$CTitleDockingWindowBaseImpl@VCTextQueueView@@VCWindow@ATL@@U?$CBoxedDockingWindowTraits@VCVC7LikeExCaption@dockwins@@V?$CTabDockingBox@U?$CDockingBoxTraits@VCVC7LikeExCaption@dockwins@@$0IGMPAAAA@$0IA@@dockwins@@@2@$0JGMPAAAA@$0IA@@dockwins@@@dockwins@@QAEXPAVCRect@WTL@@@Z 00449080 f i TextQueueFrm.obj
 0001:00048080       ?NcCalcSize@?$CTitleDockingWindowBaseImpl@VCEventLogView@@VCWindow@ATL@@U?$CBoxedDockingWindowTraits@VCVC7LikeExCaption@dockwins@@V?$CTabDockingBox@U?$CDockingBoxTraits@VCVC7LikeExCaption@dockwins@@$0IGMPAAAA@$0IA@@dockwins@@@2@$0JGMPAAAA@$0IA@@dockwins@@@dockwins@@QAEXPAVCRect@WTL@@@Z 00449080 f i EventLogFrm.obj
 0001:000480d0       ?ApplySystemSettings@?$CDockingFrameImplBase@VCMainFrame@@V?$CMDIFrameWindowImpl@VCMainFrame@@VCHidingMDIWindow@@U?$CDockingFrameTraitsT@U?$CDockingWindowTraits@UCVC7LikeCaption@dockwins@@$0EGMAAAAA@$0IA@@dockwins@@V?$CSimpleSplitterBar@$02@2@$0GMPAAAA@$0EABAA@@dockwins@@@WTL@@U?$CDockingFrameTraitsT@U?$CDockingWindowTraits@UCVC7LikeCaption@dockwins@@$0EGMAAAAA@$0IA@@dockwins@@V?$CSimpleSplitterBar@$02@2@$0GMPAAAA@$0EABAA@@dockwins@@U?$CDockingWindowTraits@UCVC7LikeCaption@dockwins@@$0EGMAAAAA@$0IA@@5@@dockwins@@QAEXXZ 004490d0 f i HydraIRC.obj
 0001:00048100       ?InitializeDockingFrame@?$CDockingFrameImplBase@VCMainFrame@@V?$CMDIFrameWindowImpl@VCMainFrame@@VCHidingMDIWindow@@U?$CDockingFrameTraitsT@U?$CDockingWindowTraits@UCVC7LikeCaption@dockwins@@$0EGMAAAAA@$0IA@@dockwins@@V?$CSimpleSplitterBar@$02@2@$0GMPAAAA@$0EABAA@@dockwins@@@WTL@@U?$CDockingFrameTraitsT@U?$CDockingWindowTraits@UCVC7LikeCaption@dockwins@@$0EGMAAAAA@$0IA@@dockwins@@V?$CSimpleSplitterBar@$02@2@$0GMPAAAA@$0EABAA@@dockwins@@U?$CDockingWindowTraits@UCVC7LikeCaption@dockwins@@$0EGMAAAAA@$0IA@@5@@dockwins@@QAE_NVCDWStyle@2@@Z 00449100 f i HydraIRC.obj
 0001:000481b0       ?SetStyle@CDWSettings@dockwins@@QBE?AVCDWStyle@2@ABV32@@Z 004491b0 f i HydraIRC.obj
 0001:000481e0       ?SetStyle@CSettings@CDWSettings@dockwins@@QAE?AVCDWStyle@3@ABV43@@Z 004491e0 f i HydraIRC.obj
 0001:00048210       ?InstallHook@CDockingFocusHandler@dockwins@@QAEJPAUHWND__@@@Z 00449210 f i HydraIRC.obj
 0001:00048270       ?get_m_hInst@CComModule@ATL@@QBEAAPAUHINSTANCE__@@XZ 00449270 f i HydraIRC.obj
 0001:00048280       ?CBTProcStub@CDockingFocusHandler@dockwins@@CGJHIJ@Z 00449280 f i HydraIRC.obj
 0001:000482b0       ?CBTProc@CDockingFocusHandler@dockwins@@AAGJHIJ@Z 004492b0 f i HydraIRC.obj
 0001:00048380       ?UpdateFocus@CDockingFocusHandler@dockwins@@AAEXPAUHWND__@@0@Z 00449380 f i HydraIRC.obj
 0001:000483f0       ?UpdateLayout@?$CDockingFrameImplBase@VCMainFrame@@V?$CMDIFrameWindowImpl@VCMainFrame@@VCHidingMDIWindow@@U?$CDockingFrameTraitsT@U?$CDockingWindowTraits@UCVC7LikeCaption@dockwins@@$0EGMAAAAA@$0IA@@dockwins@@V?$CSimpleSplitterBar@$02@2@$0GMPAAAA@$0EABAA@@dockwins@@@WTL@@U?$CDockingFrameTraitsT@U?$CDockingWindowTraits@UCVC7LikeCaption@dockwins@@$0EGMAAAAA@$0IA@@dockwins@@V?$CSimpleSplitterBar@$02@2@$0GMPAAAA@$0EABAA@@dockwins@@U?$CDockingWindowTraits@UCVC7LikeCaption@dockwins@@$0EGMAAAAA@$0IA@@5@@dockwins@@QAEXH@Z 004493f0 f i HydraIRC.obj
 0001:000484b0       ?GetMinMaxInfo@?$CDockingFrameImplBase@VCMainFrame@@V?$CMDIFrameWindowImpl@VCMainFrame@@VCHidingMDIWindow@@U?$CDockingFrameTraitsT@U?$CDockingWindowTraits@UCVC7LikeCaption@dockwins@@$0EGMAAAAA@$0IA@@dockwins@@V?$CSimpleSplitterBar@$02@2@$0GMPAAAA@$0EABAA@@dockwins@@@WTL@@U?$CDockingFrameTraitsT@U?$CDockingWindowTraits@UCVC7LikeCaption@dockwins@@$0EGMAAAAA@$0IA@@dockwins@@V?$CSimpleSplitterBar@$02@2@$0GMPAAAA@$0EABAA@@dockwins@@U?$CDockingWindowTraits@UCVC7LikeCaption@dockwins@@$0EGMAAAAA@$0IA@@5@@dockwins@@QBEXPAUtagMINMAXINFO@@@Z 004494b0 f i HydraIRC.obj
 0001:00048580       ?Draw@?$CDockingFrameImplBase@VCMainFrame@@V?$CMDIFrameWindowImpl@VCMainFrame@@VCHidingMDIWindow@@U?$CDockingFrameTraitsT@U?$CDockingWindowTraits@UCVC7LikeCaption@dockwins@@$0EGMAAAAA@$0IA@@dockwins@@V?$CSimpleSplitterBar@$02@2@$0GMPAAAA@$0EABAA@@dockwins@@@WTL@@U?$CDockingFrameTraitsT@U?$CDockingWindowTraits@UCVC7LikeCaption@dockwins@@$0EGMAAAAA@$0IA@@dockwins@@V?$CSimpleSplitterBar@$02@2@$0GMPAAAA@$0EABAA@@dockwins@@U?$CDockingWindowTraits@UCVC7LikeCaption@dockwins@@$0EGMAAAAA@$0IA@@5@@dockwins@@QAEXAAV?$CDCT@$00@WTL@@@Z 00449580 f i HydraIRC.obj
 0001:000485c0       ?GetCursor@?$CDockingFrameImplBase@VCMainFrame@@V?$CMDIFrameWindowImpl@VCMainFrame@@VCHidingMDIWindow@@U?$CDockingFrameTraitsT@U?$CDockingWindowTraits@UCVC7LikeCaption@dockwins@@$0EGMAAAAA@$0IA@@dockwins@@V?$CSimpleSplitterBar@$02@2@$0GMPAAAA@$0EABAA@@dockwins@@@WTL@@U?$CDockingFrameTraitsT@U?$CDockingWindowTraits@UCVC7LikeCaption@dockwins@@$0EGMAAAAA@$0IA@@dockwins@@V?$CSimpleSplitterBar@$02@2@$0GMPAAAA@$0EABAA@@dockwins@@U?$CDockingWindowTraits@UCVC7LikeCaption@dockwins@@$0EGMAAAAA@$0IA@@5@@dockwins@@QAEPAUHICON__@@ABVCPoint@WTL@@@Z 004495c0 f i HydraIRC.obj
 0001:00048650       ?StartSliding@?$CDockingFrameImplBase@VCMainFrame@@V?$CMDIFrameWindowImpl@VCMainFrame@@VCHidingMDIWindow@@U?$CDockingFrameTraitsT@U?$CDockingWindowTraits@UCVC7LikeCaption@dockwins@@$0EGMAAAAA@$0IA@@dockwins@@V?$CSimpleSplitterBar@$02@2@$0GMPAAAA@$0EABAA@@dockwins@@@WTL@@U?$CDockingFrameTraitsT@U?$CDockingWindowTraits@UCVC7LikeCaption@dockwins@@$0EGMAAAAA@$0IA@@dockwins@@V?$CSimpleSplitterBar@$02@2@$0GMPAAAA@$0EABAA@@dockwins@@U?$CDockingWindowTraits@UCVC7LikeCaption@dockwins@@$0EGMAAAAA@$0IA@@5@@dockwins@@QAE_NABVCPoint@WTL@@@Z 00449650 f i HydraIRC.obj
 0001:00048750       ?GhostDrag@CDWSettings@dockwins@@QBE_NXZ 00449750 f i HydraIRC.obj
 0001:00048770       ?GhostDrag@CSettings@CDWSettings@dockwins@@QBE_NXZ 00449770 f i HydraIRC.obj
 0001:00048790       ?AdjustDragRect@?$CDockingFrameImplBase@VCMainFrame@@V?$CMDIFrameWindowImpl@VCMainFrame@@VCHidingMDIWindow@@U?$CDockingFrameTraitsT@U?$CDockingWindowTraits@UCVC7LikeCaption@dockwins@@$0EGMAAAAA@$0IA@@dockwins@@V?$CSimpleSplitterBar@$02@2@$0GMPAAAA@$0EABAA@@dockwins@@@WTL@@U?$CDockingFrameTraitsT@U?$CDockingWindowTraits@UCVC7LikeCaption@dockwins@@$0EGMAAAAA@$0IA@@dockwins@@V?$CSimpleSplitterBar@$02@2@$0GMPAAAA@$0EABAA@@dockwins@@U?$CDockingWindowTraits@UCVC7LikeCaption@dockwins@@$0EGMAAAAA@$0IA@@5@@dockwins@@QAE_NPAUtagDFDOCKRECT@2@@Z 00449790 f i HydraIRC.obj
 0001:00048880       ?AcceptDock@?$CDockingFrameImplBase@VCMainFrame@@V?$CMDIFrameWindowImpl@VCMainFrame@@VCHidingMDIWindow@@U?$CDockingFrameTraitsT@U?$CDockingWindowTraits@UCVC7LikeCaption@dockwins@@$0EGMAAAAA@$0IA@@dockwins@@V?$CSimpleSplitterBar@$02@2@$0GMPAAAA@$0EABAA@@dockwins@@@WTL@@U?$CDockingFrameTraitsT@U?$CDockingWindowTraits@UCVC7LikeCaption@dockwins@@$0EGMAAAAA@$0IA@@dockwins@@V?$CSimpleSplitterBar@$02@2@$0GMPAAAA@$0EABAA@@dockwins@@U?$CDockingWindowTraits@UCVC7LikeCaption@dockwins@@$0EGMAAAAA@$0IA@@5@@dockwins@@QAEJPAUtagDFDOCKRECT@2@@Z 00449880 f i HydraIRC.obj
 0001:00048940       ?ScreenToClient@CWindow@ATL@@QBEHPAUtagRECT@@@Z 00449940 f i HydraIRC.obj
 0001:00048980       ?Dock@?$CDockingFrameImplBase@VCMainFrame@@V?$CMDIFrameWindowImpl@VCMainFrame@@VCHidingMDIWindow@@U?$CDockingFrameTraitsT@U?$CDockingWindowTraits@UCVC7LikeCaption@dockwins@@$0EGMAAAAA@$0IA@@dockwins@@V?$CSimpleSplitterBar@$02@2@$0GMPAAAA@$0EABAA@@dockwins@@@WTL@@U?$CDockingFrameTraitsT@U?$CDockingWindowTraits@UCVC7LikeCaption@dockwins@@$0EGMAAAAA@$0IA@@dockwins@@V?$CSimpleSplitterBar@$02@2@$0GMPAAAA@$0EABAA@@dockwins@@U?$CDockingWindowTraits@UCVC7LikeCaption@dockwins@@$0EGMAAAAA@$0IA@@5@@dockwins@@QAEJPAUtagDFDOCKRECT@2@@Z 00449980 f i HydraIRC.obj
 0001:00048a30       ?Undock@?$CDockingFrameImplBase@VCMainFrame@@V?$CMDIFrameWindowImpl@VCMainFrame@@VCHidingMDIWindow@@U?$CDockingFrameTraitsT@U?$CDockingWindowTraits@UCVC7LikeCaption@dockwins@@$0EGMAAAAA@$0IA@@dockwins@@V?$CSimpleSplitterBar@$02@2@$0GMPAAAA@$0EABAA@@dockwins@@@WTL@@U?$CDockingFrameTraitsT@U?$CDockingWindowTraits@UCVC7LikeCaption@dockwins@@$0EGMAAAAA@$0IA@@dockwins@@V?$CSimpleSplitterBar@$02@2@$0GMPAAAA@$0EABAA@@dockwins@@U?$CDockingWindowTraits@UCVC7LikeCaption@dockwins@@$0EGMAAAAA@$0IA@@5@@dockwins@@QAEJPAUtagDFMHDR@2@@Z 00449a30 f i HydraIRC.obj
 0001:00048aa0       ?SetDockingPosition@?$CDockingFrameImplBase@VCMainFrame@@V?$CMDIFrameWindowImpl@VCMainFrame@@VCHidingMDIWindow@@U?$CDockingFrameTraitsT@U?$CDockingWindowTraits@UCVC7LikeCaption@dockwins@@$0EGMAAAAA@$0IA@@dockwins@@V?$CSimpleSplitterBar@$02@2@$0GMPAAAA@$0EABAA@@dockwins@@@WTL@@U?$CDockingFrameTraitsT@U?$CDockingWindowTraits@UCVC7LikeCaption@dockwins@@$0EGMAAAAA@$0IA@@dockwins@@V?$CSimpleSplitterBar@$02@2@$0GMPAAAA@$0EABAA@@dockwins@@U?$CDockingWindowTraits@UCVC7LikeCaption@dockwins@@$0EGMAAAAA@$0IA@@5@@dockwins@@QAE_NPAUtagDFDOCKPOS@2@@Z 00449aa0 f i HydraIRC.obj
 0001:00048b20       ?IsHorizontal@CDockingSide@dockwins@@QBE_NXZ 00449b20 f i HydraIRC.obj
 0001:00048b40       ?GetDockingPosition@?$CDockingFrameImplBase@VCMainFrame@@V?$CMDIFrameWindowImpl@VCMainFrame@@VCHidingMDIWindow@@U?$CDockingFrameTraitsT@U?$CDockingWindowTraits@UCVC7LikeCaption@dockwins@@$0EGMAAAAA@$0IA@@dockwins@@V?$CSimpleSplitterBar@$02@2@$0GMPAAAA@$0EABAA@@dockwins@@@WTL@@U?$CDockingFrameTraitsT@U?$CDockingWindowTraits@UCVC7LikeCaption@dockwins@@$0EGMAAAAA@$0IA@@dockwins@@V?$CSimpleSplitterBar@$02@2@$0GMPAAAA@$0EABAA@@dockwins@@U?$CDockingWindowTraits@UCVC7LikeCaption@dockwins@@$0EGMAAAAA@$0IA@@5@@dockwins@@QBE_NPAUtagDFDOCKPOS@2@@Z 00449b40 f i HydraIRC.obj
 0001:00048bc0       ?OnMouseMove@?$CDockingFrameImplBase@VCMainFrame@@V?$CMDIFrameWindowImpl@VCMainFrame@@VCHidingMDIWindow@@U?$CDockingFrameTraitsT@U?$CDockingWindowTraits@UCVC7LikeCaption@dockwins@@$0EGMAAAAA@$0IA@@dockwins@@V?$CSimpleSplitterBar@$02@2@$0GMPAAAA@$0EABAA@@dockwins@@@WTL@@U?$CDockingFrameTraitsT@U?$CDockingWindowTraits@UCVC7LikeCaption@dockwins@@$0EGMAAAAA@$0IA@@dockwins@@V?$CSimpleSplitterBar@$02@2@$0GMPAAAA@$0EABAA@@dockwins@@U?$CDockingWindowTraits@UCVC7LikeCaption@dockwins@@$0EGMAAAAA@$0IA@@5@@dockwins@@QAE_NKABVCPoint@WTL@@@Z 00449bc0 f i HydraIRC.obj
 0001:00048c20       ?OnMouseHover@?$CDockingFrameImplBase@VCMainFrame@@V?$CMDIFrameWindowImpl@VCMainFrame@@VCHidingMDIWindow@@U?$CDockingFrameTraitsT@U?$CDockingWindowTraits@UCVC7LikeCaption@dockwins@@$0EGMAAAAA@$0IA@@dockwins@@V?$CSimpleSplitterBar@$02@2@$0GMPAAAA@$0EABAA@@dockwins@@@WTL@@U?$CDockingFrameTraitsT@U?$CDockingWindowTraits@UCVC7LikeCaption@dockwins@@$0EGMAAAAA@$0IA@@dockwins@@V?$CSimpleSplitterBar@$02@2@$0GMPAAAA@$0EABAA@@dockwins@@U?$CDockingWindowTraits@UCVC7LikeCaption@dockwins@@$0EGMAAAAA@$0IA@@5@@dockwins@@QAE_NKABVCPoint@WTL@@@Z 00449c20 f i HydraIRC.obj
 0001:00048c50       ?PinUp@?$CDockingFrameImplBase@VCMainFrame@@V?$CMDIFrameWindowImpl@VCMainFrame@@VCHidingMDIWindow@@U?$CDockingFrameTraitsT@U?$CDockingWindowTraits@UCVC7LikeCaption@dockwins@@$0EGMAAAAA@$0IA@@dockwins@@V?$CSimpleSplitterBar@$02@2@$0GMPAAAA@$0EABAA@@dockwins@@@WTL@@U?$CDockingFrameTraitsT@U?$CDockingWindowTraits@UCVC7LikeCaption@dockwins@@$0EGMAAAAA@$0IA@@dockwins@@V?$CSimpleSplitterBar@$02@2@$0GMPAAAA@$0EABAA@@dockwins@@U?$CDockingWindowTraits@UCVC7LikeCaption@dockwins@@$0EGMAAAAA@$0IA@@5@@dockwins@@QAE_NPAUtagDFPINUP@2@@Z 00449c50 f i HydraIRC.obj
 0001:00048cc0       ?IsPinned@?$CDockingFrameImplBase@VCMainFrame@@V?$CMDIFrameWindowImpl@VCMainFrame@@VCHidingMDIWindow@@U?$CDockingFrameTraitsT@U?$CDockingWindowTraits@UCVC7LikeCaption@dockwins@@$0EGMAAAAA@$0IA@@dockwins@@V?$CSimpleSplitterBar@$02@2@$0GMPAAAA@$0EABAA@@dockwins@@@WTL@@U?$CDockingFrameTraitsT@U?$CDockingWindowTraits@UCVC7LikeCaption@dockwins@@$0EGMAAAAA@$0IA@@dockwins@@V?$CSimpleSplitterBar@$02@2@$0GMPAAAA@$0EABAA@@dockwins@@U?$CDockingWindowTraits@UCVC7LikeCaption@dockwins@@$0EGMAAAAA@$0IA@@5@@dockwins@@QBEJPAUtagDFMHDR@2@@Z 00449cc0 f i HydraIRC.obj
 0001:00048cf0       ?DefWindowProcA@?$CMDIFrameWindowImpl@VCMainFrame@@VCHidingMDIWindow@@U?$CDockingFrameTraitsT@U?$CDockingWindowTraits@UCVC7LikeCaption@dockwins@@$0EGMAAAAA@$0IA@@dockwins@@V?$CSimpleSplitterBar@$02@2@$0GMPAAAA@$0EABAA@@dockwins@@@WTL@@QAEJIIJ@Z 00449cf0 f i HydraIRC.obj
 0001:00048d20       ?Create@?$CFrameWindowImplBase@VCHidingMDIWindow@@U?$CDockingFrameTraitsT@U?$CDockingWindowTraits@UCVC7LikeCaption@dockwins@@$0EGMAAAAA@$0IA@@dockwins@@V?$CSimpleSplitterBar@$02@2@$0GMPAAAA@$0EABAA@@dockwins@@@WTL@@QAEPAUHWND__@@PAU3@V_U_RECT@ATL@@PBDKKV_U_MENUorID@5@GPAX@Z 00449d20 f i HydraIRC.obj
 0001:00048d20       ?Create@?$CFrameWindowImplBase@VCMDIWindow@WTL@@V?$CWinTraits@$0FGMPAAAA@$0EA@@ATL@@@WTL@@QAEPAUHWND__@@PAU3@V_U_RECT@ATL@@PBDKKV_U_MENUorID@5@GPAX@Z 00449d20 f i Channel.obj
 0001:00048dd0       ?PrepareChevronMenu@?$CFrameWindowImplBase@VCMDIWindow@WTL@@V?$CWinTraits@$0FGMPAAAA@$0EA@@ATL@@@WTL@@QAE_NAAU_ChevronMenuInfo@12@@Z 00449dd0 f i ChildFrm.obj
